
proyecto.elf:     file format elf32-littlearm

Sections:
Idx Name          Size      VMA       LMA       File off  Algn
  0 .text         0000a348  0c100000  0c100000  00008000  2**2
                  CONTENTS, ALLOC, LOAD, READONLY, CODE
  1 .rodata       00001d68  0c10a348  0c10a348  00012348  2**2
                  CONTENTS, ALLOC, LOAD, READONLY, DATA
  2 .ARM.exidx    00000008  0c10c0b0  0c10c0b0  000140b0  2**2
                  CONTENTS, ALLOC, LOAD, READONLY, DATA
  3 .data         00000014  0c10c0b8  0c10c0b8  000140b8  2**2
                  CONTENTS, ALLOC, LOAD, DATA
  4 .lcdbuffer    00009600  0c10c0cc  0c10c0cc  000140cc  2**2
                  CONTENTS, ALLOC, LOAD, DATA
  5 .bss          00000192  0c1156cc  0c1156cc  0001d6cc  2**2
                  ALLOC
  6 .debug_abbrev 00000e05  00000000  00000000  0001d6cc  2**0
                  CONTENTS, READONLY, DEBUGGING
  7 .debug_info   00003280  00000000  00000000  0001e4d1  2**0
                  CONTENTS, READONLY, DEBUGGING
  8 .debug_line   000015cc  00000000  00000000  00021751  2**0
                  CONTENTS, READONLY, DEBUGGING
  9 .debug_macinfo 00043578  00000000  00000000  00022d1d  2**0
                  CONTENTS, READONLY, DEBUGGING
 10 .debug_loc    00001c5c  00000000  00000000  00066295  2**0
                  CONTENTS, READONLY, DEBUGGING
 11 .debug_pubnames 00000bf0  00000000  00000000  00067ef1  2**0
                  CONTENTS, READONLY, DEBUGGING
 12 .debug_pubtypes 0000035e  00000000  00000000  00068ae1  2**0
                  CONTENTS, READONLY, DEBUGGING
 13 .debug_aranges 000001c0  00000000  00000000  00068e3f  2**0
                  CONTENTS, READONLY, DEBUGGING
 14 .debug_str    00000f6e  00000000  00000000  00068fff  2**0
                  CONTENTS, READONLY, DEBUGGING
 15 .comment      0000002a  00000000  00000000  00069f6d  2**0
                  CONTENTS, READONLY
 16 .ARM.attributes 00000032  00000000  00000000  00069f97  2**0
                  CONTENTS, READONLY
 17 .debug_frame  000018a0  00000000  00000000  00069fcc  2**2
                  CONTENTS, READONLY, DEBUGGING

Disassembly of section .text:

0c100000 <delete_task>:
 c100000:	e1a0c00d 	mov	ip, sp
 c100004:	e92dd800 	push	{fp, ip, lr, pc}
 c100008:	e24cb004 	sub	fp, ip, #4
 c10000c:	e24dd008 	sub	sp, sp, #8
 c100010:	e50b0010 	str	r0, [fp, #-16]
 c100014:	e59f3074 	ldr	r3, [pc, #116]	; c100090 <delete_task+0x90>
 c100018:	e51b2010 	ldr	r2, [fp, #-16]
 c10001c:	e3a01000 	mov	r1, #0
 c100020:	e7831202 	str	r1, [r3, r2, lsl #4]
 c100024:	e59f1064 	ldr	r1, [pc, #100]	; c100090 <delete_task+0x90>
 c100028:	e51b2010 	ldr	r2, [fp, #-16]
 c10002c:	e3a03004 	mov	r3, #4
 c100030:	e1a02202 	lsl	r2, r2, #4
 c100034:	e0812002 	add	r2, r1, r2
 c100038:	e0823003 	add	r3, r2, r3
 c10003c:	e3a02000 	mov	r2, #0
 c100040:	e5832000 	str	r2, [r3]
 c100044:	e59f1044 	ldr	r1, [pc, #68]	; c100090 <delete_task+0x90>
 c100048:	e51b2010 	ldr	r2, [fp, #-16]
 c10004c:	e3a03008 	mov	r3, #8
 c100050:	e1a02202 	lsl	r2, r2, #4
 c100054:	e0812002 	add	r2, r1, r2
 c100058:	e0823003 	add	r3, r2, r3
 c10005c:	e3a02000 	mov	r2, #0
 c100060:	e5832000 	str	r2, [r3]
 c100064:	e59f1024 	ldr	r1, [pc, #36]	; c100090 <delete_task+0x90>
 c100068:	e51b2010 	ldr	r2, [fp, #-16]
 c10006c:	e3a03008 	mov	r3, #8
 c100070:	e1a02202 	lsl	r2, r2, #4
 c100074:	e0812002 	add	r2, r1, r2
 c100078:	e0823003 	add	r3, r2, r3
 c10007c:	e3a02000 	mov	r2, #0
 c100080:	e5c32004 	strb	r2, [r3, #4]
 c100084:	e24bd00c 	sub	sp, fp, #12
 c100088:	e89d6800 	ldm	sp, {fp, sp, lr}
 c10008c:	e12fff1e 	bx	lr
 c100090:	0c1156cc 	.word	0x0c1156cc

0c100094 <create_task>:
 c100094:	e1a0c00d 	mov	ip, sp
 c100098:	e92dd800 	push	{fp, ip, lr, pc}
 c10009c:	e24cb004 	sub	fp, ip, #4
 c1000a0:	e24dd010 	sub	sp, sp, #16
 c1000a4:	e50b0018 	str	r0, [fp, #-24]	; 0xffffffe8
 c1000a8:	e50b101c 	str	r1, [fp, #-28]	; 0xffffffe4
 c1000ac:	e3a03000 	mov	r3, #0
 c1000b0:	e50b3010 	str	r3, [fp, #-16]
 c1000b4:	ea000002 	b	c1000c4 <create_task+0x30>
 c1000b8:	e51b3010 	ldr	r3, [fp, #-16]
 c1000bc:	e2833001 	add	r3, r3, #1
 c1000c0:	e50b3010 	str	r3, [fp, #-16]
 c1000c4:	e51b3010 	ldr	r3, [fp, #-16]
 c1000c8:	e3530009 	cmp	r3, #9
 c1000cc:	8a000004 	bhi	c1000e4 <create_task+0x50>
 c1000d0:	e59f309c 	ldr	r3, [pc, #156]	; c100174 <create_task+0xe0>
 c1000d4:	e51b2010 	ldr	r2, [fp, #-16]
 c1000d8:	e7933202 	ldr	r3, [r3, r2, lsl #4]
 c1000dc:	e3530000 	cmp	r3, #0
 c1000e0:	1afffff4 	bne	c1000b8 <create_task+0x24>
 c1000e4:	e59f3088 	ldr	r3, [pc, #136]	; c100174 <create_task+0xe0>
 c1000e8:	e51b2010 	ldr	r2, [fp, #-16]
 c1000ec:	e51b1018 	ldr	r1, [fp, #-24]	; 0xffffffe8
 c1000f0:	e7831202 	str	r1, [r3, r2, lsl #4]
 c1000f4:	e59f1078 	ldr	r1, [pc, #120]	; c100174 <create_task+0xe0>
 c1000f8:	e51b2010 	ldr	r2, [fp, #-16]
 c1000fc:	e3a03004 	mov	r3, #4
 c100100:	e1a02202 	lsl	r2, r2, #4
 c100104:	e0812002 	add	r2, r1, r2
 c100108:	e0823003 	add	r3, r2, r3
 c10010c:	e51b201c 	ldr	r2, [fp, #-28]	; 0xffffffe4
 c100110:	e5832000 	str	r2, [r3]
 c100114:	e59f1058 	ldr	r1, [pc, #88]	; c100174 <create_task+0xe0>
 c100118:	e51b2010 	ldr	r2, [fp, #-16]
 c10011c:	e3a03008 	mov	r3, #8
 c100120:	e1a02202 	lsl	r2, r2, #4
 c100124:	e0812002 	add	r2, r1, r2
 c100128:	e0823003 	add	r3, r2, r3
 c10012c:	e3a02000 	mov	r2, #0
 c100130:	e5832000 	str	r2, [r3]
 c100134:	e59f1038 	ldr	r1, [pc, #56]	; c100174 <create_task+0xe0>
 c100138:	e51b2010 	ldr	r2, [fp, #-16]
 c10013c:	e3a03008 	mov	r3, #8
 c100140:	e1a02202 	lsl	r2, r2, #4
 c100144:	e0812002 	add	r2, r1, r2
 c100148:	e0823003 	add	r3, r2, r3
 c10014c:	e3a02000 	mov	r2, #0
 c100150:	e5c32004 	strb	r2, [r3, #4]
 c100154:	e51b3018 	ldr	r3, [fp, #-24]	; 0xffffffe8
 c100158:	e1a0e00f 	mov	lr, pc
 c10015c:	e12fff13 	bx	r3
 c100160:	e51b3010 	ldr	r3, [fp, #-16]
 c100164:	e1a00003 	mov	r0, r3
 c100168:	e24bd00c 	sub	sp, fp, #12
 c10016c:	e89d6800 	ldm	sp, {fp, sp, lr}
 c100170:	e12fff1e 	bx	lr
 c100174:	0c1156cc 	.word	0x0c1156cc

0c100178 <scheduler_init>:
 c100178:	e1a0c00d 	mov	ip, sp
 c10017c:	e92dd800 	push	{fp, ip, lr, pc}
 c100180:	e24cb004 	sub	fp, ip, #4
 c100184:	e24dd008 	sub	sp, sp, #8
 c100188:	e3a03000 	mov	r3, #0
 c10018c:	e50b3010 	str	r3, [fp, #-16]
 c100190:	ea000004 	b	c1001a8 <scheduler_init+0x30>
 c100194:	e51b0010 	ldr	r0, [fp, #-16]
 c100198:	ebffff98 	bl	c100000 <delete_task>
 c10019c:	e51b3010 	ldr	r3, [fp, #-16]
 c1001a0:	e2833001 	add	r3, r3, #1
 c1001a4:	e50b3010 	str	r3, [fp, #-16]
 c1001a8:	e51b3010 	ldr	r3, [fp, #-16]
 c1001ac:	e3530009 	cmp	r3, #9
 c1001b0:	9afffff7 	bls	c100194 <scheduler_init+0x1c>
 c1001b4:	e24bd00c 	sub	sp, fp, #12
 c1001b8:	e89d6800 	ldm	sp, {fp, sp, lr}
 c1001bc:	e12fff1e 	bx	lr

0c1001c0 <scheduler>:
 c1001c0:	e52dc004 	push	{ip}		; (str ip, [sp, #-4]!)
 c1001c4:	e1a0c00d 	mov	ip, sp
 c1001c8:	e92dd80f 	push	{r0, r1, r2, r3, fp, ip, lr, pc}
 c1001cc:	e24cb004 	sub	fp, ip, #4
 c1001d0:	e24dd008 	sub	sp, sp, #8
 c1001d4:	e59f3108 	ldr	r3, [pc, #264]	; c1002e4 <scheduler+0x124>
 c1001d8:	e3a02a02 	mov	r2, #8192	; 0x2000
 c1001dc:	e5832000 	str	r2, [r3]
 c1001e0:	e3a03000 	mov	r3, #0
 c1001e4:	e50b3020 	str	r3, [fp, #-32]	; 0xffffffe0
 c1001e8:	ea000036 	b	c1002c8 <scheduler+0x108>
 c1001ec:	e59f30f4 	ldr	r3, [pc, #244]	; c1002e8 <scheduler+0x128>
 c1001f0:	e51b2020 	ldr	r2, [fp, #-32]	; 0xffffffe0
 c1001f4:	e7933202 	ldr	r3, [r3, r2, lsl #4]
 c1001f8:	e3530000 	cmp	r3, #0
 c1001fc:	0a00002e 	beq	c1002bc <scheduler+0xfc>
 c100200:	e59f10e0 	ldr	r1, [pc, #224]	; c1002e8 <scheduler+0x128>
 c100204:	e51b2020 	ldr	r2, [fp, #-32]	; 0xffffffe0
 c100208:	e3a03008 	mov	r3, #8
 c10020c:	e1a02202 	lsl	r2, r2, #4
 c100210:	e0812002 	add	r2, r1, r2
 c100214:	e0823003 	add	r3, r2, r3
 c100218:	e5933000 	ldr	r3, [r3]
 c10021c:	e2832001 	add	r2, r3, #1
 c100220:	e59f00c0 	ldr	r0, [pc, #192]	; c1002e8 <scheduler+0x128>
 c100224:	e51b1020 	ldr	r1, [fp, #-32]	; 0xffffffe0
 c100228:	e3a03008 	mov	r3, #8
 c10022c:	e1a01201 	lsl	r1, r1, #4
 c100230:	e0801001 	add	r1, r0, r1
 c100234:	e0813003 	add	r3, r1, r3
 c100238:	e5832000 	str	r2, [r3]
 c10023c:	e59f10a4 	ldr	r1, [pc, #164]	; c1002e8 <scheduler+0x128>
 c100240:	e51b2020 	ldr	r2, [fp, #-32]	; 0xffffffe0
 c100244:	e3a03008 	mov	r3, #8
 c100248:	e1a02202 	lsl	r2, r2, #4
 c10024c:	e0812002 	add	r2, r1, r2
 c100250:	e0823003 	add	r3, r2, r3
 c100254:	e5932000 	ldr	r2, [r3]
 c100258:	e59f0088 	ldr	r0, [pc, #136]	; c1002e8 <scheduler+0x128>
 c10025c:	e51b1020 	ldr	r1, [fp, #-32]	; 0xffffffe0
 c100260:	e3a03004 	mov	r3, #4
 c100264:	e1a01201 	lsl	r1, r1, #4
 c100268:	e0801001 	add	r1, r0, r1
 c10026c:	e0813003 	add	r3, r1, r3
 c100270:	e5933000 	ldr	r3, [r3]
 c100274:	e1520003 	cmp	r2, r3
 c100278:	1a00000f 	bne	c1002bc <scheduler+0xfc>
 c10027c:	e59f1064 	ldr	r1, [pc, #100]	; c1002e8 <scheduler+0x128>
 c100280:	e51b2020 	ldr	r2, [fp, #-32]	; 0xffffffe0
 c100284:	e3a03008 	mov	r3, #8
 c100288:	e1a02202 	lsl	r2, r2, #4
 c10028c:	e0812002 	add	r2, r1, r2
 c100290:	e0823003 	add	r3, r2, r3
 c100294:	e3a02000 	mov	r2, #0
 c100298:	e5832000 	str	r2, [r3]
 c10029c:	e59f1044 	ldr	r1, [pc, #68]	; c1002e8 <scheduler+0x128>
 c1002a0:	e51b2020 	ldr	r2, [fp, #-32]	; 0xffffffe0
 c1002a4:	e3a03008 	mov	r3, #8
 c1002a8:	e1a02202 	lsl	r2, r2, #4
 c1002ac:	e0812002 	add	r2, r1, r2
 c1002b0:	e0823003 	add	r3, r2, r3
 c1002b4:	e3a02001 	mov	r2, #1
 c1002b8:	e5c32004 	strb	r2, [r3, #4]
 c1002bc:	e51b3020 	ldr	r3, [fp, #-32]	; 0xffffffe0
 c1002c0:	e2833001 	add	r3, r3, #1
 c1002c4:	e50b3020 	str	r3, [fp, #-32]	; 0xffffffe0
 c1002c8:	e51b3020 	ldr	r3, [fp, #-32]	; 0xffffffe0
 c1002cc:	e3530009 	cmp	r3, #9
 c1002d0:	9affffc5 	bls	c1001ec <scheduler+0x2c>
 c1002d4:	e24bd01c 	sub	sp, fp, #28
 c1002d8:	e89d680f 	ldm	sp, {r0, r1, r2, r3, fp, sp, lr}
 c1002dc:	e49dc004 	pop	{ip}		; (ldr ip, [sp], #4)
 c1002e0:	e25ef004 	subs	pc, lr, #4
 c1002e4:	01e00024 	.word	0x01e00024
 c1002e8:	0c1156cc 	.word	0x0c1156cc

0c1002ec <dispacher>:
 c1002ec:	e1a0c00d 	mov	ip, sp
 c1002f0:	e92dd800 	push	{fp, ip, lr, pc}
 c1002f4:	e24cb004 	sub	fp, ip, #4
 c1002f8:	e24dd008 	sub	sp, sp, #8
 c1002fc:	e3a03000 	mov	r3, #0
 c100300:	e50b3010 	str	r3, [fp, #-16]
 c100304:	ea000018 	b	c10036c <dispacher+0x80>
 c100308:	e59f1074 	ldr	r1, [pc, #116]	; c100384 <dispacher+0x98>
 c10030c:	e51b2010 	ldr	r2, [fp, #-16]
 c100310:	e3a03008 	mov	r3, #8
 c100314:	e1a02202 	lsl	r2, r2, #4
 c100318:	e0812002 	add	r2, r1, r2
 c10031c:	e0823003 	add	r3, r2, r3
 c100320:	e5d33004 	ldrb	r3, [r3, #4]
 c100324:	e3530001 	cmp	r3, #1
 c100328:	1a00000c 	bne	c100360 <dispacher+0x74>
 c10032c:	e59f3050 	ldr	r3, [pc, #80]	; c100384 <dispacher+0x98>
 c100330:	e51b2010 	ldr	r2, [fp, #-16]
 c100334:	e7933202 	ldr	r3, [r3, r2, lsl #4]
 c100338:	e1a0e00f 	mov	lr, pc
 c10033c:	e12fff13 	bx	r3
 c100340:	e59f103c 	ldr	r1, [pc, #60]	; c100384 <dispacher+0x98>
 c100344:	e51b2010 	ldr	r2, [fp, #-16]
 c100348:	e3a03008 	mov	r3, #8
 c10034c:	e1a02202 	lsl	r2, r2, #4
 c100350:	e0812002 	add	r2, r1, r2
 c100354:	e0823003 	add	r3, r2, r3
 c100358:	e3a02000 	mov	r2, #0
 c10035c:	e5c32004 	strb	r2, [r3, #4]
 c100360:	e51b3010 	ldr	r3, [fp, #-16]
 c100364:	e2833001 	add	r3, r3, #1
 c100368:	e50b3010 	str	r3, [fp, #-16]
 c10036c:	e51b3010 	ldr	r3, [fp, #-16]
 c100370:	e3530009 	cmp	r3, #9
 c100374:	9affffe3 	bls	c100308 <dispacher+0x1c>
 c100378:	e24bd00c 	sub	sp, fp, #12
 c10037c:	e89d6800 	ldm	sp, {fp, sp, lr}
 c100380:	e12fff1e 	bx	lr
 c100384:	0c1156cc 	.word	0x0c1156cc

0c100388 <main>:

boolean printTicketFlag; /* mailbox donde la mainTask indica a ticketPrintTask que imprima un ticket */

/*******************************************************************/

void main(void) {
 c100388:	e1a0c00d 	mov	ip, sp
 c10038c:	e92dd800 	push	{fp, ip, lr, pc}
 c100390:	e24cb004 	sub	fp, ip, #4

	sys_init();
 c100394:	eb001756 	bl	c1060f4 <sys_init>
	leds_init();
 c100398:	eb0013ee 	bl	c105358 <leds_init>
	segs_init();
 c10039c:	eb001717 	bl	c106000 <segs_init>
	uart0_init();
 c1003a0:	eb0022bc 	bl	c108e98 <uart0_init>
	rtc_init();
 c1003a4:	eb0014ca 	bl	c1056d4 <rtc_init>
	timers_init();
 c1003a8:	eb001d57 	bl	c10790c <timers_init>
	keypad_init();
 c1003ac:	eb000eb1 	bl	c103e78 <keypad_init>
	lcd_init();
 c1003b0:	eb000eef 	bl	c103f74 <lcd_init>
	ts_init();
 c1003b4:	eb00225f 	bl	c108d38 <ts_init>

	lcd_on();
 c1003b8:	eb000f59 	bl	c104124 <lcd_on>
	ts_on();
 c1003bc:	eb002007 	bl	c1083e0 <ts_on>

	setup();
 c1003c0:	eb00032b 	bl	c101074 <setup>

	scheduler_init(); /* Inicializa el kernel */
 c1003c4:	ebffff6b 	bl	c100178 <scheduler_init>

	create_task(tsScanTask, 5); /* Crea las tareas de la aplicacion... */
 c1003c8:	e59f0058 	ldr	r0, [pc, #88]	; c100428 <main+0xa0>
 c1003cc:	e3a01005 	mov	r1, #5
 c1003d0:	ebffff2f 	bl	c100094 <create_task>
	create_task(coinsAcceptorTask, 5); /* ... el kernel asigna la prioridad segun orden de creacion */
 c1003d4:	e59f0050 	ldr	r0, [pc, #80]	; c10042c <main+0xa4>
 c1003d8:	e3a01005 	mov	r1, #5
 c1003dc:	ebffff2c 	bl	c100094 <create_task>
	create_task(mainTask, 10); /* ... las tareas mas frecuentes tienen mayor prioridad (criterio Rate-Monotonic-Scheduling) */
 c1003e0:	e59f0048 	ldr	r0, [pc, #72]	; c100430 <main+0xa8>
 c1003e4:	e3a0100a 	mov	r1, #10
 c1003e8:	ebffff29 	bl	c100094 <create_task>
	create_task(coinsMoverTask, 10);
 c1003ec:	e59f0040 	ldr	r0, [pc, #64]	; c100434 <main+0xac>
 c1003f0:	e3a0100a 	mov	r1, #10
 c1003f4:	ebffff26 	bl	c100094 <create_task>
	create_task(clockTask, 10);
 c1003f8:	e59f0038 	ldr	r0, [pc, #56]	; c100438 <main+0xb0>
 c1003fc:	e3a0100a 	mov	r1, #10
 c100400:	ebffff23 	bl	c100094 <create_task>
	create_task(ticketPrinterTask, 10);
 c100404:	e59f0030 	ldr	r0, [pc, #48]	; c10043c <main+0xb4>
 c100408:	e3a0100a 	mov	r1, #10
 c10040c:	ebffff20 	bl	c100094 <create_task>

	timer0_open_tick(scheduler, TICKS_PER_SEC); /* Instala scheduler como RTI del timer0  */
 c100410:	e59f0028 	ldr	r0, [pc, #40]	; c100440 <main+0xb8>
 c100414:	e3a01064 	mov	r1, #100	; 0x64
 c100418:	eb001eec 	bl	c107fd0 <timer0_open_tick>

	while (1) {
		sleep(); /* Entra en estado IDLE, sale por interrupcion */
 c10041c:	eb001d29 	bl	c1078c8 <sleep>
		dispacher(); /* Las tareas preparadas se ejecutan en esta hebra (background) en orden de prioridad */
 c100420:	ebffffb1 	bl	c1002ec <dispacher>
	}
 c100424:	eafffffc 	b	c10041c <main+0x94>
 c100428:	0c100cf8 	.word	0x0c100cf8
 c10042c:	0c100de4 	.word	0x0c100de4
 c100430:	0c100444 	.word	0x0c100444
 c100434:	0c100f44 	.word	0x0c100f44
 c100438:	0c100ca4 	.word	0x0c100ca4
 c10043c:	0c100ae8 	.word	0x0c100ae8
 c100440:	0c1001c0 	.word	0x0c1001c0

0c100444 <mainTask>:
/*******************************************************************/

/*
 ** Tarea principal, se activa cada 100 ms muestreando los mensajes enviados de otras tareas y actuando en consecuencia
 */
void mainTask(void) {
 c100444:	e1a0c00d 	mov	ip, sp
 c100448:	e92dd800 	push	{fp, ip, lr, pc}
 c10044c:	e24cb004 	sub	fp, ip, #4
 c100450:	e24dd040 	sub	sp, sp, #64	; 0x40
	static uint16 credit;
	static uint16 ticks;
	char bufferFechaLiberacion[40];
	char diaSemana[4];

	if (init) {
 c100454:	e59f364c 	ldr	r3, [pc, #1612]	; c100aa8 <mainTask+0x664>
 c100458:	e5d33000 	ldrb	r3, [r3]
 c10045c:	e3530000 	cmp	r3, #0
 c100460:	0a00000a 	beq	c100490 <mainTask+0x4c>
		init = FALSE;
 c100464:	e59f363c 	ldr	r3, [pc, #1596]	; c100aa8 <mainTask+0x664>
 c100468:	e3a02000 	mov	r2, #0
 c10046c:	e5c32000 	strb	r2, [r3]
		plotWelcomeScreen();
 c100470:	eb000336 	bl	c101150 <plotWelcomeScreen>
		credit = 0;
 c100474:	e59f3630 	ldr	r3, [pc, #1584]	; c100aac <mainTask+0x668>
 c100478:	e3a02000 	mov	r2, #0
 c10047c:	e1c320b0 	strh	r2, [r3]
		state = demo_waiting;
 c100480:	e59f3628 	ldr	r3, [pc, #1576]	; c100ab0 <mainTask+0x66c>
 c100484:	e3a02000 	mov	r2, #0
 c100488:	e5c32000 	strb	r2, [r3]
 c10048c:	ea000182 	b	c100a9c <mainTask+0x658>

	} else
		switch (state) {
 c100490:	e59f3618 	ldr	r3, [pc, #1560]	; c100ab0 <mainTask+0x66c>
 c100494:	e5d33000 	ldrb	r3, [r3]
 c100498:	e3530004 	cmp	r3, #4
 c10049c:	979ff103 	ldrls	pc, [pc, r3, lsl #2]
 c1004a0:	ea00017d 	b	c100a9c <mainTask+0x658>
 c1004a4:	0c1004b8 	.word	0x0c1004b8
 c1004a8:	0c100718 	.word	0x0c100718
 c1004ac:	0c1005ac 	.word	0x0c1005ac
 c1004b0:	0c100638 	.word	0x0c100638
 c1004b4:	0c10052c 	.word	0x0c10052c
		case demo_waiting: /* Estado en donde rechaza monedas y espera la pulsacion de la pantalla */

			if (tsPressedMsg.flag) /* Chequea si se ha pulsado la pantalla (mensaje recibido de la tarea tsPressedTask) */
 c1004b8:	e59f35f4 	ldr	r3, [pc, #1524]	; c100ab4 <mainTask+0x670>
 c1004bc:	e5d33000 	ldrb	r3, [r3]
 c1004c0:	e3530000 	cmp	r3, #0
 c1004c4:	0a00000a 	beq	c1004f4 <mainTask+0xb0>
			{
				tsPressedMsg.flag = FALSE; /* Marca el mensaje como leido */
 c1004c8:	e59f35e4 	ldr	r3, [pc, #1508]	; c100ab4 <mainTask+0x670>
 c1004cc:	e3a02000 	mov	r2, #0
 c1004d0:	e5c32000 	strb	r2, [r3]
				lcd_clear(); /* Borra pantalla */
 c1004d4:	eb000f3a 	bl	c1041c4 <lcd_clear>
				idiomaScreen();
 c1004d8:	eb000608 	bl	c101d00 <idiomaScreen>
				state = idioma;
 c1004dc:	e59f35cc 	ldr	r3, [pc, #1484]	; c100ab0 <mainTask+0x66c>
 c1004e0:	e3a02004 	mov	r2, #4
 c1004e4:	e5c32000 	strb	r2, [r3]
				ticks = 500; /* ... en el que debera permanecer un maximo de 500 ticks sin no hay actividad */
 c1004e8:	e59f35c8 	ldr	r3, [pc, #1480]	; c100ab8 <mainTask+0x674>
 c1004ec:	e3a02f7d 	mov	r2, #500	; 0x1f4
 c1004f0:	e1c320b0 	strh	r2, [r3]
			}
			if (coinAcceptorMsg.flag) /* Chequea si se ha introducido una moneda (mensaje recibido de la tarea coinAcceptorTask) */
 c1004f4:	e59f35c0 	ldr	r3, [pc, #1472]	; c100abc <mainTask+0x678>
 c1004f8:	e5d33000 	ldrb	r3, [r3]
 c1004fc:	e3530000 	cmp	r3, #0
 c100500:	0a00015c 	beq	c100a78 <mainTask+0x634>
			{
				coinAcceptorMsg.flag = FALSE; /* Marca el mensaje como leido */
 c100504:	e59f35b0 	ldr	r3, [pc, #1456]	; c100abc <mainTask+0x678>
 c100508:	e3a02000 	mov	r2, #0
 c10050c:	e5c32000 	strb	r2, [r3]
				coinsMoverMsg.accept = FALSE; /* Envia un mensaje para que la moneda se devuelva */
 c100510:	e59f35a8 	ldr	r3, [pc, #1448]	; c100ac0 <mainTask+0x67c>
 c100514:	e3a02000 	mov	r2, #0
 c100518:	e5c32001 	strb	r2, [r3, #1]
				coinsMoverMsg.flag = TRUE;
 c10051c:	e59f359c 	ldr	r3, [pc, #1436]	; c100ac0 <mainTask+0x67c>
 c100520:	e3a02001 	mov	r2, #1
 c100524:	e5c32000 	strb	r2, [r3]
			}
			break;
 c100528:	ea00015b 	b	c100a9c <mainTask+0x658>
		case idioma:

			if (!(--ticks)) //Decrementa ticks y chequea si ha permanecido en este estado el tiempo maximo
 c10052c:	e59f3584 	ldr	r3, [pc, #1412]	; c100ab8 <mainTask+0x674>
 c100530:	e1d330b0 	ldrh	r3, [r3]
 c100534:	e2433001 	sub	r3, r3, #1
 c100538:	e1a03803 	lsl	r3, r3, #16
 c10053c:	e1a02823 	lsr	r2, r3, #16
 c100540:	e59f3570 	ldr	r3, [pc, #1392]	; c100ab8 <mainTask+0x674>
 c100544:	e1c320b0 	strh	r2, [r3]
 c100548:	e59f3568 	ldr	r3, [pc, #1384]	; c100ab8 <mainTask+0x674>
 c10054c:	e1d330b0 	ldrh	r3, [r3]
 c100550:	e3530000 	cmp	r3, #0
 c100554:	1a000003 	bne	c100568 <mainTask+0x124>
			{
				plotWelcomeScreen(); // Visualiza pantalla inicial
 c100558:	eb0002fc 	bl	c101150 <plotWelcomeScreen>
				state = demo_waiting; // Salta al estado demo_waiting
 c10055c:	e59f354c 	ldr	r3, [pc, #1356]	; c100ab0 <mainTask+0x66c>
 c100560:	e3a02000 	mov	r2, #0
 c100564:	e5c32000 	strb	r2, [r3]
			}
			if (tsPressedMsg.flag) {
 c100568:	e59f3544 	ldr	r3, [pc, #1348]	; c100ab4 <mainTask+0x670>
 c10056c:	e5d33000 	ldrb	r3, [r3]
 c100570:	e3530000 	cmp	r3, #0
 c100574:	0a000141 	beq	c100a80 <mainTask+0x63c>
				tsPressedMsg.flag = FALSE; /* Marca el mensaje como leído */
 c100578:	e59f3534 	ldr	r3, [pc, #1332]	; c100ab4 <mainTask+0x670>
 c10057c:	e3a02000 	mov	r2, #0
 c100580:	e5c32000 	strb	r2, [r3]
				lcd_clear();
 c100584:	eb000f0e 	bl	c1041c4 <lcd_clear>
				idiomaSeleccionado();
 c100588:	eb0005ab 	bl	c101c3c <idiomaSeleccionado>
				plotSelectionScreen();
 c10058c:	eb000512 	bl	c1019dc <plotSelectionScreen>
				state = selection;
 c100590:	e59f3518 	ldr	r3, [pc, #1304]	; c100ab0 <mainTask+0x66c>
 c100594:	e3a02002 	mov	r2, #2
 c100598:	e5c32000 	strb	r2, [r3]
				ticks = 500; /* ... en el que debera permanecer un maximo de 500 ticks sin no hay actividad */
 c10059c:	e59f3514 	ldr	r3, [pc, #1300]	; c100ab8 <mainTask+0x674>
 c1005a0:	e3a02f7d 	mov	r2, #500	; 0x1f4
 c1005a4:	e1c320b0 	strh	r2, [r3]
			}
			break;
 c1005a8:	ea00013b 	b	c100a9c <mainTask+0x658>

		case selection:

			if (!(--ticks)) //Decrementa ticks y chequea si ha permanecido en este estado el tiempo maximo
 c1005ac:	e59f3504 	ldr	r3, [pc, #1284]	; c100ab8 <mainTask+0x674>
 c1005b0:	e1d330b0 	ldrh	r3, [r3]
 c1005b4:	e2433001 	sub	r3, r3, #1
 c1005b8:	e1a03803 	lsl	r3, r3, #16
 c1005bc:	e1a02823 	lsr	r2, r3, #16
 c1005c0:	e59f34f0 	ldr	r3, [pc, #1264]	; c100ab8 <mainTask+0x674>
 c1005c4:	e1c320b0 	strh	r2, [r3]
 c1005c8:	e59f34e8 	ldr	r3, [pc, #1256]	; c100ab8 <mainTask+0x674>
 c1005cc:	e1d330b0 	ldrh	r3, [r3]
 c1005d0:	e3530000 	cmp	r3, #0
 c1005d4:	1a000003 	bne	c1005e8 <mainTask+0x1a4>
			{
				plotWelcomeScreen(); // Visualiza pantalla inicial
 c1005d8:	eb0002dc 	bl	c101150 <plotWelcomeScreen>
				state = demo_waiting; // Salta al estado demo_waiting
 c1005dc:	e59f34cc 	ldr	r3, [pc, #1228]	; c100ab0 <mainTask+0x66c>
 c1005e0:	e3a02000 	mov	r2, #0
 c1005e4:	e5c32000 	strb	r2, [r3]
			}
			if (tsPressedMsg.flag) {
 c1005e8:	e59f34c4 	ldr	r3, [pc, #1220]	; c100ab4 <mainTask+0x670>
 c1005ec:	e5d33000 	ldrb	r3, [r3]
 c1005f0:	e3530000 	cmp	r3, #0
 c1005f4:	0a000123 	beq	c100a88 <mainTask+0x644>
				tsPressedMsg.flag = FALSE; /* Marca el mensaje como leído */
 c1005f8:	e59f34b4 	ldr	r3, [pc, #1204]	; c100ab4 <mainTask+0x670>
 c1005fc:	e3a02000 	mov	r2, #0
 c100600:	e5c32000 	strb	r2, [r3]
				plazaSelecc = plazaSeleccionada();
 c100604:	eb0005d5 	bl	c101d60 <plazaSeleccionada>
 c100608:	e1a03000 	mov	r3, r0
 c10060c:	e1a02003 	mov	r2, r3
 c100610:	e59f34ac 	ldr	r3, [pc, #1196]	; c100ac4 <mainTask+0x680>
 c100614:	e5c32000 	strb	r2, [r3]
				lcd_clear();
 c100618:	eb000ee9 	bl	c1041c4 <lcd_clear>
				state = payment; /* Cambia al siguiente estado */
 c10061c:	e59f348c 	ldr	r3, [pc, #1164]	; c100ab0 <mainTask+0x66c>
 c100620:	e3a02003 	mov	r2, #3
 c100624:	e5c32000 	strb	r2, [r3]
				ticks = 500; /* Inicializa el temporizador */
 c100628:	e59f3488 	ldr	r3, [pc, #1160]	; c100ab8 <mainTask+0x674>
 c10062c:	e3a02f7d 	mov	r2, #500	; 0x1f4
 c100630:	e1c320b0 	strh	r2, [r3]
			}
			break;
 c100634:	ea000118 	b	c100a9c <mainTask+0x658>
		case payment:

			if (!(--ticks)) //Decrementa ticks y chequea si ha permanecido en este estado el tiempo maximo
 c100638:	e59f3478 	ldr	r3, [pc, #1144]	; c100ab8 <mainTask+0x674>
 c10063c:	e1d330b0 	ldrh	r3, [r3]
 c100640:	e2433001 	sub	r3, r3, #1
 c100644:	e1a03803 	lsl	r3, r3, #16
 c100648:	e1a02823 	lsr	r2, r3, #16
 c10064c:	e59f3464 	ldr	r3, [pc, #1124]	; c100ab8 <mainTask+0x674>
 c100650:	e1c320b0 	strh	r2, [r3]
 c100654:	e59f345c 	ldr	r3, [pc, #1116]	; c100ab8 <mainTask+0x674>
 c100658:	e1d330b0 	ldrh	r3, [r3]
 c10065c:	e3530000 	cmp	r3, #0
 c100660:	1a000003 	bne	c100674 <mainTask+0x230>
			{
				plotWelcomeScreen(); // Visualiza pantalla inicial
 c100664:	eb0002b9 	bl	c101150 <plotWelcomeScreen>
				state = demo_waiting; // Salta al estado demo_waiting
 c100668:	e59f3440 	ldr	r3, [pc, #1088]	; c100ab0 <mainTask+0x66c>
 c10066c:	e3a02000 	mov	r2, #0
 c100670:	e5c32000 	strb	r2, [r3]
			}
			if (parking.plaza[plazaSelecc - 1].occupied) {
 c100674:	e59f3448 	ldr	r3, [pc, #1096]	; c100ac4 <mainTask+0x680>
 c100678:	e5d33000 	ldrb	r3, [r3]
 c10067c:	e2432001 	sub	r2, r3, #1
 c100680:	e59f3440 	ldr	r3, [pc, #1088]	; c100ac8 <mainTask+0x684>
 c100684:	e7d33182 	ldrb	r3, [r3, r2, lsl #3]
 c100688:	e3530000 	cmp	r3, #0
 c10068c:	0a000016 	beq	c1006ec <mainTask+0x2a8>
				plotOccupiedScreen(credit);
 c100690:	e59f3414 	ldr	r3, [pc, #1044]	; c100aac <mainTask+0x668>
 c100694:	e1d330b0 	ldrh	r3, [r3]
 c100698:	e1a00003 	mov	r0, r3
 c10069c:	eb000743 	bl	c1023b0 <plotOccupiedScreen>
				if (tsPressedMsg.flag) /* Chequea si se ha pulsado la pantalla (mensaje recibido de la tarea tsPressedTask) */
 c1006a0:	e59f340c 	ldr	r3, [pc, #1036]	; c100ab4 <mainTask+0x670>
 c1006a4:	e5d33000 	ldrb	r3, [r3]
 c1006a8:	e3530000 	cmp	r3, #0
 c1006ac:	0a0000f7 	beq	c100a90 <mainTask+0x64c>
				{
					tsPressedMsg.flag = FALSE;
 c1006b0:	e59f33fc 	ldr	r3, [pc, #1020]	; c100ab4 <mainTask+0x670>
 c1006b4:	e3a02000 	mov	r2, #0
 c1006b8:	e5c32000 	strb	r2, [r3]
					liberar();
 c1006bc:	eb0006e6 	bl	c10225c <liberar>
					sw_delay_s(5);
 c1006c0:	e3a00005 	mov	r0, #5
 c1006c4:	eb001d97 	bl	c107d28 <sw_delay_s>
					lcd_clear();
 c1006c8:	eb000ebd 	bl	c1041c4 <lcd_clear>
					plotSelectionScreen();
 c1006cc:	eb0004c2 	bl	c1019dc <plotSelectionScreen>
					state = selection;
 c1006d0:	e59f33d8 	ldr	r3, [pc, #984]	; c100ab0 <mainTask+0x66c>
 c1006d4:	e3a02002 	mov	r2, #2
 c1006d8:	e5c32000 	strb	r2, [r3]
					ticks = 500;
 c1006dc:	e59f33d4 	ldr	r3, [pc, #980]	; c100ab8 <mainTask+0x674>
 c1006e0:	e3a02f7d 	mov	r2, #500	; 0x1f4
 c1006e4:	e1c320b0 	strh	r2, [r3]
			} else {
				plotPaymentScreen(credit);
				state = demo_acceptCoins;
				ticks = 500;
			}
			break;
 c1006e8:	ea0000eb 	b	c100a9c <mainTask+0x658>
					plotSelectionScreen();
					state = selection;
					ticks = 500;
				}
			} else {
				plotPaymentScreen(credit);
 c1006ec:	e59f33b8 	ldr	r3, [pc, #952]	; c100aac <mainTask+0x668>
 c1006f0:	e1d330b0 	ldrh	r3, [r3]
 c1006f4:	e1a00003 	mov	r0, r3
 c1006f8:	eb00063c 	bl	c101ff0 <plotPaymentScreen>
				state = demo_acceptCoins;
 c1006fc:	e59f33ac 	ldr	r3, [pc, #940]	; c100ab0 <mainTask+0x66c>
 c100700:	e3a02001 	mov	r2, #1
 c100704:	e5c32000 	strb	r2, [r3]
				ticks = 500;
 c100708:	e59f33a8 	ldr	r3, [pc, #936]	; c100ab8 <mainTask+0x674>
 c10070c:	e3a02f7d 	mov	r2, #500	; 0x1f4
 c100710:	e1c320b0 	strh	r2, [r3]
			}
			break;
 c100714:	ea0000e0 	b	c100a9c <mainTask+0x658>
		case demo_acceptCoins: /* Estado en deonde acepta monedas y espera la pulsacion de la pantalla durante un tiempo maximo */
			if (!(--ticks)) /* Decrementa ticks y chequea si ha permanecido en este estado el tiempo maximo */
 c100718:	e59f3398 	ldr	r3, [pc, #920]	; c100ab8 <mainTask+0x674>
 c10071c:	e1d330b0 	ldrh	r3, [r3]
 c100720:	e2433001 	sub	r3, r3, #1
 c100724:	e1a03803 	lsl	r3, r3, #16
 c100728:	e1a02823 	lsr	r2, r3, #16
 c10072c:	e59f3384 	ldr	r3, [pc, #900]	; c100ab8 <mainTask+0x674>
 c100730:	e1c320b0 	strh	r2, [r3]
 c100734:	e59f337c 	ldr	r3, [pc, #892]	; c100ab8 <mainTask+0x674>
 c100738:	e1d330b0 	ldrh	r3, [r3]
 c10073c:	e3530000 	cmp	r3, #0
 c100740:	1a000003 	bne	c100754 <mainTask+0x310>
			{
				plotWelcomeScreen(); /* Visualiza pantalla inicial */
 c100744:	eb000281 	bl	c101150 <plotWelcomeScreen>
				state = demo_waiting; /* Salta al estado demo_waiting */
 c100748:	e59f3360 	ldr	r3, [pc, #864]	; c100ab0 <mainTask+0x66c>
 c10074c:	e3a02000 	mov	r2, #0
 c100750:	e5c32000 	strb	r2, [r3]
			}
			if (tsPressedMsg.flag) /* Chequea si se ha pulsado la pantalla (mensaje recibido de la tarea tsPressedTask) */
 c100754:	e59f3358 	ldr	r3, [pc, #856]	; c100ab4 <mainTask+0x670>
 c100758:	e5d33000 	ldrb	r3, [r3]
 c10075c:	e3530000 	cmp	r3, #0
 c100760:	0a00008c 	beq	c100998 <mainTask+0x554>
			{
				tsPressedMsg.flag = FALSE; /* Marca el mensaje como leido*/
 c100764:	e59f3348 	ldr	r3, [pc, #840]	; c100ab4 <mainTask+0x670>
 c100768:	e3a02000 	mov	r2, #0
 c10076c:	e5c32000 	strb	r2, [r3]

				rtc_time_t tiempoActual;
				rtc_gettime(&tiempoActual);
 c100770:	e24b3040 	sub	r3, fp, #64	; 0x40
 c100774:	e1a00003 	mov	r0, r3
 c100778:	eb0014d4 	bl	c105ad0 <rtc_gettime>

				if (credit < 20) {
 c10077c:	e59f3328 	ldr	r3, [pc, #808]	; c100aac <mainTask+0x668>
 c100780:	e1d330b0 	ldrh	r3, [r3]
 c100784:	e3530013 	cmp	r3, #19
 c100788:	8a000027 	bhi	c10082c <mainTask+0x3e8>
					coinsMoverMsg.accept = FALSE; /* Envia un mensaje para que las monedas se acepten */
 c10078c:	e59f332c 	ldr	r3, [pc, #812]	; c100ac0 <mainTask+0x67c>
 c100790:	e3a02000 	mov	r2, #0
 c100794:	e5c32001 	strb	r2, [r3, #1]
					coinsMoverMsg.flag = TRUE;
 c100798:	e59f3320 	ldr	r3, [pc, #800]	; c100ac0 <mainTask+0x67c>
 c10079c:	e3a02001 	mov	r2, #1
 c1007a0:	e5c32000 	strb	r2, [r3]
					parking.plaza[plazaSelecc - 1].end_time = tiempoActual;
 c1007a4:	e59f3318 	ldr	r3, [pc, #792]	; c100ac4 <mainTask+0x680>
 c1007a8:	e5d33000 	ldrb	r3, [r3]
 c1007ac:	e2432001 	sub	r2, r3, #1
 c1007b0:	e59f1310 	ldr	r1, [pc, #784]	; c100ac8 <mainTask+0x684>
 c1007b4:	e3a03001 	mov	r3, #1
 c1007b8:	e1a02182 	lsl	r2, r2, #3
 c1007bc:	e0812002 	add	r2, r1, r2
 c1007c0:	e0823003 	add	r3, r2, r3
 c1007c4:	e1a01003 	mov	r1, r3
 c1007c8:	e24b2040 	sub	r2, fp, #64	; 0x40
 c1007cc:	e3a03007 	mov	r3, #7
 c1007d0:	e1a00001 	mov	r0, r1
 c1007d4:	e1a01002 	mov	r1, r2
 c1007d8:	e1a02003 	mov	r2, r3
 c1007dc:	eb0007e6 	bl	c10277c <memcpy>
					lcd_clear();
 c1007e0:	eb000e77 	bl	c1041c4 <lcd_clear>
					if (parking.espanol) {
 c1007e4:	e59f32dc 	ldr	r3, [pc, #732]	; c100ac8 <mainTask+0x684>
 c1007e8:	e5d33042 	ldrb	r3, [r3, #66]	; 0x42
 c1007ec:	e3530000 	cmp	r3, #0
 c1007f0:	0a000005 	beq	c10080c <mainTask+0x3c8>
						lcd_puts_x2(20, 100, BLACK, "Saldo Insuficiente");
 c1007f4:	e3a00014 	mov	r0, #20
 c1007f8:	e3a01064 	mov	r1, #100	; 0x64
 c1007fc:	e3a0200f 	mov	r2, #15
 c100800:	e59f32c4 	ldr	r3, [pc, #708]	; c100acc <mainTask+0x688>
 c100804:	eb0011c8 	bl	c104f2c <lcd_puts_x2>
 c100808:	ea000004 	b	c100820 <mainTask+0x3dc>
					} else {
						lcd_puts_x2(20, 100, BLACK, "Insuficient Balance");
 c10080c:	e3a00014 	mov	r0, #20
 c100810:	e3a01064 	mov	r1, #100	; 0x64
 c100814:	e3a0200f 	mov	r2, #15
 c100818:	e59f32b0 	ldr	r3, [pc, #688]	; c100ad0 <mainTask+0x68c>
 c10081c:	eb0011c2 	bl	c104f2c <lcd_puts_x2>
					}
					sw_delay_s(2);
 c100820:	e3a00002 	mov	r0, #2
 c100824:	eb001d3f 	bl	c107d28 <sw_delay_s>
 c100828:	ea000053 	b	c10097c <mainTask+0x538>

				} else if (credit > 240) {
 c10082c:	e59f3278 	ldr	r3, [pc, #632]	; c100aac <mainTask+0x668>
 c100830:	e1d330b0 	ldrh	r3, [r3]
 c100834:	e35300f0 	cmp	r3, #240	; 0xf0
 c100838:	9a000031 	bls	c100904 <mainTask+0x4c0>
					coinsMoverMsg.accept = FALSE; /* Envia un mensaje para que las monedas se acepten */
 c10083c:	e59f327c 	ldr	r3, [pc, #636]	; c100ac0 <mainTask+0x67c>
 c100840:	e3a02000 	mov	r2, #0
 c100844:	e5c32001 	strb	r2, [r3, #1]
					coinsMoverMsg.flag = TRUE;
 c100848:	e59f3270 	ldr	r3, [pc, #624]	; c100ac0 <mainTask+0x67c>
 c10084c:	e3a02001 	mov	r2, #1
 c100850:	e5c32000 	strb	r2, [r3]
					parking.plaza[plazaSelecc - 1].end_time = tiempoActual;
 c100854:	e59f3268 	ldr	r3, [pc, #616]	; c100ac4 <mainTask+0x680>
 c100858:	e5d33000 	ldrb	r3, [r3]
 c10085c:	e2432001 	sub	r2, r3, #1
 c100860:	e59f1260 	ldr	r1, [pc, #608]	; c100ac8 <mainTask+0x684>
 c100864:	e3a03001 	mov	r3, #1
 c100868:	e1a02182 	lsl	r2, r2, #3
 c10086c:	e0812002 	add	r2, r1, r2
 c100870:	e0823003 	add	r3, r2, r3
 c100874:	e1a01003 	mov	r1, r3
 c100878:	e24b2040 	sub	r2, fp, #64	; 0x40
 c10087c:	e3a03007 	mov	r3, #7
 c100880:	e1a00001 	mov	r0, r1
 c100884:	e1a01002 	mov	r1, r2
 c100888:	e1a02003 	mov	r2, r3
 c10088c:	eb0007ba 	bl	c10277c <memcpy>
					lcd_clear();
 c100890:	eb000e4b 	bl	c1041c4 <lcd_clear>
					if (parking.espanol) {
 c100894:	e59f322c 	ldr	r3, [pc, #556]	; c100ac8 <mainTask+0x684>
 c100898:	e5d33042 	ldrb	r3, [r3, #66]	; 0x42
 c10089c:	e3530000 	cmp	r3, #0
 c1008a0:	0a00000a 	beq	c1008d0 <mainTask+0x48c>
						lcd_puts_x2(50, 100, BLACK, "Saldo Maximo");
 c1008a4:	e3a00032 	mov	r0, #50	; 0x32
 c1008a8:	e3a01064 	mov	r1, #100	; 0x64
 c1008ac:	e3a0200f 	mov	r2, #15
 c1008b0:	e59f321c 	ldr	r3, [pc, #540]	; c100ad4 <mainTask+0x690>
 c1008b4:	eb00119c 	bl	c104f2c <lcd_puts_x2>
						lcd_puts_x2(50, 150, BLACK, "  Superado ");
 c1008b8:	e3a00032 	mov	r0, #50	; 0x32
 c1008bc:	e3a01096 	mov	r1, #150	; 0x96
 c1008c0:	e3a0200f 	mov	r2, #15
 c1008c4:	e59f320c 	ldr	r3, [pc, #524]	; c100ad8 <mainTask+0x694>
 c1008c8:	eb001197 	bl	c104f2c <lcd_puts_x2>
 c1008cc:	ea000009 	b	c1008f8 <mainTask+0x4b4>
					} else {
						lcd_puts_x2(50, 100, BLACK, "Maximum balance");
 c1008d0:	e3a00032 	mov	r0, #50	; 0x32
 c1008d4:	e3a01064 	mov	r1, #100	; 0x64
 c1008d8:	e3a0200f 	mov	r2, #15
 c1008dc:	e59f31f8 	ldr	r3, [pc, #504]	; c100adc <mainTask+0x698>
 c1008e0:	eb001191 	bl	c104f2c <lcd_puts_x2>
						lcd_puts_x2(50, 150, BLACK, "Exceeded");
 c1008e4:	e3a00032 	mov	r0, #50	; 0x32
 c1008e8:	e3a01096 	mov	r1, #150	; 0x96
 c1008ec:	e3a0200f 	mov	r2, #15
 c1008f0:	e59f31e8 	ldr	r3, [pc, #488]	; c100ae0 <mainTask+0x69c>
 c1008f4:	eb00118c 	bl	c104f2c <lcd_puts_x2>
					}
					sw_delay_s(5);
 c1008f8:	e3a00005 	mov	r0, #5
 c1008fc:	eb001d09 	bl	c107d28 <sw_delay_s>
 c100900:	ea00001d 	b	c10097c <mainTask+0x538>
				} else {
					coinsMoverMsg.accept = TRUE; /* Envia un mensaje para que las monedas se acepten */
 c100904:	e59f31b4 	ldr	r3, [pc, #436]	; c100ac0 <mainTask+0x67c>
 c100908:	e3a02001 	mov	r2, #1
 c10090c:	e5c32001 	strb	r2, [r3, #1]
					coinsMoverMsg.flag = TRUE;
 c100910:	e59f31a8 	ldr	r3, [pc, #424]	; c100ac0 <mainTask+0x67c>
 c100914:	e3a02001 	mov	r2, #1
 c100918:	e5c32000 	strb	r2, [r3]
					parking.recaudacion += credit;
 c10091c:	e59f31a4 	ldr	r3, [pc, #420]	; c100ac8 <mainTask+0x684>
 c100920:	e1d324b0 	ldrh	r2, [r3, #64]	; 0x40
 c100924:	e59f3180 	ldr	r3, [pc, #384]	; c100aac <mainTask+0x668>
 c100928:	e1d330b0 	ldrh	r3, [r3]
 c10092c:	e0823003 	add	r3, r2, r3
 c100930:	e1a03803 	lsl	r3, r3, #16
 c100934:	e1a02823 	lsr	r2, r3, #16
 c100938:	e59f3188 	ldr	r3, [pc, #392]	; c100ac8 <mainTask+0x684>
 c10093c:	e1c324b0 	strh	r2, [r3, #64]	; 0x40
					parking.plaza[plazaSelecc - 1].occupied = TRUE;
 c100940:	e59f317c 	ldr	r3, [pc, #380]	; c100ac4 <mainTask+0x680>
 c100944:	e5d33000 	ldrb	r3, [r3]
 c100948:	e2432001 	sub	r2, r3, #1
 c10094c:	e59f3174 	ldr	r3, [pc, #372]	; c100ac8 <mainTask+0x684>
 c100950:	e3a01001 	mov	r1, #1
 c100954:	e7c31182 	strb	r1, [r3, r2, lsl #3]
					printTicketFlag = TRUE;
 c100958:	e59f3184 	ldr	r3, [pc, #388]	; c100ae4 <mainTask+0x6a0>
 c10095c:	e3a02001 	mov	r2, #1
 c100960:	e5c32000 	strb	r2, [r3]
					parking.plazasLibres--;
 c100964:	e59f315c 	ldr	r3, [pc, #348]	; c100ac8 <mainTask+0x684>
 c100968:	e5d33043 	ldrb	r3, [r3, #67]	; 0x43
 c10096c:	e2433001 	sub	r3, r3, #1
 c100970:	e20320ff 	and	r2, r3, #255	; 0xff
 c100974:	e59f314c 	ldr	r3, [pc, #332]	; c100ac8 <mainTask+0x684>
 c100978:	e5c32043 	strb	r2, [r3, #67]	; 0x43
				}
				credit = 0;
 c10097c:	e59f3128 	ldr	r3, [pc, #296]	; c100aac <mainTask+0x668>
 c100980:	e3a02000 	mov	r2, #0
 c100984:	e1c320b0 	strh	r2, [r3]
				plotWelcomeScreen(); /* Visualiza pantalla inicial */
 c100988:	eb0001f0 	bl	c101150 <plotWelcomeScreen>
				state = demo_waiting; /* Salta al estado demo_waiting */
 c10098c:	e59f311c 	ldr	r3, [pc, #284]	; c100ab0 <mainTask+0x66c>
 c100990:	e3a02000 	mov	r2, #0
 c100994:	e5c32000 	strb	r2, [r3]

			}
			if (coinAcceptorMsg.flag) /* Chequea si se ha introducido una moneda (mensaje recibido de la tarea coinAcceptorTask) */
 c100998:	e59f311c 	ldr	r3, [pc, #284]	; c100abc <mainTask+0x678>
 c10099c:	e5d33000 	ldrb	r3, [r3]
 c1009a0:	e3530000 	cmp	r3, #0
 c1009a4:	0a00003b 	beq	c100a98 <mainTask+0x654>
			{
				coinAcceptorMsg.flag = FALSE; /* Marca el mensaje como leido */
 c1009a8:	e59f310c 	ldr	r3, [pc, #268]	; c100abc <mainTask+0x678>
 c1009ac:	e3a02000 	mov	r2, #0
 c1009b0:	e5c32000 	strb	r2, [r3]
				credit += coinAcceptorMsg.cents; /* Incrementa el saldo */
 c1009b4:	e59f3100 	ldr	r3, [pc, #256]	; c100abc <mainTask+0x678>
 c1009b8:	e5d33001 	ldrb	r3, [r3, #1]
 c1009bc:	e1a02003 	mov	r2, r3
 c1009c0:	e59f30e4 	ldr	r3, [pc, #228]	; c100aac <mainTask+0x668>
 c1009c4:	e1d330b0 	ldrh	r3, [r3]
 c1009c8:	e0823003 	add	r3, r2, r3
 c1009cc:	e1a03803 	lsl	r3, r3, #16
 c1009d0:	e1a02823 	lsr	r2, r3, #16
 c1009d4:	e59f30d0 	ldr	r3, [pc, #208]	; c100aac <mainTask+0x668>
 c1009d8:	e1c320b0 	strh	r2, [r3]

				tiempoOcupado(credit);
 c1009dc:	e59f30c8 	ldr	r3, [pc, #200]	; c100aac <mainTask+0x668>
 c1009e0:	e1d330b0 	ldrh	r3, [r3]
 c1009e4:	e1a00003 	mov	r0, r3
 c1009e8:	eb0006da 	bl	c102558 <tiempoOcupado>
				rtc_time_t end_time = parking.plaza[plazaSelecc - 1].end_time;
 c1009ec:	e59f30d0 	ldr	r3, [pc, #208]	; c100ac4 <mainTask+0x680>
 c1009f0:	e5d33000 	ldrb	r3, [r3]
 c1009f4:	e2432001 	sub	r2, r3, #1
 c1009f8:	e59f10c8 	ldr	r1, [pc, #200]	; c100ac8 <mainTask+0x684>
 c1009fc:	e3a03001 	mov	r3, #1
 c100a00:	e1a02182 	lsl	r2, r2, #3
 c100a04:	e0812002 	add	r2, r1, r2
 c100a08:	e0823003 	add	r3, r2, r3
 c100a0c:	e24b1048 	sub	r1, fp, #72	; 0x48
 c100a10:	e1a02003 	mov	r2, r3
 c100a14:	e3a03007 	mov	r3, #7
 c100a18:	e1a00001 	mov	r0, r1
 c100a1c:	e1a01002 	mov	r1, r2
 c100a20:	e1a02003 	mov	r2, r3
 c100a24:	eb000754 	bl	c10277c <memcpy>
				convertirFechaHora(end_time, bufferFechaLiberacion, diaSemana);
 c100a28:	e24b2034 	sub	r2, fp, #52	; 0x34
 c100a2c:	e24b3038 	sub	r3, fp, #56	; 0x38
 c100a30:	e24b1048 	sub	r1, fp, #72	; 0x48
 c100a34:	e8910003 	ldm	r1, {r0, r1}
 c100a38:	eb00028c 	bl	c101470 <convertirFechaHora>

				lcd_putint(200, 140, BLACK, credit);
 c100a3c:	e59f3068 	ldr	r3, [pc, #104]	; c100aac <mainTask+0x668>
 c100a40:	e1d330b0 	ldrh	r3, [r3]
 c100a44:	e3a000c8 	mov	r0, #200	; 0xc8
 c100a48:	e3a0108c 	mov	r1, #140	; 0x8c
 c100a4c:	e3a0200f 	mov	r2, #15
 c100a50:	eb000ffb 	bl	c104a44 <lcd_putint>
				lcd_puts(100, 155, BLACK, bufferFechaLiberacion);
 c100a54:	e24b3034 	sub	r3, fp, #52	; 0x34
 c100a58:	e3a00064 	mov	r0, #100	; 0x64
 c100a5c:	e3a0109b 	mov	r1, #155	; 0x9b
 c100a60:	e3a0200f 	mov	r2, #15
 c100a64:	eb000fd9 	bl	c1049d0 <lcd_puts>
				ticks = 500; /* Restaura el tiempo maximo sin actividad que permanece en este estado */
 c100a68:	e59f3048 	ldr	r3, [pc, #72]	; c100ab8 <mainTask+0x674>
 c100a6c:	e3a02f7d 	mov	r2, #500	; 0x1f4
 c100a70:	e1c320b0 	strh	r2, [r3]
			}
			break;
 c100a74:	ea000008 	b	c100a9c <mainTask+0x658>
			{
				coinAcceptorMsg.flag = FALSE; /* Marca el mensaje como leido */
				coinsMoverMsg.accept = FALSE; /* Envia un mensaje para que la moneda se devuelva */
				coinsMoverMsg.flag = TRUE;
			}
			break;
 c100a78:	e1a00000 	nop			; (mov r0, r0)
 c100a7c:	ea000006 	b	c100a9c <mainTask+0x658>
				idiomaSeleccionado();
				plotSelectionScreen();
				state = selection;
				ticks = 500; /* ... en el que debera permanecer un maximo de 500 ticks sin no hay actividad */
			}
			break;
 c100a80:	e1a00000 	nop			; (mov r0, r0)
 c100a84:	ea000004 	b	c100a9c <mainTask+0x658>
				plazaSelecc = plazaSeleccionada();
				lcd_clear();
				state = payment; /* Cambia al siguiente estado */
				ticks = 500; /* Inicializa el temporizador */
			}
			break;
 c100a88:	e1a00000 	nop			; (mov r0, r0)
 c100a8c:	ea000002 	b	c100a9c <mainTask+0x658>
			} else {
				plotPaymentScreen(credit);
				state = demo_acceptCoins;
				ticks = 500;
			}
			break;
 c100a90:	e1a00000 	nop			; (mov r0, r0)
 c100a94:	ea000000 	b	c100a9c <mainTask+0x658>

				lcd_putint(200, 140, BLACK, credit);
				lcd_puts(100, 155, BLACK, bufferFechaLiberacion);
				ticks = 500; /* Restaura el tiempo maximo sin actividad que permanece en este estado */
			}
			break;
 c100a98:	e1a00000 	nop			; (mov r0, r0)
		}
}
 c100a9c:	e24bd00c 	sub	sp, fp, #12
 c100aa0:	e89d6800 	ldm	sp, {fp, sp, lr}
 c100aa4:	e12fff1e 	bx	lr
 c100aa8:	0c10c0bb 	.word	0x0c10c0bb
 c100aac:	0c1157b0 	.word	0x0c1157b0
 c100ab0:	0c1157b2 	.word	0x0c1157b2
 c100ab4:	0c115808 	.word	0x0c115808
 c100ab8:	0c1157b4 	.word	0x0c1157b4
 c100abc:	0c115810 	.word	0x0c115810
 c100ac0:	0c115814 	.word	0x0c115814
 c100ac4:	0c11585c 	.word	0x0c11585c
 c100ac8:	0c115818 	.word	0x0c115818
 c100acc:	0c10a348 	.word	0x0c10a348
 c100ad0:	0c10a35c 	.word	0x0c10a35c
 c100ad4:	0c10a370 	.word	0x0c10a370
 c100ad8:	0c10a380 	.word	0x0c10a380
 c100adc:	0c10a38c 	.word	0x0c10a38c
 c100ae0:	0c10a39c 	.word	0x0c10a39c
 c100ae4:	0c11585d 	.word	0x0c11585d

0c100ae8 <ticketPrinterTask>:

/*
 ** Emula el comportamiento de la impresora de tickets:
 **   Cada segundo muestrea si ha recibido un mensaje de la tarea principal enviar a traves de la UART el texto del ticket del aparcamiento elegido
 */
void ticketPrinterTask(void) {
 c100ae8:	e1a0c00d 	mov	ip, sp
 c100aec:	e92dd800 	push	{fp, ip, lr, pc}
 c100af0:	e24cb004 	sub	fp, ip, #4
	if (printTicketFlag) {
 c100af4:	e59f3024 	ldr	r3, [pc, #36]	; c100b20 <ticketPrinterTask+0x38>
 c100af8:	e5d33000 	ldrb	r3, [r3]
 c100afc:	e3530000 	cmp	r3, #0
 c100b00:	0a000003 	beq	c100b14 <ticketPrinterTask+0x2c>
		printTicket();
 c100b04:	eb000006 	bl	c100b24 <printTicket>
		printTicketFlag = FALSE;
 c100b08:	e59f3010 	ldr	r3, [pc, #16]	; c100b20 <ticketPrinterTask+0x38>
 c100b0c:	e3a02000 	mov	r2, #0
 c100b10:	e5c32000 	strb	r2, [r3]
	}
}
 c100b14:	e24bd00c 	sub	sp, fp, #12
 c100b18:	e89d6800 	ldm	sp, {fp, sp, lr}
 c100b1c:	e12fff1e 	bx	lr
 c100b20:	0c11585d 	.word	0x0c11585d

0c100b24 <printTicket>:
void printTicket(void) {
 c100b24:	e1a0c00d 	mov	ip, sp
 c100b28:	e92dd800 	push	{fp, ip, lr, pc}
 c100b2c:	e24cb004 	sub	fp, ip, #4
 c100b30:	e24dd078 	sub	sp, sp, #120	; 0x78
	char ticketHeader[] = "----- TICKET DE APARCAMIENTO -----\n";
 c100b34:	e59f3148 	ldr	r3, [pc, #328]	; c100c84 <printTicket+0x160>
 c100b38:	e24bc030 	sub	ip, fp, #48	; 0x30
 c100b3c:	e1a0e003 	mov	lr, r3
 c100b40:	e8be000f 	ldm	lr!, {r0, r1, r2, r3}
 c100b44:	e8ac000f 	stmia	ip!, {r0, r1, r2, r3}
 c100b48:	e8be000f 	ldm	lr!, {r0, r1, r2, r3}
 c100b4c:	e8ac000f 	stmia	ip!, {r0, r1, r2, r3}
 c100b50:	e59e3000 	ldr	r3, [lr]
 c100b54:	e58c3000 	str	r3, [ip]
	char ticketFooter[] = "----------------------------------\n";
 c100b58:	e59f3128 	ldr	r3, [pc, #296]	; c100c88 <printTicket+0x164>
 c100b5c:	e24bc054 	sub	ip, fp, #84	; 0x54
 c100b60:	e1a0e003 	mov	lr, r3
 c100b64:	e8be000f 	ldm	lr!, {r0, r1, r2, r3}
 c100b68:	e8ac000f 	stmia	ip!, {r0, r1, r2, r3}
 c100b6c:	e8be000f 	ldm	lr!, {r0, r1, r2, r3}
 c100b70:	e8ac000f 	stmia	ip!, {r0, r1, r2, r3}
 c100b74:	e59e3000 	ldr	r3, [lr]
 c100b78:	e58c3000 	str	r3, [ip]
	char buffer[40];
	char diaSemana[4];

	uart0_puts(ticketHeader);              // Encabezado del ticket
 c100b7c:	e24b3030 	sub	r3, fp, #48	; 0x30
 c100b80:	e1a00003 	mov	r0, r3
 c100b84:	eb002113 	bl	c108fd8 <uart0_puts>
	uart0_puts("Plaza: ");
 c100b88:	e59f00fc 	ldr	r0, [pc, #252]	; c100c8c <printTicket+0x168>
 c100b8c:	eb002111 	bl	c108fd8 <uart0_puts>
	uart0_putint(plazaSelecc);                    // Número de plaza
 c100b90:	e59f30f8 	ldr	r3, [pc, #248]	; c100c90 <printTicket+0x16c>
 c100b94:	e5d33000 	ldrb	r3, [r3]
 c100b98:	e1a00003 	mov	r0, r3
 c100b9c:	eb002121 	bl	c109028 <uart0_putint>
	uart0_puts("\n");
 c100ba0:	e59f00ec 	ldr	r0, [pc, #236]	; c100c94 <printTicket+0x170>
 c100ba4:	eb00210b 	bl	c108fd8 <uart0_puts>

	uart0_puts("Fin del estacionamiento: ");
 c100ba8:	e59f00e8 	ldr	r0, [pc, #232]	; c100c98 <printTicket+0x174>
 c100bac:	eb002109 	bl	c108fd8 <uart0_puts>
	convertirFechaHora(parking.plaza[plazaSelecc - 1].end_time, buffer,
 c100bb0:	e59f30d8 	ldr	r3, [pc, #216]	; c100c90 <printTicket+0x16c>
 c100bb4:	e5d33000 	ldrb	r3, [r3]
 c100bb8:	e2432001 	sub	r2, r3, #1
 c100bbc:	e59f10d8 	ldr	r1, [pc, #216]	; c100c9c <printTicket+0x178>
 c100bc0:	e3a03001 	mov	r3, #1
 c100bc4:	e1a02182 	lsl	r2, r2, #3
 c100bc8:	e0812002 	add	r2, r1, r2
 c100bcc:	e0823003 	add	r3, r2, r3
 c100bd0:	e24be07c 	sub	lr, fp, #124	; 0x7c
 c100bd4:	e24bc080 	sub	ip, fp, #128	; 0x80
 c100bd8:	e5d32000 	ldrb	r2, [r3]
 c100bdc:	e5d31001 	ldrb	r1, [r3, #1]
 c100be0:	e1a01401 	lsl	r1, r1, #8
 c100be4:	e1812002 	orr	r2, r1, r2
 c100be8:	e5d31002 	ldrb	r1, [r3, #2]
 c100bec:	e1a01801 	lsl	r1, r1, #16
 c100bf0:	e1812002 	orr	r2, r1, r2
 c100bf4:	e5d31003 	ldrb	r1, [r3, #3]
 c100bf8:	e1a01c01 	lsl	r1, r1, #24
 c100bfc:	e1811002 	orr	r1, r1, r2
 c100c00:	e3a02000 	mov	r2, #0
 c100c04:	e1a02001 	mov	r2, r1
 c100c08:	e5d31004 	ldrb	r1, [r3, #4]
 c100c0c:	e5d30005 	ldrb	r0, [r3, #5]
 c100c10:	e1a00400 	lsl	r0, r0, #8
 c100c14:	e1801001 	orr	r1, r0, r1
 c100c18:	e5d33006 	ldrb	r3, [r3, #6]
 c100c1c:	e1a03803 	lsl	r3, r3, #16
 c100c20:	e1831001 	orr	r1, r3, r1
 c100c24:	e3a03000 	mov	r3, #0
 c100c28:	e3c114ff 	bic	r1, r1, #-16777216	; 0xff000000
 c100c2c:	e20334ff 	and	r3, r3, #-16777216	; 0xff000000
 c100c30:	e1813003 	orr	r3, r1, r3
 c100c34:	e1a00002 	mov	r0, r2
 c100c38:	e1a01003 	mov	r1, r3
 c100c3c:	e1a0200e 	mov	r2, lr
 c100c40:	e1a0300c 	mov	r3, ip
 c100c44:	eb000209 	bl	c101470 <convertirFechaHora>
			diaSemana);
	uart0_puts("\n");
 c100c48:	e59f0044 	ldr	r0, [pc, #68]	; c100c94 <printTicket+0x170>
 c100c4c:	eb0020e1 	bl	c108fd8 <uart0_puts>
	uart0_puts(buffer);
 c100c50:	e24b307c 	sub	r3, fp, #124	; 0x7c
 c100c54:	e1a00003 	mov	r0, r3
 c100c58:	eb0020de 	bl	c108fd8 <uart0_puts>
	uart0_puts("\n");
 c100c5c:	e59f0030 	ldr	r0, [pc, #48]	; c100c94 <printTicket+0x170>
 c100c60:	eb0020dc 	bl	c108fd8 <uart0_puts>

	uart0_puts("Gracias por su visita\n"); // Mensaje adicional
 c100c64:	e59f0034 	ldr	r0, [pc, #52]	; c100ca0 <printTicket+0x17c>
 c100c68:	eb0020da 	bl	c108fd8 <uart0_puts>
	uart0_puts(ticketFooter);              // Pie del ticket
 c100c6c:	e24b3054 	sub	r3, fp, #84	; 0x54
 c100c70:	e1a00003 	mov	r0, r3
 c100c74:	eb0020d7 	bl	c108fd8 <uart0_puts>
}
 c100c78:	e24bd00c 	sub	sp, fp, #12
 c100c7c:	e89d6800 	ldm	sp, {fp, sp, lr}
 c100c80:	e12fff1e 	bx	lr
 c100c84:	0c10a3e8 	.word	0x0c10a3e8
 c100c88:	0c10a40c 	.word	0x0c10a40c
 c100c8c:	0c10a3a8 	.word	0x0c10a3a8
 c100c90:	0c11585c 	.word	0x0c11585c
 c100c94:	0c10a3b0 	.word	0x0c10a3b0
 c100c98:	0c10a3b4 	.word	0x0c10a3b4
 c100c9c:	0c115818 	.word	0x0c115818
 c100ca0:	0c10a3d0 	.word	0x0c10a3d0

0c100ca4 <clockTask>:

/*
 ** Cada segundo visualiza la fecha/hora en la pantalla y libera aquellas plazas cuya hora de finalizacion haya pasado
 */
void clockTask(void) {
 c100ca4:	e1a0c00d 	mov	ip, sp
 c100ca8:	e92dd800 	push	{fp, ip, lr, pc}
 c100cac:	e24cb004 	sub	fp, ip, #4
	static rtc_time_t tiempoActual; // Estructura para guardar el tiempo actual
	static char bufferFechaHora[40]; // Buffer para almacenar la fecha y hora
	static char diaSemana[4]; // Buffer para el día de la semana (3 caracteres + terminador)

	rtc_gettime(&tiempoActual);
 c100cb0:	e59f0034 	ldr	r0, [pc, #52]	; c100cec <clockTask+0x48>
 c100cb4:	eb001385 	bl	c105ad0 <rtc_gettime>

// Convertir la fecha y hora en un formato de cadena
	convertirFechaHora(tiempoActual, bufferFechaHora, diaSemana);
 c100cb8:	e59f302c 	ldr	r3, [pc, #44]	; c100cec <clockTask+0x48>
 c100cbc:	e8930003 	ldm	r3, {r0, r1}
 c100cc0:	e59f2028 	ldr	r2, [pc, #40]	; c100cf0 <clockTask+0x4c>
 c100cc4:	e59f3028 	ldr	r3, [pc, #40]	; c100cf4 <clockTask+0x50>
 c100cc8:	eb0001e8 	bl	c101470 <convertirFechaHora>
	lcd_puts(40, 10, BLACK, bufferFechaHora);
 c100ccc:	e3a00028 	mov	r0, #40	; 0x28
 c100cd0:	e3a0100a 	mov	r1, #10
 c100cd4:	e3a0200f 	mov	r2, #15
 c100cd8:	e59f3010 	ldr	r3, [pc, #16]	; c100cf0 <clockTask+0x4c>
 c100cdc:	eb000f3b 	bl	c1049d0 <lcd_puts>

}
 c100ce0:	e24bd00c 	sub	sp, fp, #12
 c100ce4:	e89d6800 	ldm	sp, {fp, sp, lr}
 c100ce8:	e12fff1e 	bx	lr
 c100cec:	0c11577c 	.word	0x0c11577c
 c100cf0:	0c115784 	.word	0x0c115784
 c100cf4:	0c1157ac 	.word	0x0c1157ac

0c100cf8 <tsScanTask>:

/*
 ** Cada 50 ms muestrea la touchscreen y envia un mensaje a la tarea principal con la posicion del lugar pulsado
 */
void tsScanTask(void) {
 c100cf8:	e1a0c00d 	mov	ip, sp
 c100cfc:	e92dd800 	push	{fp, ip, lr, pc}
 c100d00:	e24cb004 	sub	fp, ip, #4
	static boolean init = TRUE;
	static enum {
		wait_keydown, scan, wait_keyup
	} state;

	if (init) {
 c100d04:	e59f30c4 	ldr	r3, [pc, #196]	; c100dd0 <tsScanTask+0xd8>
 c100d08:	e5d33000 	ldrb	r3, [r3]
 c100d0c:	e3530000 	cmp	r3, #0
 c100d10:	0a000006 	beq	c100d30 <tsScanTask+0x38>
		init = FALSE;
 c100d14:	e59f30b4 	ldr	r3, [pc, #180]	; c100dd0 <tsScanTask+0xd8>
 c100d18:	e3a02000 	mov	r2, #0
 c100d1c:	e5c32000 	strb	r2, [r3]
		state = wait_keydown;
 c100d20:	e59f30ac 	ldr	r3, [pc, #172]	; c100dd4 <tsScanTask+0xdc>
 c100d24:	e3a02000 	mov	r2, #0
 c100d28:	e5c32000 	strb	r2, [r3]
 c100d2c:	ea000024 	b	c100dc4 <tsScanTask+0xcc>
	} else
		switch (state) {
 c100d30:	e59f309c 	ldr	r3, [pc, #156]	; c100dd4 <tsScanTask+0xdc>
 c100d34:	e5d33000 	ldrb	r3, [r3]
 c100d38:	e3530001 	cmp	r3, #1
 c100d3c:	0a00000b 	beq	c100d70 <tsScanTask+0x78>
 c100d40:	e3530002 	cmp	r3, #2
 c100d44:	0a000013 	beq	c100d98 <tsScanTask+0xa0>
 c100d48:	e3530000 	cmp	r3, #0
 c100d4c:	1a00001c 	bne	c100dc4 <tsScanTask+0xcc>
		case wait_keydown: /* Estado esperando la presion de la pantalla */
			if (ts_pressed()) /* Chequea si la pantalla esta presionada */
 c100d50:	eb001dc2 	bl	c108460 <ts_pressed>
 c100d54:	e1a03000 	mov	r3, r0
 c100d58:	e3530000 	cmp	r3, #0
 c100d5c:	0a000015 	beq	c100db8 <tsScanTask+0xc0>
				state = scan; /* Salta al estado scan */
 c100d60:	e59f306c 	ldr	r3, [pc, #108]	; c100dd4 <tsScanTask+0xdc>
 c100d64:	e3a02001 	mov	r2, #1
 c100d68:	e5c32000 	strb	r2, [r3]
			break;
 c100d6c:	ea000014 	b	c100dc4 <tsScanTask+0xcc>

		case scan: /* Estado en que escanea la pantalla */
			ts_getpos(&tsPressedMsg.x, &tsPressedMsg.y); /* Lee la pantalla */
 c100d70:	e59f0060 	ldr	r0, [pc, #96]	; c100dd8 <tsScanTask+0xe0>
 c100d74:	e59f1060 	ldr	r1, [pc, #96]	; c100ddc <tsScanTask+0xe4>
 c100d78:	eb002020 	bl	c108e00 <ts_getpos>
			tsPressedMsg.flag = TRUE; /* Envia un mensaje con el valor de la posición presionada */
 c100d7c:	e59f305c 	ldr	r3, [pc, #92]	; c100de0 <tsScanTask+0xe8>
 c100d80:	e3a02001 	mov	r2, #1
 c100d84:	e5c32000 	strb	r2, [r3]
			state = wait_keyup; /* Salta al estado wait_keyup */
 c100d88:	e59f3044 	ldr	r3, [pc, #68]	; c100dd4 <tsScanTask+0xdc>
 c100d8c:	e3a02002 	mov	r2, #2
 c100d90:	e5c32000 	strb	r2, [r3]
			break;
 c100d94:	ea00000a 	b	c100dc4 <tsScanTask+0xcc>

		case wait_keyup: // Estado esperando la depresion de la pantalla
			if (!ts_pressed()) // Chequea si la pantalla ya no esta presionada
 c100d98:	eb001db0 	bl	c108460 <ts_pressed>
 c100d9c:	e1a03000 	mov	r3, r0
 c100da0:	e3530000 	cmp	r3, #0
 c100da4:	1a000005 	bne	c100dc0 <tsScanTask+0xc8>
				state = wait_keydown; // Salta al estado wait_keydown
 c100da8:	e59f3024 	ldr	r3, [pc, #36]	; c100dd4 <tsScanTask+0xdc>
 c100dac:	e3a02000 	mov	r2, #0
 c100db0:	e5c32000 	strb	r2, [r3]
			break;
 c100db4:	ea000002 	b	c100dc4 <tsScanTask+0xcc>
	} else
		switch (state) {
		case wait_keydown: /* Estado esperando la presion de la pantalla */
			if (ts_pressed()) /* Chequea si la pantalla esta presionada */
				state = scan; /* Salta al estado scan */
			break;
 c100db8:	e1a00000 	nop			; (mov r0, r0)
 c100dbc:	ea000000 	b	c100dc4 <tsScanTask+0xcc>
			break;

		case wait_keyup: // Estado esperando la depresion de la pantalla
			if (!ts_pressed()) // Chequea si la pantalla ya no esta presionada
				state = wait_keydown; // Salta al estado wait_keydown
			break;
 c100dc0:	e1a00000 	nop			; (mov r0, r0)
		}
}
 c100dc4:	e24bd00c 	sub	sp, fp, #12
 c100dc8:	e89d6800 	ldm	sp, {fp, sp, lr}
 c100dcc:	e12fff1e 	bx	lr
 c100dd0:	0c10c0ba 	.word	0x0c10c0ba
 c100dd4:	0c115779 	.word	0x0c115779
 c100dd8:	0c11580a 	.word	0x0c11580a
 c100ddc:	0c11580c 	.word	0x0c11580c
 c100de0:	0c115808 	.word	0x0c115808

0c100de4 <coinsAcceptorTask>:

/*
 ** Emula el comportamiento de un reconocedor de monedas:
 **   Cada 50 ms muestrea el keypad y envia un mensaje a la tarea principal con el valor de la moneda asociada a la tecla
 */
void coinsAcceptorTask(void) {
 c100de4:	e1a0c00d 	mov	ip, sp
 c100de8:	e92dd800 	push	{fp, ip, lr, pc}
 c100dec:	e24cb004 	sub	fp, ip, #4
	static boolean init = TRUE;
	static enum {
		wait_keydown, scan, wait_keyup
	} state;

	if (init) {
 c100df0:	e59f3140 	ldr	r3, [pc, #320]	; c100f38 <coinsAcceptorTask+0x154>
 c100df4:	e5d33000 	ldrb	r3, [r3]
 c100df8:	e3530000 	cmp	r3, #0
 c100dfc:	0a000006 	beq	c100e1c <coinsAcceptorTask+0x38>
		init = FALSE;
 c100e00:	e59f3130 	ldr	r3, [pc, #304]	; c100f38 <coinsAcceptorTask+0x154>
 c100e04:	e3a02000 	mov	r2, #0
 c100e08:	e5c32000 	strb	r2, [r3]
		state = wait_keydown;
 c100e0c:	e59f3128 	ldr	r3, [pc, #296]	; c100f3c <coinsAcceptorTask+0x158>
 c100e10:	e3a02000 	mov	r2, #0
 c100e14:	e5c32000 	strb	r2, [r3]
 c100e18:	ea000043 	b	c100f2c <coinsAcceptorTask+0x148>
	} else
		switch (state) {
 c100e1c:	e59f3118 	ldr	r3, [pc, #280]	; c100f3c <coinsAcceptorTask+0x158>
 c100e20:	e5d33000 	ldrb	r3, [r3]
 c100e24:	e3530001 	cmp	r3, #1
 c100e28:	0a00000b 	beq	c100e5c <coinsAcceptorTask+0x78>
 c100e2c:	e3530002 	cmp	r3, #2
 c100e30:	0a000032 	beq	c100f00 <coinsAcceptorTask+0x11c>
 c100e34:	e3530000 	cmp	r3, #0
 c100e38:	1a00003b 	bne	c100f2c <coinsAcceptorTask+0x148>
		case wait_keydown: /* Estado esperando la presion teclas */
			if (keypad_pressed()) /* Chequea si hay una tecla presionada */
 c100e3c:	eb000b71 	bl	c103c08 <keypad_pressed>
 c100e40:	e1a03000 	mov	r3, r0
 c100e44:	e3530000 	cmp	r3, #0
 c100e48:	0a000034 	beq	c100f20 <coinsAcceptorTask+0x13c>
				state = scan; /* Salta al estado scan */
 c100e4c:	e59f30e8 	ldr	r3, [pc, #232]	; c100f3c <coinsAcceptorTask+0x158>
 c100e50:	e3a02001 	mov	r2, #1
 c100e54:	e5c32000 	strb	r2, [r3]
			break;
 c100e58:	ea000033 	b	c100f2c <coinsAcceptorTask+0x148>
		case scan: /* Estado en que escanea el teclado */
			switch (keypad_scan()) /* Lee el teclado */
 c100e5c:	eb000ae0 	bl	c1039e4 <keypad_scan>
 c100e60:	e1a03000 	mov	r3, r0
 c100e64:	e3530003 	cmp	r3, #3
 c100e68:	979ff103 	ldrls	pc, [pc, r3, lsl #2]
 c100e6c:	ea00001f 	b	c100ef0 <coinsAcceptorTask+0x10c>
 c100e70:	0c100ed4 	.word	0x0c100ed4
 c100e74:	0c100eb8 	.word	0x0c100eb8
 c100e78:	0c100e9c 	.word	0x0c100e9c
 c100e7c:	0c100e80 	.word	0x0c100e80
			{
			case KEYPAD_KEY3: /* La tecla F esta asociada a la moneda de 0,10 euros */
				coinAcceptorMsg.cents = 10; /* Envia un mensaje con el valor de la moneda */
 c100e80:	e59f30b8 	ldr	r3, [pc, #184]	; c100f40 <coinsAcceptorTask+0x15c>
 c100e84:	e3a0200a 	mov	r2, #10
 c100e88:	e5c32001 	strb	r2, [r3, #1]
				coinAcceptorMsg.flag = TRUE;
 c100e8c:	e59f30ac 	ldr	r3, [pc, #172]	; c100f40 <coinsAcceptorTask+0x15c>
 c100e90:	e3a02001 	mov	r2, #1
 c100e94:	e5c32000 	strb	r2, [r3]
				break;
 c100e98:	ea000014 	b	c100ef0 <coinsAcceptorTask+0x10c>
			case KEYPAD_KEY2:
				coinAcceptorMsg.cents = 20; /* Envia un mensaje con el valor de la moneda */
 c100e9c:	e59f309c 	ldr	r3, [pc, #156]	; c100f40 <coinsAcceptorTask+0x15c>
 c100ea0:	e3a02014 	mov	r2, #20
 c100ea4:	e5c32001 	strb	r2, [r3, #1]
				coinAcceptorMsg.flag = TRUE;
 c100ea8:	e59f3090 	ldr	r3, [pc, #144]	; c100f40 <coinsAcceptorTask+0x15c>
 c100eac:	e3a02001 	mov	r2, #1
 c100eb0:	e5c32000 	strb	r2, [r3]
				break;
 c100eb4:	ea00000d 	b	c100ef0 <coinsAcceptorTask+0x10c>
			case KEYPAD_KEY1:
				coinAcceptorMsg.cents = 50; /* Envia un mensaje con el valor de la moneda */
 c100eb8:	e59f3080 	ldr	r3, [pc, #128]	; c100f40 <coinsAcceptorTask+0x15c>
 c100ebc:	e3a02032 	mov	r2, #50	; 0x32
 c100ec0:	e5c32001 	strb	r2, [r3, #1]
				coinAcceptorMsg.flag = TRUE;
 c100ec4:	e59f3074 	ldr	r3, [pc, #116]	; c100f40 <coinsAcceptorTask+0x15c>
 c100ec8:	e3a02001 	mov	r2, #1
 c100ecc:	e5c32000 	strb	r2, [r3]
				break;
 c100ed0:	ea000006 	b	c100ef0 <coinsAcceptorTask+0x10c>
			case KEYPAD_KEY0:
				coinAcceptorMsg.cents = 100; /* Envia un mensaje con el valor de la moneda */
 c100ed4:	e59f3064 	ldr	r3, [pc, #100]	; c100f40 <coinsAcceptorTask+0x15c>
 c100ed8:	e3a02064 	mov	r2, #100	; 0x64
 c100edc:	e5c32001 	strb	r2, [r3, #1]
				coinAcceptorMsg.flag = TRUE;
 c100ee0:	e59f3058 	ldr	r3, [pc, #88]	; c100f40 <coinsAcceptorTask+0x15c>
 c100ee4:	e3a02001 	mov	r2, #1
 c100ee8:	e5c32000 	strb	r2, [r3]
				break;
 c100eec:	e1a00000 	nop			; (mov r0, r0)
			}
			state = wait_keyup; /* Salta al estado wait_keyup */
 c100ef0:	e59f3044 	ldr	r3, [pc, #68]	; c100f3c <coinsAcceptorTask+0x158>
 c100ef4:	e3a02002 	mov	r2, #2
 c100ef8:	e5c32000 	strb	r2, [r3]
			break;
 c100efc:	ea00000a 	b	c100f2c <coinsAcceptorTask+0x148>
		case wait_keyup: /* Estado esperando la depresion de teclas  */
			if (!keypad_pressed()) /* Chequea si la tecla ya no esta presionada */
 c100f00:	eb000b40 	bl	c103c08 <keypad_pressed>
 c100f04:	e1a03000 	mov	r3, r0
 c100f08:	e3530000 	cmp	r3, #0
 c100f0c:	1a000005 	bne	c100f28 <coinsAcceptorTask+0x144>
				state = wait_keydown; /* Salta al estado wait_keydown */
 c100f10:	e59f3024 	ldr	r3, [pc, #36]	; c100f3c <coinsAcceptorTask+0x158>
 c100f14:	e3a02000 	mov	r2, #0
 c100f18:	e5c32000 	strb	r2, [r3]
			break;
 c100f1c:	ea000002 	b	c100f2c <coinsAcceptorTask+0x148>
	} else
		switch (state) {
		case wait_keydown: /* Estado esperando la presion teclas */
			if (keypad_pressed()) /* Chequea si hay una tecla presionada */
				state = scan; /* Salta al estado scan */
			break;
 c100f20:	e1a00000 	nop			; (mov r0, r0)
 c100f24:	ea000000 	b	c100f2c <coinsAcceptorTask+0x148>
			state = wait_keyup; /* Salta al estado wait_keyup */
			break;
		case wait_keyup: /* Estado esperando la depresion de teclas  */
			if (!keypad_pressed()) /* Chequea si la tecla ya no esta presionada */
				state = wait_keydown; /* Salta al estado wait_keydown */
			break;
 c100f28:	e1a00000 	nop			; (mov r0, r0)
		}
}
 c100f2c:	e24bd00c 	sub	sp, fp, #12
 c100f30:	e89d6800 	ldm	sp, {fp, sp, lr}
 c100f34:	e12fff1e 	bx	lr
 c100f38:	0c10c0b9 	.word	0x0c10c0b9
 c100f3c:	0c115778 	.word	0x0c115778
 c100f40:	0c115810 	.word	0x0c115810

0c100f44 <coinsMoverTask>:
 ** Emula el comportamiento del dispositivo que envia las monedas a la alcancia o al cajetin de devolucion:
 **   Cada 100 ms muestrea si ha recibido un mensaje de la tarea principal para mover monedas
 **   Si van a la alcancia activa durante 1 s los leds y muestra una A en los segs
 **   Si van al cajetin de devolucion activa durante 1 segundo los leds y muestra una D en los segs
 */
void coinsMoverTask(void) {
 c100f44:	e1a0c00d 	mov	ip, sp
 c100f48:	e92dd800 	push	{fp, ip, lr, pc}
 c100f4c:	e24cb004 	sub	fp, ip, #4
	static enum {
		off, on
	} state;
	static uint32 ticks;

	if (init) {
 c100f50:	e59f310c 	ldr	r3, [pc, #268]	; c101064 <coinsMoverTask+0x120>
 c100f54:	e5d33000 	ldrb	r3, [r3]
 c100f58:	e3530000 	cmp	r3, #0
 c100f5c:	0a000006 	beq	c100f7c <coinsMoverTask+0x38>
		init = FALSE;
 c100f60:	e59f30fc 	ldr	r3, [pc, #252]	; c101064 <coinsMoverTask+0x120>
 c100f64:	e3a02000 	mov	r2, #0
 c100f68:	e5c32000 	strb	r2, [r3]
		state = off;
 c100f6c:	e59f30f4 	ldr	r3, [pc, #244]	; c101068 <coinsMoverTask+0x124>
 c100f70:	e3a02000 	mov	r2, #0
 c100f74:	e5c32000 	strb	r2, [r3]
 c100f78:	ea000036 	b	c101058 <coinsMoverTask+0x114>
	} else
		switch (state) {
 c100f7c:	e59f30e4 	ldr	r3, [pc, #228]	; c101068 <coinsMoverTask+0x124>
 c100f80:	e5d33000 	ldrb	r3, [r3]
 c100f84:	e3530000 	cmp	r3, #0
 c100f88:	0a000002 	beq	c100f98 <coinsMoverTask+0x54>
 c100f8c:	e3530001 	cmp	r3, #1
 c100f90:	0a00001b 	beq	c101004 <coinsMoverTask+0xc0>
 c100f94:	ea00002f 	b	c101058 <coinsMoverTask+0x114>
		case off: /* Estado con leds y 7-segs apagados */
			if (coinsMoverMsg.flag) /* Chequea si ha recibido mensaje */
 c100f98:	e59f30cc 	ldr	r3, [pc, #204]	; c10106c <coinsMoverTask+0x128>
 c100f9c:	e5d33000 	ldrb	r3, [r3]
 c100fa0:	e3530000 	cmp	r3, #0
 c100fa4:	0a000028 	beq	c10104c <coinsMoverTask+0x108>
			{
				coinsMoverMsg.flag = FALSE; /* Marca el mensaje como leido */
 c100fa8:	e59f30bc 	ldr	r3, [pc, #188]	; c10106c <coinsMoverTask+0x128>
 c100fac:	e3a02000 	mov	r2, #0
 c100fb0:	e5c32000 	strb	r2, [r3]
				if (coinsMoverMsg.accept) /* Muestra el mensaje que corresponda en segs */
 c100fb4:	e59f30b0 	ldr	r3, [pc, #176]	; c10106c <coinsMoverTask+0x128>
 c100fb8:	e5d33001 	ldrb	r3, [r3, #1]
 c100fbc:	e3530000 	cmp	r3, #0
 c100fc0:	0a000002 	beq	c100fd0 <coinsMoverTask+0x8c>
					segs_putchar(0xA);
 c100fc4:	e3a0000a 	mov	r0, #10
 c100fc8:	eb001429 	bl	c106074 <segs_putchar>
 c100fcc:	ea000001 	b	c100fd8 <coinsMoverTask+0x94>
				else
					segs_putchar(0xD);
 c100fd0:	e3a0000d 	mov	r0, #13
 c100fd4:	eb001426 	bl	c106074 <segs_putchar>
				led_on(LEFT_LED); /* Enciende leds */
 c100fd8:	e3a00001 	mov	r0, #1
 c100fdc:	eb0010ef 	bl	c1053a0 <led_on>
				led_on(RIGHT_LED);
 c100fe0:	e3a00002 	mov	r0, #2
 c100fe4:	eb0010ed 	bl	c1053a0 <led_on>
				state = on; /* Salta al estado on ... */
 c100fe8:	e59f3078 	ldr	r3, [pc, #120]	; c101068 <coinsMoverTask+0x124>
 c100fec:	e3a02001 	mov	r2, #1
 c100ff0:	e5c32000 	strb	r2, [r3]
				ticks = 10; /* ... en el que debera permanecer 10 ticks */
 c100ff4:	e59f3074 	ldr	r3, [pc, #116]	; c101070 <coinsMoverTask+0x12c>
 c100ff8:	e3a0200a 	mov	r2, #10
 c100ffc:	e5832000 	str	r2, [r3]
			}
			break;
 c101000:	ea000014 	b	c101058 <coinsMoverTask+0x114>
		case on: /* Estado con leds y 7-segs encendidos */
			if (!(--ticks)) /* Decrementa ticks y chequea si ha permanecido en este estado el tiempo requerido */
 c101004:	e59f3064 	ldr	r3, [pc, #100]	; c101070 <coinsMoverTask+0x12c>
 c101008:	e5933000 	ldr	r3, [r3]
 c10100c:	e2432001 	sub	r2, r3, #1
 c101010:	e59f3058 	ldr	r3, [pc, #88]	; c101070 <coinsMoverTask+0x12c>
 c101014:	e5832000 	str	r2, [r3]
 c101018:	e59f3050 	ldr	r3, [pc, #80]	; c101070 <coinsMoverTask+0x12c>
 c10101c:	e5933000 	ldr	r3, [r3]
 c101020:	e3530000 	cmp	r3, #0
 c101024:	1a00000a 	bne	c101054 <coinsMoverTask+0x110>
			{
				segs_off(); /* Apaga segs */
 c101028:	eb001403 	bl	c10603c <segs_off>
				led_off(LEFT_LED); /* Apaga leds */
 c10102c:	e3a00001 	mov	r0, #1
 c101030:	eb0010ec 	bl	c1053e8 <led_off>
				led_off(RIGHT_LED);
 c101034:	e3a00002 	mov	r0, #2
 c101038:	eb0010ea 	bl	c1053e8 <led_off>
				state = off; /* Salta al estado off */
 c10103c:	e59f3024 	ldr	r3, [pc, #36]	; c101068 <coinsMoverTask+0x124>
 c101040:	e3a02000 	mov	r2, #0
 c101044:	e5c32000 	strb	r2, [r3]
			}
			break;
 c101048:	ea000002 	b	c101058 <coinsMoverTask+0x114>
				led_on(LEFT_LED); /* Enciende leds */
				led_on(RIGHT_LED);
				state = on; /* Salta al estado on ... */
				ticks = 10; /* ... en el que debera permanecer 10 ticks */
			}
			break;
 c10104c:	e1a00000 	nop			; (mov r0, r0)
 c101050:	ea000000 	b	c101058 <coinsMoverTask+0x114>
				segs_off(); /* Apaga segs */
				led_off(LEFT_LED); /* Apaga leds */
				led_off(RIGHT_LED);
				state = off; /* Salta al estado off */
			}
			break;
 c101054:	e1a00000 	nop			; (mov r0, r0)
		}
}
 c101058:	e24bd00c 	sub	sp, fp, #12
 c10105c:	e89d6800 	ldm	sp, {fp, sp, lr}
 c101060:	e12fff1e 	bx	lr
 c101064:	0c10c0b8 	.word	0x0c10c0b8
 c101068:	0c115773 	.word	0x0c115773
 c10106c:	0c115814 	.word	0x0c115814
 c101070:	0c115774 	.word	0x0c115774

0c101074 <setup>:
/*******************************************************************/

/*
 ** Inicializa flags, mailboxes y variables globales
 */
void setup(void) {
 c101074:	e1a0c00d 	mov	ip, sp
 c101078:	e92dd800 	push	{fp, ip, lr, pc}
 c10107c:	e24cb004 	sub	fp, ip, #4
 c101080:	e24dd008 	sub	sp, sp, #8
	coinAcceptorMsg.flag = FALSE;
 c101084:	e59f30b0 	ldr	r3, [pc, #176]	; c10113c <setup+0xc8>
 c101088:	e3a02000 	mov	r2, #0
 c10108c:	e5c32000 	strb	r2, [r3]
	coinAcceptorMsg.cents = 0;
 c101090:	e59f30a4 	ldr	r3, [pc, #164]	; c10113c <setup+0xc8>
 c101094:	e3a02000 	mov	r2, #0
 c101098:	e5c32001 	strb	r2, [r3, #1]

	tsPressedMsg.flag = FALSE;
 c10109c:	e59f309c 	ldr	r3, [pc, #156]	; c101140 <setup+0xcc>
 c1010a0:	e3a02000 	mov	r2, #0
 c1010a4:	e5c32000 	strb	r2, [r3]
	tsPressedMsg.x = 0;
 c1010a8:	e59f3090 	ldr	r3, [pc, #144]	; c101140 <setup+0xcc>
 c1010ac:	e3a02000 	mov	r2, #0
 c1010b0:	e1c320b2 	strh	r2, [r3, #2]
	tsPressedMsg.y = 0;
 c1010b4:	e59f3084 	ldr	r3, [pc, #132]	; c101140 <setup+0xcc>
 c1010b8:	e3a02000 	mov	r2, #0
 c1010bc:	e1c320b4 	strh	r2, [r3, #4]

	coinsMoverMsg.flag = FALSE;
 c1010c0:	e59f307c 	ldr	r3, [pc, #124]	; c101144 <setup+0xd0>
 c1010c4:	e3a02000 	mov	r2, #0
 c1010c8:	e5c32000 	strb	r2, [r3]
	coinsMoverMsg.accept = FALSE;
 c1010cc:	e59f3070 	ldr	r3, [pc, #112]	; c101144 <setup+0xd0>
 c1010d0:	e3a02000 	mov	r2, #0
 c1010d4:	e5c32001 	strb	r2, [r3, #1]
	parking.plazasLibres=MAXPLACES;
 c1010d8:	e59f3068 	ldr	r3, [pc, #104]	; c101148 <setup+0xd4>
 c1010dc:	e3a02008 	mov	r2, #8
 c1010e0:	e5c32043 	strb	r2, [r3, #67]	; 0x43
	printTicketFlag = FALSE;
 c1010e4:	e59f3060 	ldr	r3, [pc, #96]	; c10114c <setup+0xd8>
 c1010e8:	e3a02000 	mov	r2, #0
 c1010ec:	e5c32000 	strb	r2, [r3]
	uint8 i;
	for (i = 0; i < MAXPLACES; i++) {
 c1010f0:	e3a03000 	mov	r3, #0
 c1010f4:	e54b300d 	strb	r3, [fp, #-13]
 c1010f8:	ea000006 	b	c101118 <setup+0xa4>

		parking.plaza[i].occupied = FALSE; // Inicialmente todas las plazas están libres
 c1010fc:	e55b200d 	ldrb	r2, [fp, #-13]
 c101100:	e59f3040 	ldr	r3, [pc, #64]	; c101148 <setup+0xd4>
 c101104:	e3a01000 	mov	r1, #0
 c101108:	e7c31182 	strb	r1, [r3, r2, lsl #3]
	coinsMoverMsg.flag = FALSE;
	coinsMoverMsg.accept = FALSE;
	parking.plazasLibres=MAXPLACES;
	printTicketFlag = FALSE;
	uint8 i;
	for (i = 0; i < MAXPLACES; i++) {
 c10110c:	e55b300d 	ldrb	r3, [fp, #-13]
 c101110:	e2833001 	add	r3, r3, #1
 c101114:	e54b300d 	strb	r3, [fp, #-13]
 c101118:	e55b300d 	ldrb	r3, [fp, #-13]
 c10111c:	e3530007 	cmp	r3, #7
 c101120:	9afffff5 	bls	c1010fc <setup+0x88>

		parking.plaza[i].occupied = FALSE; // Inicialmente todas las plazas están libres
	}
	parking.recaudacion = 0;
 c101124:	e59f301c 	ldr	r3, [pc, #28]	; c101148 <setup+0xd4>
 c101128:	e3a02000 	mov	r2, #0
 c10112c:	e1c324b0 	strh	r2, [r3, #64]	; 0x40
}
 c101130:	e24bd00c 	sub	sp, fp, #12
 c101134:	e89d6800 	ldm	sp, {fp, sp, lr}
 c101138:	e12fff1e 	bx	lr
 c10113c:	0c115810 	.word	0x0c115810
 c101140:	0c115808 	.word	0x0c115808
 c101144:	0c115814 	.word	0x0c115814
 c101148:	0c115818 	.word	0x0c115818
 c10114c:	0c11585d 	.word	0x0c11585d

0c101150 <plotWelcomeScreen>:

void plotWelcomeScreen(void) {
 c101150:	e1a0c00d 	mov	ip, sp
 c101154:	e92dd800 	push	{fp, ip, lr, pc}
 c101158:	e24cb004 	sub	fp, ip, #4
 c10115c:	e24dd010 	sub	sp, sp, #16
	const uint16 X_HORARIO = 10; // Posición inicial del horario de funcionamiento
 c101160:	e3a0300a 	mov	r3, #10
 c101164:	e14b30be 	strh	r3, [fp, #-14]
	const uint16 Y_HORARIO = 120;
 c101168:	e3a03078 	mov	r3, #120	; 0x78
 c10116c:	e14b31b0 	strh	r3, [fp, #-16]

//Limpiar la pantalla con el color de fondo:
	lcd_clear();
 c101170:	eb000c13 	bl	c1041c4 <lcd_clear>
	lcd_puts_x2(24, 40, BLACK, "Pulse la pantalla");
 c101174:	e3a00018 	mov	r0, #24
 c101178:	e3a01028 	mov	r1, #40	; 0x28
 c10117c:	e3a0200f 	mov	r2, #15
 c101180:	e59f3200 	ldr	r3, [pc, #512]	; c101388 <plotWelcomeScreen+0x238>
 c101184:	eb000f68 	bl	c104f2c <lcd_puts_x2>
	lcd_puts_x2(24, 68, BLACK, "  para comenzar  ");
 c101188:	e3a00018 	mov	r0, #24
 c10118c:	e3a01044 	mov	r1, #68	; 0x44
 c101190:	e3a0200f 	mov	r2, #15
 c101194:	e59f31f0 	ldr	r3, [pc, #496]	; c10138c <plotWelcomeScreen+0x23c>
 c101198:	eb000f63 	bl	c104f2c <lcd_puts_x2>

	lcd_puts(24, 100, BLACK, "Plazas libres: ");
 c10119c:	e3a00018 	mov	r0, #24
 c1011a0:	e3a01064 	mov	r1, #100	; 0x64
 c1011a4:	e3a0200f 	mov	r2, #15
 c1011a8:	e59f31e0 	ldr	r3, [pc, #480]	; c101390 <plotWelcomeScreen+0x240>
 c1011ac:	eb000e07 	bl	c1049d0 <lcd_puts>
	lcd_putint(150, 100, BLACK, parking.plazasLibres);
 c1011b0:	e59f31dc 	ldr	r3, [pc, #476]	; c101394 <plotWelcomeScreen+0x244>
 c1011b4:	e5d33043 	ldrb	r3, [r3, #67]	; 0x43
 c1011b8:	e3a00096 	mov	r0, #150	; 0x96
 c1011bc:	e3a01064 	mov	r1, #100	; 0x64
 c1011c0:	e3a0200f 	mov	r2, #15
 c1011c4:	eb000e1e 	bl	c104a44 <lcd_putint>
	lcd_puts(170, 100, BLACK, "Recaudacion: ");
 c1011c8:	e3a000aa 	mov	r0, #170	; 0xaa
 c1011cc:	e3a01064 	mov	r1, #100	; 0x64
 c1011d0:	e3a0200f 	mov	r2, #15
 c1011d4:	e59f31bc 	ldr	r3, [pc, #444]	; c101398 <plotWelcomeScreen+0x248>
 c1011d8:	eb000dfc 	bl	c1049d0 <lcd_puts>
	lcd_putint(280, 100, BLACK, parking.recaudacion);
 c1011dc:	e59f31b0 	ldr	r3, [pc, #432]	; c101394 <plotWelcomeScreen+0x244>
 c1011e0:	e1d334b0 	ldrh	r3, [r3, #64]	; 0x40
 c1011e4:	e3a00f46 	mov	r0, #280	; 0x118
 c1011e8:	e3a01064 	mov	r1, #100	; 0x64
 c1011ec:	e3a0200f 	mov	r2, #15
 c1011f0:	eb000e13 	bl	c104a44 <lcd_putint>

// Dibujar el horario de funcionamiento
	lcd_draw_box(0, 125, LCD_WIDTH - 1, 220, BLACK, 1); // Limpiar área donde se dibuja la fecha y hora
 c1011f4:	e3a0300f 	mov	r3, #15
 c1011f8:	e58d3000 	str	r3, [sp]
 c1011fc:	e3a03001 	mov	r3, #1
 c101200:	e58d3004 	str	r3, [sp, #4]
 c101204:	e3a00000 	mov	r0, #0
 c101208:	e3a0107d 	mov	r1, #125	; 0x7d
 c10120c:	e59f2188 	ldr	r2, [pc, #392]	; c10139c <plotWelcomeScreen+0x24c>
 c101210:	e3a030dc 	mov	r3, #220	; 0xdc
 c101214:	eb000d10 	bl	c10465c <lcd_draw_box>
	lcd_puts(X_HORARIO + 30, Y_HORARIO, BLACK, "HORARIO DE FUNCIONAMIENTO:");
 c101218:	e15b30be 	ldrh	r3, [fp, #-14]
 c10121c:	e283301e 	add	r3, r3, #30
 c101220:	e1a03803 	lsl	r3, r3, #16
 c101224:	e1a02823 	lsr	r2, r3, #16
 c101228:	e15b31b0 	ldrh	r3, [fp, #-16]
 c10122c:	e1a00002 	mov	r0, r2
 c101230:	e1a01003 	mov	r1, r3
 c101234:	e3a0200f 	mov	r2, #15
 c101238:	e59f3160 	ldr	r3, [pc, #352]	; c1013a0 <plotWelcomeScreen+0x250>
 c10123c:	eb000de3 	bl	c1049d0 <lcd_puts>

	lcd_puts(X_HORARIO, Y_HORARIO + 20, BLACK, "dom: gratis");
 c101240:	e15b31b0 	ldrh	r3, [fp, #-16]
 c101244:	e2833014 	add	r3, r3, #20
 c101248:	e1a03803 	lsl	r3, r3, #16
 c10124c:	e1a03823 	lsr	r3, r3, #16
 c101250:	e15b20be 	ldrh	r2, [fp, #-14]
 c101254:	e1a00002 	mov	r0, r2
 c101258:	e1a01003 	mov	r1, r3
 c10125c:	e3a0200f 	mov	r2, #15
 c101260:	e59f313c 	ldr	r3, [pc, #316]	; c1013a4 <plotWelcomeScreen+0x254>
 c101264:	eb000dd9 	bl	c1049d0 <lcd_puts>
	lcd_puts(X_HORARIO, Y_HORARIO + 40, BLACK, "lun: 09:00-21:00");
 c101268:	e15b31b0 	ldrh	r3, [fp, #-16]
 c10126c:	e2833028 	add	r3, r3, #40	; 0x28
 c101270:	e1a03803 	lsl	r3, r3, #16
 c101274:	e1a03823 	lsr	r3, r3, #16
 c101278:	e15b20be 	ldrh	r2, [fp, #-14]
 c10127c:	e1a00002 	mov	r0, r2
 c101280:	e1a01003 	mov	r1, r3
 c101284:	e3a0200f 	mov	r2, #15
 c101288:	e59f3118 	ldr	r3, [pc, #280]	; c1013a8 <plotWelcomeScreen+0x258>
 c10128c:	eb000dcf 	bl	c1049d0 <lcd_puts>
	lcd_puts(X_HORARIO, Y_HORARIO + 60, BLACK, "mar: 09:00-21:00");
 c101290:	e15b31b0 	ldrh	r3, [fp, #-16]
 c101294:	e283303c 	add	r3, r3, #60	; 0x3c
 c101298:	e1a03803 	lsl	r3, r3, #16
 c10129c:	e1a03823 	lsr	r3, r3, #16
 c1012a0:	e15b20be 	ldrh	r2, [fp, #-14]
 c1012a4:	e1a00002 	mov	r0, r2
 c1012a8:	e1a01003 	mov	r1, r3
 c1012ac:	e3a0200f 	mov	r2, #15
 c1012b0:	e59f30f4 	ldr	r3, [pc, #244]	; c1013ac <plotWelcomeScreen+0x25c>
 c1012b4:	eb000dc5 	bl	c1049d0 <lcd_puts>
	lcd_puts(X_HORARIO, Y_HORARIO + 80, BLACK, "mie: 09:00-21:00");
 c1012b8:	e15b31b0 	ldrh	r3, [fp, #-16]
 c1012bc:	e2833050 	add	r3, r3, #80	; 0x50
 c1012c0:	e1a03803 	lsl	r3, r3, #16
 c1012c4:	e1a03823 	lsr	r3, r3, #16
 c1012c8:	e15b20be 	ldrh	r2, [fp, #-14]
 c1012cc:	e1a00002 	mov	r0, r2
 c1012d0:	e1a01003 	mov	r1, r3
 c1012d4:	e3a0200f 	mov	r2, #15
 c1012d8:	e59f30d0 	ldr	r3, [pc, #208]	; c1013b0 <plotWelcomeScreen+0x260>
 c1012dc:	eb000dbb 	bl	c1049d0 <lcd_puts>
	lcd_puts(X_HORARIO + 140, Y_HORARIO + 20, BLACK, "jue: 09:00-21:00");
 c1012e0:	e15b30be 	ldrh	r3, [fp, #-14]
 c1012e4:	e283308c 	add	r3, r3, #140	; 0x8c
 c1012e8:	e1a03803 	lsl	r3, r3, #16
 c1012ec:	e1a02823 	lsr	r2, r3, #16
 c1012f0:	e15b31b0 	ldrh	r3, [fp, #-16]
 c1012f4:	e2833014 	add	r3, r3, #20
 c1012f8:	e1a03803 	lsl	r3, r3, #16
 c1012fc:	e1a03823 	lsr	r3, r3, #16
 c101300:	e1a00002 	mov	r0, r2
 c101304:	e1a01003 	mov	r1, r3
 c101308:	e3a0200f 	mov	r2, #15
 c10130c:	e59f30a0 	ldr	r3, [pc, #160]	; c1013b4 <plotWelcomeScreen+0x264>
 c101310:	eb000dae 	bl	c1049d0 <lcd_puts>
	lcd_puts(X_HORARIO + 140, Y_HORARIO + 40, BLACK, "vie: 09:00-21:00");
 c101314:	e15b30be 	ldrh	r3, [fp, #-14]
 c101318:	e283308c 	add	r3, r3, #140	; 0x8c
 c10131c:	e1a03803 	lsl	r3, r3, #16
 c101320:	e1a02823 	lsr	r2, r3, #16
 c101324:	e15b31b0 	ldrh	r3, [fp, #-16]
 c101328:	e2833028 	add	r3, r3, #40	; 0x28
 c10132c:	e1a03803 	lsl	r3, r3, #16
 c101330:	e1a03823 	lsr	r3, r3, #16
 c101334:	e1a00002 	mov	r0, r2
 c101338:	e1a01003 	mov	r1, r3
 c10133c:	e3a0200f 	mov	r2, #15
 c101340:	e59f3070 	ldr	r3, [pc, #112]	; c1013b8 <plotWelcomeScreen+0x268>
 c101344:	eb000da1 	bl	c1049d0 <lcd_puts>
	lcd_puts(X_HORARIO + 140, Y_HORARIO + 60, BLACK, "sab: 09:00-15:00");
 c101348:	e15b30be 	ldrh	r3, [fp, #-14]
 c10134c:	e283308c 	add	r3, r3, #140	; 0x8c
 c101350:	e1a03803 	lsl	r3, r3, #16
 c101354:	e1a02823 	lsr	r2, r3, #16
 c101358:	e15b31b0 	ldrh	r3, [fp, #-16]
 c10135c:	e283303c 	add	r3, r3, #60	; 0x3c
 c101360:	e1a03803 	lsl	r3, r3, #16
 c101364:	e1a03823 	lsr	r3, r3, #16
 c101368:	e1a00002 	mov	r0, r2
 c10136c:	e1a01003 	mov	r1, r3
 c101370:	e3a0200f 	mov	r2, #15
 c101374:	e59f3040 	ldr	r3, [pc, #64]	; c1013bc <plotWelcomeScreen+0x26c>
 c101378:	eb000d94 	bl	c1049d0 <lcd_puts>

}
 c10137c:	e24bd00c 	sub	sp, fp, #12
 c101380:	e89d6800 	ldm	sp, {fp, sp, lr}
 c101384:	e12fff1e 	bx	lr
 c101388:	0c10a430 	.word	0x0c10a430
 c10138c:	0c10a444 	.word	0x0c10a444
 c101390:	0c10a458 	.word	0x0c10a458
 c101394:	0c115818 	.word	0x0c115818
 c101398:	0c10a468 	.word	0x0c10a468
 c10139c:	0000013f 	.word	0x0000013f
 c1013a0:	0c10a478 	.word	0x0c10a478
 c1013a4:	0c10a494 	.word	0x0c10a494
 c1013a8:	0c10a4a0 	.word	0x0c10a4a0
 c1013ac:	0c10a4b4 	.word	0x0c10a4b4
 c1013b0:	0c10a4c8 	.word	0x0c10a4c8
 c1013b4:	0c10a4dc 	.word	0x0c10a4dc
 c1013b8:	0c10a4f0 	.word	0x0c10a4f0
 c1013bc:	0c10a504 	.word	0x0c10a504

0c1013c0 <obtenerDiaSemana>:

// Función auxiliar para obtener el día de la semana en texto
const char* obtenerDiaSemana(uint8 weekday) {
 c1013c0:	e1a0c00d 	mov	ip, sp
 c1013c4:	e92dd800 	push	{fp, ip, lr, pc}
 c1013c8:	e24cb004 	sub	fp, ip, #4
 c1013cc:	e24dd008 	sub	sp, sp, #8
 c1013d0:	e1a03000 	mov	r3, r0
 c1013d4:	e54b300d 	strb	r3, [fp, #-13]
	switch (weekday) {
 c1013d8:	e55b300d 	ldrb	r3, [fp, #-13]
 c1013dc:	e3530006 	cmp	r3, #6
 c1013e0:	979ff103 	ldrls	pc, [pc, r3, lsl #2]
 c1013e4:	ea000014 	b	c10143c <obtenerDiaSemana+0x7c>
 c1013e8:	0c101404 	.word	0x0c101404
 c1013ec:	0c10140c 	.word	0x0c10140c
 c1013f0:	0c101414 	.word	0x0c101414
 c1013f4:	0c10141c 	.word	0x0c10141c
 c1013f8:	0c101424 	.word	0x0c101424
 c1013fc:	0c10142c 	.word	0x0c10142c
 c101400:	0c101434 	.word	0x0c101434
	case 0:
		return "dom";
 c101404:	e59f3044 	ldr	r3, [pc, #68]	; c101450 <obtenerDiaSemana+0x90>
 c101408:	ea00000c 	b	c101440 <obtenerDiaSemana+0x80>
	case 1:
		return "lun";
 c10140c:	e59f3040 	ldr	r3, [pc, #64]	; c101454 <obtenerDiaSemana+0x94>
 c101410:	ea00000a 	b	c101440 <obtenerDiaSemana+0x80>
	case 2:
		return "mar";
 c101414:	e59f303c 	ldr	r3, [pc, #60]	; c101458 <obtenerDiaSemana+0x98>
 c101418:	ea000008 	b	c101440 <obtenerDiaSemana+0x80>
	case 3:
		return "mie";
 c10141c:	e59f3038 	ldr	r3, [pc, #56]	; c10145c <obtenerDiaSemana+0x9c>
 c101420:	ea000006 	b	c101440 <obtenerDiaSemana+0x80>
	case 4:
		return "jue";
 c101424:	e59f3034 	ldr	r3, [pc, #52]	; c101460 <obtenerDiaSemana+0xa0>
 c101428:	ea000004 	b	c101440 <obtenerDiaSemana+0x80>
	case 5:
		return "vie";
 c10142c:	e59f3030 	ldr	r3, [pc, #48]	; c101464 <obtenerDiaSemana+0xa4>
 c101430:	ea000002 	b	c101440 <obtenerDiaSemana+0x80>
	case 6:
		return "sab";
 c101434:	e59f302c 	ldr	r3, [pc, #44]	; c101468 <obtenerDiaSemana+0xa8>
 c101438:	ea000000 	b	c101440 <obtenerDiaSemana+0x80>
	default:
		return "???";
 c10143c:	e59f3028 	ldr	r3, [pc, #40]	; c10146c <obtenerDiaSemana+0xac>
	}
}
 c101440:	e1a00003 	mov	r0, r3
 c101444:	e24bd00c 	sub	sp, fp, #12
 c101448:	e89d6800 	ldm	sp, {fp, sp, lr}
 c10144c:	e12fff1e 	bx	lr
 c101450:	0c10a518 	.word	0x0c10a518
 c101454:	0c10a51c 	.word	0x0c10a51c
 c101458:	0c10a520 	.word	0x0c10a520
 c10145c:	0c10a524 	.word	0x0c10a524
 c101460:	0c10a528 	.word	0x0c10a528
 c101464:	0c10a52c 	.word	0x0c10a52c
 c101468:	0c10a530 	.word	0x0c10a530
 c10146c:	0c10a534 	.word	0x0c10a534

0c101470 <convertirFechaHora>:

void convertirFechaHora(rtc_time_t tiempoActual, char* buffer, char* diaSemana) {
 c101470:	e1a0c00d 	mov	ip, sp
 c101474:	e92dd800 	push	{fp, ip, lr, pc}
 c101478:	e24cb004 	sub	fp, ip, #4
 c10147c:	e24dd020 	sub	sp, sp, #32
 c101480:	e24bc024 	sub	ip, fp, #36	; 0x24
 c101484:	e88c0003 	stm	ip, {r0, r1}
 c101488:	e50b2028 	str	r2, [fp, #-40]	; 0xffffffd8
 c10148c:	e50b302c 	str	r3, [fp, #-44]	; 0xffffffd4
// Obtener el nombre del día de la semana y almacenarlo en diaSemana
	const char* nombreDia = obtenerDiaSemana(tiempoActual.wday);
 c101490:	e55b3020 	ldrb	r3, [fp, #-32]	; 0xffffffe0
 c101494:	e1a00003 	mov	r0, r3
 c101498:	ebffffc8 	bl	c1013c0 <obtenerDiaSemana>
 c10149c:	e50b0010 	str	r0, [fp, #-16]
	int i = 0;
 c1014a0:	e3a03000 	mov	r3, #0
 c1014a4:	e50b3014 	str	r3, [fp, #-20]	; 0xffffffec

// Copiar el nombre del día al buffer diaSemana
	while (*nombreDia) {
 c1014a8:	ea00000b 	b	c1014dc <convertirFechaHora+0x6c>
		diaSemana[i++] = *nombreDia++;
 c1014ac:	e51b3014 	ldr	r3, [fp, #-20]	; 0xffffffec
 c1014b0:	e51b202c 	ldr	r2, [fp, #-44]	; 0xffffffd4
 c1014b4:	e0823003 	add	r3, r2, r3
 c1014b8:	e51b2010 	ldr	r2, [fp, #-16]
 c1014bc:	e5d22000 	ldrb	r2, [r2]
 c1014c0:	e5c32000 	strb	r2, [r3]
 c1014c4:	e51b3014 	ldr	r3, [fp, #-20]	; 0xffffffec
 c1014c8:	e2833001 	add	r3, r3, #1
 c1014cc:	e50b3014 	str	r3, [fp, #-20]	; 0xffffffec
 c1014d0:	e51b3010 	ldr	r3, [fp, #-16]
 c1014d4:	e2833001 	add	r3, r3, #1
 c1014d8:	e50b3010 	str	r3, [fp, #-16]
// Obtener el nombre del día de la semana y almacenarlo en diaSemana
	const char* nombreDia = obtenerDiaSemana(tiempoActual.wday);
	int i = 0;

// Copiar el nombre del día al buffer diaSemana
	while (*nombreDia) {
 c1014dc:	e51b3010 	ldr	r3, [fp, #-16]
 c1014e0:	e5d33000 	ldrb	r3, [r3]
 c1014e4:	e3530000 	cmp	r3, #0
 c1014e8:	1affffef 	bne	c1014ac <convertirFechaHora+0x3c>
		diaSemana[i++] = *nombreDia++;
	}
	diaSemana[i] = '\0';  // Terminar la cadena
 c1014ec:	e51b3014 	ldr	r3, [fp, #-20]	; 0xffffffec
 c1014f0:	e51b202c 	ldr	r2, [fp, #-44]	; 0xffffffd4
 c1014f4:	e0823003 	add	r3, r2, r3
 c1014f8:	e3a02000 	mov	r2, #0
 c1014fc:	e5c32000 	strb	r2, [r3]

// Construir la cadena de fecha y hora
// Formato: "Día, dd/mm/aa hh:mm:ss"
	int pos = 0;
 c101500:	e3a03000 	mov	r3, #0
 c101504:	e50b3018 	str	r3, [fp, #-24]	; 0xffffffe8

// Día de la semana
	i = 0;
 c101508:	e3a03000 	mov	r3, #0
 c10150c:	e50b3014 	str	r3, [fp, #-20]	; 0xffffffec
	while (diaSemana[i]) {
 c101510:	ea00000d 	b	c10154c <convertirFechaHora+0xdc>
		buffer[pos++] = diaSemana[i++];
 c101514:	e51b3018 	ldr	r3, [fp, #-24]	; 0xffffffe8
 c101518:	e51b2028 	ldr	r2, [fp, #-40]	; 0xffffffd8
 c10151c:	e0823003 	add	r3, r2, r3
 c101520:	e51b2014 	ldr	r2, [fp, #-20]	; 0xffffffec
 c101524:	e51b102c 	ldr	r1, [fp, #-44]	; 0xffffffd4
 c101528:	e0812002 	add	r2, r1, r2
 c10152c:	e5d22000 	ldrb	r2, [r2]
 c101530:	e5c32000 	strb	r2, [r3]
 c101534:	e51b3018 	ldr	r3, [fp, #-24]	; 0xffffffe8
 c101538:	e2833001 	add	r3, r3, #1
 c10153c:	e50b3018 	str	r3, [fp, #-24]	; 0xffffffe8
 c101540:	e51b3014 	ldr	r3, [fp, #-20]	; 0xffffffec
 c101544:	e2833001 	add	r3, r3, #1
 c101548:	e50b3014 	str	r3, [fp, #-20]	; 0xffffffec
// Formato: "Día, dd/mm/aa hh:mm:ss"
	int pos = 0;

// Día de la semana
	i = 0;
	while (diaSemana[i]) {
 c10154c:	e51b3014 	ldr	r3, [fp, #-20]	; 0xffffffec
 c101550:	e51b202c 	ldr	r2, [fp, #-44]	; 0xffffffd4
 c101554:	e0823003 	add	r3, r2, r3
 c101558:	e5d33000 	ldrb	r3, [r3]
 c10155c:	e3530000 	cmp	r3, #0
 c101560:	1affffeb 	bne	c101514 <convertirFechaHora+0xa4>
		buffer[pos++] = diaSemana[i++];
	}
	buffer[pos++] = ',';
 c101564:	e51b3018 	ldr	r3, [fp, #-24]	; 0xffffffe8
 c101568:	e51b2028 	ldr	r2, [fp, #-40]	; 0xffffffd8
 c10156c:	e0823003 	add	r3, r2, r3
 c101570:	e3a0202c 	mov	r2, #44	; 0x2c
 c101574:	e5c32000 	strb	r2, [r3]
 c101578:	e51b3018 	ldr	r3, [fp, #-24]	; 0xffffffe8
 c10157c:	e2833001 	add	r3, r3, #1
 c101580:	e50b3018 	str	r3, [fp, #-24]	; 0xffffffe8
	buffer[pos++] = ' ';
 c101584:	e51b3018 	ldr	r3, [fp, #-24]	; 0xffffffe8
 c101588:	e51b2028 	ldr	r2, [fp, #-40]	; 0xffffffd8
 c10158c:	e0823003 	add	r3, r2, r3
 c101590:	e3a02020 	mov	r2, #32
 c101594:	e5c32000 	strb	r2, [r3]
 c101598:	e51b3018 	ldr	r3, [fp, #-24]	; 0xffffffe8
 c10159c:	e2833001 	add	r3, r3, #1
 c1015a0:	e50b3018 	str	r3, [fp, #-24]	; 0xffffffe8

// Día
	buffer[pos++] = '0' + (tiempoActual.mday / 10); // Primer dígito del día
 c1015a4:	e51b3018 	ldr	r3, [fp, #-24]	; 0xffffffe8
 c1015a8:	e51b2028 	ldr	r2, [fp, #-40]	; 0xffffffd8
 c1015ac:	e0823003 	add	r3, r2, r3
 c1015b0:	e55b1021 	ldrb	r1, [fp, #-33]	; 0xffffffdf
 c1015b4:	e59f2418 	ldr	r2, [pc, #1048]	; c1019d4 <convertirFechaHora+0x564>
 c1015b8:	e0820291 	umull	r0, r2, r1, r2
 c1015bc:	e1a021a2 	lsr	r2, r2, #3
 c1015c0:	e20220ff 	and	r2, r2, #255	; 0xff
 c1015c4:	e2822030 	add	r2, r2, #48	; 0x30
 c1015c8:	e20220ff 	and	r2, r2, #255	; 0xff
 c1015cc:	e5c32000 	strb	r2, [r3]
 c1015d0:	e51b3018 	ldr	r3, [fp, #-24]	; 0xffffffe8
 c1015d4:	e2833001 	add	r3, r3, #1
 c1015d8:	e50b3018 	str	r3, [fp, #-24]	; 0xffffffe8
	buffer[pos++] = '0' + (tiempoActual.mday % 10); // Segundo dígito del día
 c1015dc:	e51b3018 	ldr	r3, [fp, #-24]	; 0xffffffe8
 c1015e0:	e51b2028 	ldr	r2, [fp, #-40]	; 0xffffffd8
 c1015e4:	e0820003 	add	r0, r2, r3
 c1015e8:	e55b2021 	ldrb	r2, [fp, #-33]	; 0xffffffdf
 c1015ec:	e59f33e0 	ldr	r3, [pc, #992]	; c1019d4 <convertirFechaHora+0x564>
 c1015f0:	e0831392 	umull	r1, r3, r2, r3
 c1015f4:	e1a011a3 	lsr	r1, r3, #3
 c1015f8:	e1a03001 	mov	r3, r1
 c1015fc:	e1a03103 	lsl	r3, r3, #2
 c101600:	e0833001 	add	r3, r3, r1
 c101604:	e1a03083 	lsl	r3, r3, #1
 c101608:	e0633002 	rsb	r3, r3, r2
 c10160c:	e20330ff 	and	r3, r3, #255	; 0xff
 c101610:	e2833030 	add	r3, r3, #48	; 0x30
 c101614:	e20330ff 	and	r3, r3, #255	; 0xff
 c101618:	e5c03000 	strb	r3, [r0]
 c10161c:	e51b3018 	ldr	r3, [fp, #-24]	; 0xffffffe8
 c101620:	e2833001 	add	r3, r3, #1
 c101624:	e50b3018 	str	r3, [fp, #-24]	; 0xffffffe8
	buffer[pos++] = '/';
 c101628:	e51b3018 	ldr	r3, [fp, #-24]	; 0xffffffe8
 c10162c:	e51b2028 	ldr	r2, [fp, #-40]	; 0xffffffd8
 c101630:	e0823003 	add	r3, r2, r3
 c101634:	e3a0202f 	mov	r2, #47	; 0x2f
 c101638:	e5c32000 	strb	r2, [r3]
 c10163c:	e51b3018 	ldr	r3, [fp, #-24]	; 0xffffffe8
 c101640:	e2833001 	add	r3, r3, #1
 c101644:	e50b3018 	str	r3, [fp, #-24]	; 0xffffffe8

// Mes
	buffer[pos++] = '0' + (tiempoActual.mon / 10);  // Primer dígito del mes
 c101648:	e51b3018 	ldr	r3, [fp, #-24]	; 0xffffffe8
 c10164c:	e51b2028 	ldr	r2, [fp, #-40]	; 0xffffffd8
 c101650:	e0823003 	add	r3, r2, r3
 c101654:	e55b101f 	ldrb	r1, [fp, #-31]	; 0xffffffe1
 c101658:	e59f2374 	ldr	r2, [pc, #884]	; c1019d4 <convertirFechaHora+0x564>
 c10165c:	e0820291 	umull	r0, r2, r1, r2
 c101660:	e1a021a2 	lsr	r2, r2, #3
 c101664:	e20220ff 	and	r2, r2, #255	; 0xff
 c101668:	e2822030 	add	r2, r2, #48	; 0x30
 c10166c:	e20220ff 	and	r2, r2, #255	; 0xff
 c101670:	e5c32000 	strb	r2, [r3]
 c101674:	e51b3018 	ldr	r3, [fp, #-24]	; 0xffffffe8
 c101678:	e2833001 	add	r3, r3, #1
 c10167c:	e50b3018 	str	r3, [fp, #-24]	; 0xffffffe8
	buffer[pos++] = '0' + (tiempoActual.mon % 10); // Segundo dígito del mes
 c101680:	e51b3018 	ldr	r3, [fp, #-24]	; 0xffffffe8
 c101684:	e51b2028 	ldr	r2, [fp, #-40]	; 0xffffffd8
 c101688:	e0820003 	add	r0, r2, r3
 c10168c:	e55b201f 	ldrb	r2, [fp, #-31]	; 0xffffffe1
 c101690:	e59f333c 	ldr	r3, [pc, #828]	; c1019d4 <convertirFechaHora+0x564>
 c101694:	e0831392 	umull	r1, r3, r2, r3
 c101698:	e1a011a3 	lsr	r1, r3, #3
 c10169c:	e1a03001 	mov	r3, r1
 c1016a0:	e1a03103 	lsl	r3, r3, #2
 c1016a4:	e0833001 	add	r3, r3, r1
 c1016a8:	e1a03083 	lsl	r3, r3, #1
 c1016ac:	e0633002 	rsb	r3, r3, r2
 c1016b0:	e20330ff 	and	r3, r3, #255	; 0xff
 c1016b4:	e2833030 	add	r3, r3, #48	; 0x30
 c1016b8:	e20330ff 	and	r3, r3, #255	; 0xff
 c1016bc:	e5c03000 	strb	r3, [r0]
 c1016c0:	e51b3018 	ldr	r3, [fp, #-24]	; 0xffffffe8
 c1016c4:	e2833001 	add	r3, r3, #1
 c1016c8:	e50b3018 	str	r3, [fp, #-24]	; 0xffffffe8
	buffer[pos++] = '/';
 c1016cc:	e51b3018 	ldr	r3, [fp, #-24]	; 0xffffffe8
 c1016d0:	e51b2028 	ldr	r2, [fp, #-40]	; 0xffffffd8
 c1016d4:	e0823003 	add	r3, r2, r3
 c1016d8:	e3a0202f 	mov	r2, #47	; 0x2f
 c1016dc:	e5c32000 	strb	r2, [r3]
 c1016e0:	e51b3018 	ldr	r3, [fp, #-24]	; 0xffffffe8
 c1016e4:	e2833001 	add	r3, r3, #1
 c1016e8:	e50b3018 	str	r3, [fp, #-24]	; 0xffffffe8

// Año (últimos dos dígitos)
	buffer[pos++] = '0' + (tiempoActual.year % 100) / 10; // Primer dígito del año
 c1016ec:	e51b3018 	ldr	r3, [fp, #-24]	; 0xffffffe8
 c1016f0:	e51b2028 	ldr	r2, [fp, #-40]	; 0xffffffd8
 c1016f4:	e0820003 	add	r0, r2, r3
 c1016f8:	e55b201e 	ldrb	r2, [fp, #-30]	; 0xffffffe2
 c1016fc:	e59f32d4 	ldr	r3, [pc, #724]	; c1019d8 <convertirFechaHora+0x568>
 c101700:	e0831392 	umull	r1, r3, r2, r3
 c101704:	e1a012a3 	lsr	r1, r3, #5
 c101708:	e1a03001 	mov	r3, r1
 c10170c:	e1a03103 	lsl	r3, r3, #2
 c101710:	e0833001 	add	r3, r3, r1
 c101714:	e1a01103 	lsl	r1, r3, #2
 c101718:	e0833001 	add	r3, r3, r1
 c10171c:	e1a03103 	lsl	r3, r3, #2
 c101720:	e0633002 	rsb	r3, r3, r2
 c101724:	e20320ff 	and	r2, r3, #255	; 0xff
 c101728:	e59f32a4 	ldr	r3, [pc, #676]	; c1019d4 <convertirFechaHora+0x564>
 c10172c:	e0831392 	umull	r1, r3, r2, r3
 c101730:	e1a031a3 	lsr	r3, r3, #3
 c101734:	e20330ff 	and	r3, r3, #255	; 0xff
 c101738:	e2833030 	add	r3, r3, #48	; 0x30
 c10173c:	e20330ff 	and	r3, r3, #255	; 0xff
 c101740:	e5c03000 	strb	r3, [r0]
 c101744:	e51b3018 	ldr	r3, [fp, #-24]	; 0xffffffe8
 c101748:	e2833001 	add	r3, r3, #1
 c10174c:	e50b3018 	str	r3, [fp, #-24]	; 0xffffffe8
	buffer[pos++] = '0' + (tiempoActual.year % 100) % 10; // Segundo dígito del año
 c101750:	e51b3018 	ldr	r3, [fp, #-24]	; 0xffffffe8
 c101754:	e51b2028 	ldr	r2, [fp, #-40]	; 0xffffffd8
 c101758:	e0820003 	add	r0, r2, r3
 c10175c:	e55b201e 	ldrb	r2, [fp, #-30]	; 0xffffffe2
 c101760:	e59f3270 	ldr	r3, [pc, #624]	; c1019d8 <convertirFechaHora+0x568>
 c101764:	e0831392 	umull	r1, r3, r2, r3
 c101768:	e1a012a3 	lsr	r1, r3, #5
 c10176c:	e1a03001 	mov	r3, r1
 c101770:	e1a03103 	lsl	r3, r3, #2
 c101774:	e0833001 	add	r3, r3, r1
 c101778:	e1a01103 	lsl	r1, r3, #2
 c10177c:	e0833001 	add	r3, r3, r1
 c101780:	e1a03103 	lsl	r3, r3, #2
 c101784:	e0633002 	rsb	r3, r3, r2
 c101788:	e20320ff 	and	r2, r3, #255	; 0xff
 c10178c:	e59f3240 	ldr	r3, [pc, #576]	; c1019d4 <convertirFechaHora+0x564>
 c101790:	e0831392 	umull	r1, r3, r2, r3
 c101794:	e1a011a3 	lsr	r1, r3, #3
 c101798:	e1a03001 	mov	r3, r1
 c10179c:	e1a03103 	lsl	r3, r3, #2
 c1017a0:	e0833001 	add	r3, r3, r1
 c1017a4:	e1a03083 	lsl	r3, r3, #1
 c1017a8:	e0633002 	rsb	r3, r3, r2
 c1017ac:	e20330ff 	and	r3, r3, #255	; 0xff
 c1017b0:	e2833030 	add	r3, r3, #48	; 0x30
 c1017b4:	e20330ff 	and	r3, r3, #255	; 0xff
 c1017b8:	e5c03000 	strb	r3, [r0]
 c1017bc:	e51b3018 	ldr	r3, [fp, #-24]	; 0xffffffe8
 c1017c0:	e2833001 	add	r3, r3, #1
 c1017c4:	e50b3018 	str	r3, [fp, #-24]	; 0xffffffe8
	buffer[pos++] = ' ';
 c1017c8:	e51b3018 	ldr	r3, [fp, #-24]	; 0xffffffe8
 c1017cc:	e51b2028 	ldr	r2, [fp, #-40]	; 0xffffffd8
 c1017d0:	e0823003 	add	r3, r2, r3
 c1017d4:	e3a02020 	mov	r2, #32
 c1017d8:	e5c32000 	strb	r2, [r3]
 c1017dc:	e51b3018 	ldr	r3, [fp, #-24]	; 0xffffffe8
 c1017e0:	e2833001 	add	r3, r3, #1
 c1017e4:	e50b3018 	str	r3, [fp, #-24]	; 0xffffffe8

// Hora
	buffer[pos++] = '0' + (tiempoActual.hour / 10); // Primer dígito de la hora
 c1017e8:	e51b3018 	ldr	r3, [fp, #-24]	; 0xffffffe8
 c1017ec:	e51b2028 	ldr	r2, [fp, #-40]	; 0xffffffd8
 c1017f0:	e0823003 	add	r3, r2, r3
 c1017f4:	e55b1022 	ldrb	r1, [fp, #-34]	; 0xffffffde
 c1017f8:	e59f21d4 	ldr	r2, [pc, #468]	; c1019d4 <convertirFechaHora+0x564>
 c1017fc:	e0820291 	umull	r0, r2, r1, r2
 c101800:	e1a021a2 	lsr	r2, r2, #3
 c101804:	e20220ff 	and	r2, r2, #255	; 0xff
 c101808:	e2822030 	add	r2, r2, #48	; 0x30
 c10180c:	e20220ff 	and	r2, r2, #255	; 0xff
 c101810:	e5c32000 	strb	r2, [r3]
 c101814:	e51b3018 	ldr	r3, [fp, #-24]	; 0xffffffe8
 c101818:	e2833001 	add	r3, r3, #1
 c10181c:	e50b3018 	str	r3, [fp, #-24]	; 0xffffffe8
	buffer[pos++] = '0' + (tiempoActual.hour % 10); // Segundo dígito de la hora
 c101820:	e51b3018 	ldr	r3, [fp, #-24]	; 0xffffffe8
 c101824:	e51b2028 	ldr	r2, [fp, #-40]	; 0xffffffd8
 c101828:	e0820003 	add	r0, r2, r3
 c10182c:	e55b2022 	ldrb	r2, [fp, #-34]	; 0xffffffde
 c101830:	e59f319c 	ldr	r3, [pc, #412]	; c1019d4 <convertirFechaHora+0x564>
 c101834:	e0831392 	umull	r1, r3, r2, r3
 c101838:	e1a011a3 	lsr	r1, r3, #3
 c10183c:	e1a03001 	mov	r3, r1
 c101840:	e1a03103 	lsl	r3, r3, #2
 c101844:	e0833001 	add	r3, r3, r1
 c101848:	e1a03083 	lsl	r3, r3, #1
 c10184c:	e0633002 	rsb	r3, r3, r2
 c101850:	e20330ff 	and	r3, r3, #255	; 0xff
 c101854:	e2833030 	add	r3, r3, #48	; 0x30
 c101858:	e20330ff 	and	r3, r3, #255	; 0xff
 c10185c:	e5c03000 	strb	r3, [r0]
 c101860:	e51b3018 	ldr	r3, [fp, #-24]	; 0xffffffe8
 c101864:	e2833001 	add	r3, r3, #1
 c101868:	e50b3018 	str	r3, [fp, #-24]	; 0xffffffe8
	buffer[pos++] = ':';
 c10186c:	e51b3018 	ldr	r3, [fp, #-24]	; 0xffffffe8
 c101870:	e51b2028 	ldr	r2, [fp, #-40]	; 0xffffffd8
 c101874:	e0823003 	add	r3, r2, r3
 c101878:	e3a0203a 	mov	r2, #58	; 0x3a
 c10187c:	e5c32000 	strb	r2, [r3]
 c101880:	e51b3018 	ldr	r3, [fp, #-24]	; 0xffffffe8
 c101884:	e2833001 	add	r3, r3, #1
 c101888:	e50b3018 	str	r3, [fp, #-24]	; 0xffffffe8

// Minutos
	buffer[pos++] = '0' + (tiempoActual.min / 10); // Primer dígito de los minutos
 c10188c:	e51b3018 	ldr	r3, [fp, #-24]	; 0xffffffe8
 c101890:	e51b2028 	ldr	r2, [fp, #-40]	; 0xffffffd8
 c101894:	e0823003 	add	r3, r2, r3
 c101898:	e55b1023 	ldrb	r1, [fp, #-35]	; 0xffffffdd
 c10189c:	e59f2130 	ldr	r2, [pc, #304]	; c1019d4 <convertirFechaHora+0x564>
 c1018a0:	e0820291 	umull	r0, r2, r1, r2
 c1018a4:	e1a021a2 	lsr	r2, r2, #3
 c1018a8:	e20220ff 	and	r2, r2, #255	; 0xff
 c1018ac:	e2822030 	add	r2, r2, #48	; 0x30
 c1018b0:	e20220ff 	and	r2, r2, #255	; 0xff
 c1018b4:	e5c32000 	strb	r2, [r3]
 c1018b8:	e51b3018 	ldr	r3, [fp, #-24]	; 0xffffffe8
 c1018bc:	e2833001 	add	r3, r3, #1
 c1018c0:	e50b3018 	str	r3, [fp, #-24]	; 0xffffffe8
	buffer[pos++] = '0' + (tiempoActual.min % 10); // Segundo dígito de los minutos
 c1018c4:	e51b3018 	ldr	r3, [fp, #-24]	; 0xffffffe8
 c1018c8:	e51b2028 	ldr	r2, [fp, #-40]	; 0xffffffd8
 c1018cc:	e0820003 	add	r0, r2, r3
 c1018d0:	e55b2023 	ldrb	r2, [fp, #-35]	; 0xffffffdd
 c1018d4:	e59f30f8 	ldr	r3, [pc, #248]	; c1019d4 <convertirFechaHora+0x564>
 c1018d8:	e0831392 	umull	r1, r3, r2, r3
 c1018dc:	e1a011a3 	lsr	r1, r3, #3
 c1018e0:	e1a03001 	mov	r3, r1
 c1018e4:	e1a03103 	lsl	r3, r3, #2
 c1018e8:	e0833001 	add	r3, r3, r1
 c1018ec:	e1a03083 	lsl	r3, r3, #1
 c1018f0:	e0633002 	rsb	r3, r3, r2
 c1018f4:	e20330ff 	and	r3, r3, #255	; 0xff
 c1018f8:	e2833030 	add	r3, r3, #48	; 0x30
 c1018fc:	e20330ff 	and	r3, r3, #255	; 0xff
 c101900:	e5c03000 	strb	r3, [r0]
 c101904:	e51b3018 	ldr	r3, [fp, #-24]	; 0xffffffe8
 c101908:	e2833001 	add	r3, r3, #1
 c10190c:	e50b3018 	str	r3, [fp, #-24]	; 0xffffffe8
	buffer[pos++] = ':';
 c101910:	e51b3018 	ldr	r3, [fp, #-24]	; 0xffffffe8
 c101914:	e51b2028 	ldr	r2, [fp, #-40]	; 0xffffffd8
 c101918:	e0823003 	add	r3, r2, r3
 c10191c:	e3a0203a 	mov	r2, #58	; 0x3a
 c101920:	e5c32000 	strb	r2, [r3]
 c101924:	e51b3018 	ldr	r3, [fp, #-24]	; 0xffffffe8
 c101928:	e2833001 	add	r3, r3, #1
 c10192c:	e50b3018 	str	r3, [fp, #-24]	; 0xffffffe8

// Segundos
	buffer[pos++] = '0' + (tiempoActual.sec / 10); // Primer dígito de los segundos
 c101930:	e51b3018 	ldr	r3, [fp, #-24]	; 0xffffffe8
 c101934:	e51b2028 	ldr	r2, [fp, #-40]	; 0xffffffd8
 c101938:	e0823003 	add	r3, r2, r3
 c10193c:	e55b1024 	ldrb	r1, [fp, #-36]	; 0xffffffdc
 c101940:	e59f208c 	ldr	r2, [pc, #140]	; c1019d4 <convertirFechaHora+0x564>
 c101944:	e0820291 	umull	r0, r2, r1, r2
 c101948:	e1a021a2 	lsr	r2, r2, #3
 c10194c:	e20220ff 	and	r2, r2, #255	; 0xff
 c101950:	e2822030 	add	r2, r2, #48	; 0x30
 c101954:	e20220ff 	and	r2, r2, #255	; 0xff
 c101958:	e5c32000 	strb	r2, [r3]
 c10195c:	e51b3018 	ldr	r3, [fp, #-24]	; 0xffffffe8
 c101960:	e2833001 	add	r3, r3, #1
 c101964:	e50b3018 	str	r3, [fp, #-24]	; 0xffffffe8
	buffer[pos++] = '0' + (tiempoActual.sec % 10); // Segundo dígito de los segundos
 c101968:	e51b3018 	ldr	r3, [fp, #-24]	; 0xffffffe8
 c10196c:	e51b2028 	ldr	r2, [fp, #-40]	; 0xffffffd8
 c101970:	e0820003 	add	r0, r2, r3
 c101974:	e55b2024 	ldrb	r2, [fp, #-36]	; 0xffffffdc
 c101978:	e59f3054 	ldr	r3, [pc, #84]	; c1019d4 <convertirFechaHora+0x564>
 c10197c:	e0831392 	umull	r1, r3, r2, r3
 c101980:	e1a011a3 	lsr	r1, r3, #3
 c101984:	e1a03001 	mov	r3, r1
 c101988:	e1a03103 	lsl	r3, r3, #2
 c10198c:	e0833001 	add	r3, r3, r1
 c101990:	e1a03083 	lsl	r3, r3, #1
 c101994:	e0633002 	rsb	r3, r3, r2
 c101998:	e20330ff 	and	r3, r3, #255	; 0xff
 c10199c:	e2833030 	add	r3, r3, #48	; 0x30
 c1019a0:	e20330ff 	and	r3, r3, #255	; 0xff
 c1019a4:	e5c03000 	strb	r3, [r0]
 c1019a8:	e51b3018 	ldr	r3, [fp, #-24]	; 0xffffffe8
 c1019ac:	e2833001 	add	r3, r3, #1
 c1019b0:	e50b3018 	str	r3, [fp, #-24]	; 0xffffffe8

// Terminar la cadena
	buffer[pos] = '\0';
 c1019b4:	e51b3018 	ldr	r3, [fp, #-24]	; 0xffffffe8
 c1019b8:	e51b2028 	ldr	r2, [fp, #-40]	; 0xffffffd8
 c1019bc:	e0823003 	add	r3, r2, r3
 c1019c0:	e3a02000 	mov	r2, #0
 c1019c4:	e5c32000 	strb	r2, [r3]
}
 c1019c8:	e24bd00c 	sub	sp, fp, #12
 c1019cc:	e89d6800 	ldm	sp, {fp, sp, lr}
 c1019d0:	e12fff1e 	bx	lr
 c1019d4:	cccccccd 	.word	0xcccccccd
 c1019d8:	51eb851f 	.word	0x51eb851f

0c1019dc <plotSelectionScreen>:

void plotSelectionScreen(void) {
 c1019dc:	e1a0c00d 	mov	ip, sp
 c1019e0:	e92dd800 	push	{fp, ip, lr, pc}
 c1019e4:	e24cb004 	sub	fp, ip, #4
 c1019e8:	e24dd010 	sub	sp, sp, #16

	if (parking.espanol) {
 c1019ec:	e59f3238 	ldr	r3, [pc, #568]	; c101c2c <plotSelectionScreen+0x250>
 c1019f0:	e5d33042 	ldrb	r3, [r3, #66]	; 0x42
 c1019f4:	e3530000 	cmp	r3, #0
 c1019f8:	0a000005 	beq	c101a14 <plotSelectionScreen+0x38>
		lcd_puts_x2(20, 35, BLACK, "Selecciona plaza");
 c1019fc:	e3a00014 	mov	r0, #20
 c101a00:	e3a01023 	mov	r1, #35	; 0x23
 c101a04:	e3a0200f 	mov	r2, #15
 c101a08:	e59f3220 	ldr	r3, [pc, #544]	; c101c30 <plotSelectionScreen+0x254>
 c101a0c:	eb000d46 	bl	c104f2c <lcd_puts_x2>
 c101a10:	ea000004 	b	c101a28 <plotSelectionScreen+0x4c>
	} else {
		lcd_puts_x2(20, 35, BLACK, "Select place");
 c101a14:	e3a00014 	mov	r0, #20
 c101a18:	e3a01023 	mov	r1, #35	; 0x23
 c101a1c:	e3a0200f 	mov	r2, #15
 c101a20:	e59f320c 	ldr	r3, [pc, #524]	; c101c34 <plotSelectionScreen+0x258>
 c101a24:	eb000d40 	bl	c104f2c <lcd_puts_x2>
	}
	lcd_draw_box(0, 80, 79, 139, BLACK, 1); /* Pinta cuadricula */
 c101a28:	e3a0300f 	mov	r3, #15
 c101a2c:	e58d3000 	str	r3, [sp]
 c101a30:	e3a03001 	mov	r3, #1
 c101a34:	e58d3004 	str	r3, [sp, #4]
 c101a38:	e3a00000 	mov	r0, #0
 c101a3c:	e3a01050 	mov	r1, #80	; 0x50
 c101a40:	e3a0204f 	mov	r2, #79	; 0x4f
 c101a44:	e3a0308b 	mov	r3, #139	; 0x8b
 c101a48:	eb000b03 	bl	c10465c <lcd_draw_box>
	lcd_draw_box(79, 80, 159, 139, BLACK, 1);
 c101a4c:	e3a0300f 	mov	r3, #15
 c101a50:	e58d3000 	str	r3, [sp]
 c101a54:	e3a03001 	mov	r3, #1
 c101a58:	e58d3004 	str	r3, [sp, #4]
 c101a5c:	e3a0004f 	mov	r0, #79	; 0x4f
 c101a60:	e3a01050 	mov	r1, #80	; 0x50
 c101a64:	e3a0209f 	mov	r2, #159	; 0x9f
 c101a68:	e3a0308b 	mov	r3, #139	; 0x8b
 c101a6c:	eb000afa 	bl	c10465c <lcd_draw_box>
	lcd_draw_box(159, 80, 239, 139, BLACK, 1);
 c101a70:	e3a0300f 	mov	r3, #15
 c101a74:	e58d3000 	str	r3, [sp]
 c101a78:	e3a03001 	mov	r3, #1
 c101a7c:	e58d3004 	str	r3, [sp, #4]
 c101a80:	e3a0009f 	mov	r0, #159	; 0x9f
 c101a84:	e3a01050 	mov	r1, #80	; 0x50
 c101a88:	e3a020ef 	mov	r2, #239	; 0xef
 c101a8c:	e3a0308b 	mov	r3, #139	; 0x8b
 c101a90:	eb000af1 	bl	c10465c <lcd_draw_box>
	lcd_draw_box(239, 80, 319, 139, BLACK, 1);
 c101a94:	e3a0300f 	mov	r3, #15
 c101a98:	e58d3000 	str	r3, [sp]
 c101a9c:	e3a03001 	mov	r3, #1
 c101aa0:	e58d3004 	str	r3, [sp, #4]
 c101aa4:	e3a000ef 	mov	r0, #239	; 0xef
 c101aa8:	e3a01050 	mov	r1, #80	; 0x50
 c101aac:	e59f2184 	ldr	r2, [pc, #388]	; c101c38 <plotSelectionScreen+0x25c>
 c101ab0:	e3a0308b 	mov	r3, #139	; 0x8b
 c101ab4:	eb000ae8 	bl	c10465c <lcd_draw_box>
	lcd_draw_box(0, 139, 79, 199, BLACK, 1);
 c101ab8:	e3a0300f 	mov	r3, #15
 c101abc:	e58d3000 	str	r3, [sp]
 c101ac0:	e3a03001 	mov	r3, #1
 c101ac4:	e58d3004 	str	r3, [sp, #4]
 c101ac8:	e3a00000 	mov	r0, #0
 c101acc:	e3a0108b 	mov	r1, #139	; 0x8b
 c101ad0:	e3a0204f 	mov	r2, #79	; 0x4f
 c101ad4:	e3a030c7 	mov	r3, #199	; 0xc7
 c101ad8:	eb000adf 	bl	c10465c <lcd_draw_box>
	lcd_draw_box(79, 139, 159, 199, BLACK, 1);
 c101adc:	e3a0300f 	mov	r3, #15
 c101ae0:	e58d3000 	str	r3, [sp]
 c101ae4:	e3a03001 	mov	r3, #1
 c101ae8:	e58d3004 	str	r3, [sp, #4]
 c101aec:	e3a0004f 	mov	r0, #79	; 0x4f
 c101af0:	e3a0108b 	mov	r1, #139	; 0x8b
 c101af4:	e3a0209f 	mov	r2, #159	; 0x9f
 c101af8:	e3a030c7 	mov	r3, #199	; 0xc7
 c101afc:	eb000ad6 	bl	c10465c <lcd_draw_box>
	lcd_draw_box(159, 139, 239, 199, BLACK, 1);
 c101b00:	e3a0300f 	mov	r3, #15
 c101b04:	e58d3000 	str	r3, [sp]
 c101b08:	e3a03001 	mov	r3, #1
 c101b0c:	e58d3004 	str	r3, [sp, #4]
 c101b10:	e3a0009f 	mov	r0, #159	; 0x9f
 c101b14:	e3a0108b 	mov	r1, #139	; 0x8b
 c101b18:	e3a020ef 	mov	r2, #239	; 0xef
 c101b1c:	e3a030c7 	mov	r3, #199	; 0xc7
 c101b20:	eb000acd 	bl	c10465c <lcd_draw_box>
	lcd_draw_box(239, 139, 319, 199, BLACK, 1);
 c101b24:	e3a0300f 	mov	r3, #15
 c101b28:	e58d3000 	str	r3, [sp]
 c101b2c:	e3a03001 	mov	r3, #1
 c101b30:	e58d3004 	str	r3, [sp, #4]
 c101b34:	e3a000ef 	mov	r0, #239	; 0xef
 c101b38:	e3a0108b 	mov	r1, #139	; 0x8b
 c101b3c:	e59f20f4 	ldr	r2, [pc, #244]	; c101c38 <plotSelectionScreen+0x25c>
 c101b40:	e3a030c7 	mov	r3, #199	; 0xc7
 c101b44:	eb000ac4 	bl	c10465c <lcd_draw_box>

	uint16 COL = 86;
 c101b48:	e3a03056 	mov	r3, #86	; 0x56
 c101b4c:	e14b30be 	strh	r3, [fp, #-14]
	uint8 i;
	uint8 plaza = 1;
 c101b50:	e3a03001 	mov	r3, #1
 c101b54:	e54b3010 	strb	r3, [fp, #-16]
	for (i = 0; i < 2; i++) {
 c101b58:	e3a03000 	mov	r3, #0
 c101b5c:	e54b300f 	strb	r3, [fp, #-15]
 c101b60:	ea00002b 	b	c101c14 <plotSelectionScreen+0x238>
		uint8 j;
		uint16 FILA = 32;
 c101b64:	e3a03020 	mov	r3, #32
 c101b68:	e14b31b4 	strh	r3, [fp, #-20]	; 0xffffffec
		for (j = 0; j < 4; j++) {
 c101b6c:	e3a03000 	mov	r3, #0
 c101b70:	e54b3011 	strb	r3, [fp, #-17]	; 0xffffffef
 c101b74:	ea00001d 	b	c101bf0 <plotSelectionScreen+0x214>
			if (!parking.plaza[plaza - 1].occupied) {
 c101b78:	e55b3010 	ldrb	r3, [fp, #-16]
 c101b7c:	e2432001 	sub	r2, r3, #1
 c101b80:	e59f30a4 	ldr	r3, [pc, #164]	; c101c2c <plotSelectionScreen+0x250>
 c101b84:	e7d33182 	ldrb	r3, [r3, r2, lsl #3]
 c101b88:	e3530000 	cmp	r3, #0
 c101b8c:	1a000007 	bne	c101bb0 <plotSelectionScreen+0x1d4>
				lcd_putint_x2(FILA, COL, BLACK, plaza);
 c101b90:	e55b3010 	ldrb	r3, [fp, #-16]
 c101b94:	e15b11b4 	ldrh	r1, [fp, #-20]	; 0xffffffec
 c101b98:	e15b20be 	ldrh	r2, [fp, #-14]
 c101b9c:	e1a00001 	mov	r0, r1
 c101ba0:	e1a01002 	mov	r1, r2
 c101ba4:	e3a0200f 	mov	r2, #15
 c101ba8:	eb000cfc 	bl	c104fa0 <lcd_putint_x2>
 c101bac:	ea000006 	b	c101bcc <plotSelectionScreen+0x1f0>
			} else {
				lcd_putchar_x2(FILA, COL, BLACK, 'X');
 c101bb0:	e15b21b4 	ldrh	r2, [fp, #-20]	; 0xffffffec
 c101bb4:	e15b30be 	ldrh	r3, [fp, #-14]
 c101bb8:	e1a00002 	mov	r0, r2
 c101bbc:	e1a01003 	mov	r1, r3
 c101bc0:	e3a0200f 	mov	r2, #15
 c101bc4:	e3a03058 	mov	r3, #88	; 0x58
 c101bc8:	eb000c34 	bl	c104ca0 <lcd_putchar_x2>
			}
			FILA += 80;
 c101bcc:	e15b31b4 	ldrh	r3, [fp, #-20]	; 0xffffffec
 c101bd0:	e2833050 	add	r3, r3, #80	; 0x50
 c101bd4:	e14b31b4 	strh	r3, [fp, #-20]	; 0xffffffec
			plaza++;
 c101bd8:	e55b3010 	ldrb	r3, [fp, #-16]
 c101bdc:	e2833001 	add	r3, r3, #1
 c101be0:	e54b3010 	strb	r3, [fp, #-16]
	uint8 i;
	uint8 plaza = 1;
	for (i = 0; i < 2; i++) {
		uint8 j;
		uint16 FILA = 32;
		for (j = 0; j < 4; j++) {
 c101be4:	e55b3011 	ldrb	r3, [fp, #-17]	; 0xffffffef
 c101be8:	e2833001 	add	r3, r3, #1
 c101bec:	e54b3011 	strb	r3, [fp, #-17]	; 0xffffffef
 c101bf0:	e55b3011 	ldrb	r3, [fp, #-17]	; 0xffffffef
 c101bf4:	e3530003 	cmp	r3, #3
 c101bf8:	9affffde 	bls	c101b78 <plotSelectionScreen+0x19c>
				lcd_putchar_x2(FILA, COL, BLACK, 'X');
			}
			FILA += 80;
			plaza++;
		}
		COL += 60;
 c101bfc:	e15b30be 	ldrh	r3, [fp, #-14]
 c101c00:	e283303c 	add	r3, r3, #60	; 0x3c
 c101c04:	e14b30be 	strh	r3, [fp, #-14]
	lcd_draw_box(239, 139, 319, 199, BLACK, 1);

	uint16 COL = 86;
	uint8 i;
	uint8 plaza = 1;
	for (i = 0; i < 2; i++) {
 c101c08:	e55b300f 	ldrb	r3, [fp, #-15]
 c101c0c:	e2833001 	add	r3, r3, #1
 c101c10:	e54b300f 	strb	r3, [fp, #-15]
 c101c14:	e55b300f 	ldrb	r3, [fp, #-15]
 c101c18:	e3530001 	cmp	r3, #1
 c101c1c:	9affffd0 	bls	c101b64 <plotSelectionScreen+0x188>
			FILA += 80;
			plaza++;
		}
		COL += 60;
	}
}
 c101c20:	e24bd00c 	sub	sp, fp, #12
 c101c24:	e89d6800 	ldm	sp, {fp, sp, lr}
 c101c28:	e12fff1e 	bx	lr
 c101c2c:	0c115818 	.word	0x0c115818
 c101c30:	0c10a538 	.word	0x0c10a538
 c101c34:	0c10a54c 	.word	0x0c10a54c
 c101c38:	0000013f 	.word	0x0000013f

0c101c3c <idiomaSeleccionado>:

void idiomaSeleccionado(void) {
 c101c3c:	e1a0c00d 	mov	ip, sp
 c101c40:	e92dd800 	push	{fp, ip, lr, pc}
 c101c44:	e24cb004 	sub	fp, ip, #4

	if (tsPressedMsg.x > 0 && tsPressedMsg.y > 80 && tsPressedMsg.x < 150
 c101c48:	e59f30a4 	ldr	r3, [pc, #164]	; c101cf4 <idiomaSeleccionado+0xb8>
 c101c4c:	e1d330b2 	ldrh	r3, [r3, #2]
 c101c50:	e3530000 	cmp	r3, #0
 c101c54:	0a00000f 	beq	c101c98 <idiomaSeleccionado+0x5c>
 c101c58:	e59f3094 	ldr	r3, [pc, #148]	; c101cf4 <idiomaSeleccionado+0xb8>
 c101c5c:	e1d330b4 	ldrh	r3, [r3, #4]
 c101c60:	e3530050 	cmp	r3, #80	; 0x50
 c101c64:	9a00000b 	bls	c101c98 <idiomaSeleccionado+0x5c>
 c101c68:	e59f3084 	ldr	r3, [pc, #132]	; c101cf4 <idiomaSeleccionado+0xb8>
 c101c6c:	e1d330b2 	ldrh	r3, [r3, #2]
 c101c70:	e3530095 	cmp	r3, #149	; 0x95
 c101c74:	8a000007 	bhi	c101c98 <idiomaSeleccionado+0x5c>
			&& tsPressedMsg.y < 150) {
 c101c78:	e59f3074 	ldr	r3, [pc, #116]	; c101cf4 <idiomaSeleccionado+0xb8>
 c101c7c:	e1d330b4 	ldrh	r3, [r3, #4]
 c101c80:	e3530095 	cmp	r3, #149	; 0x95
 c101c84:	8a000003 	bhi	c101c98 <idiomaSeleccionado+0x5c>
		parking.espanol = TRUE;
 c101c88:	e59f3068 	ldr	r3, [pc, #104]	; c101cf8 <idiomaSeleccionado+0xbc>
 c101c8c:	e3a02001 	mov	r2, #1
 c101c90:	e5c32042 	strb	r2, [r3, #66]	; 0x42
 c101c94:	ea000013 	b	c101ce8 <idiomaSeleccionado+0xac>
	} else if (tsPressedMsg.x > 160 && tsPressedMsg.y > 80
 c101c98:	e59f3054 	ldr	r3, [pc, #84]	; c101cf4 <idiomaSeleccionado+0xb8>
 c101c9c:	e1d330b2 	ldrh	r3, [r3, #2]
 c101ca0:	e35300a0 	cmp	r3, #160	; 0xa0
 c101ca4:	9a00000f 	bls	c101ce8 <idiomaSeleccionado+0xac>
 c101ca8:	e59f3044 	ldr	r3, [pc, #68]	; c101cf4 <idiomaSeleccionado+0xb8>
 c101cac:	e1d330b4 	ldrh	r3, [r3, #4]
 c101cb0:	e3530050 	cmp	r3, #80	; 0x50
 c101cb4:	9a00000b 	bls	c101ce8 <idiomaSeleccionado+0xac>
			&& tsPressedMsg.x < 319 && tsPressedMsg.y < 150) {
 c101cb8:	e59f3034 	ldr	r3, [pc, #52]	; c101cf4 <idiomaSeleccionado+0xb8>
 c101cbc:	e1d320b2 	ldrh	r2, [r3, #2]
 c101cc0:	e59f3034 	ldr	r3, [pc, #52]	; c101cfc <idiomaSeleccionado+0xc0>
 c101cc4:	e1520003 	cmp	r2, r3
 c101cc8:	8a000006 	bhi	c101ce8 <idiomaSeleccionado+0xac>
 c101ccc:	e59f3020 	ldr	r3, [pc, #32]	; c101cf4 <idiomaSeleccionado+0xb8>
 c101cd0:	e1d330b4 	ldrh	r3, [r3, #4]
 c101cd4:	e3530095 	cmp	r3, #149	; 0x95
 c101cd8:	8a000002 	bhi	c101ce8 <idiomaSeleccionado+0xac>
		parking.espanol = FALSE;
 c101cdc:	e59f3014 	ldr	r3, [pc, #20]	; c101cf8 <idiomaSeleccionado+0xbc>
 c101ce0:	e3a02000 	mov	r2, #0
 c101ce4:	e5c32042 	strb	r2, [r3, #66]	; 0x42
	}
}
 c101ce8:	e24bd00c 	sub	sp, fp, #12
 c101cec:	e89d6800 	ldm	sp, {fp, sp, lr}
 c101cf0:	e12fff1e 	bx	lr
 c101cf4:	0c115808 	.word	0x0c115808
 c101cf8:	0c115818 	.word	0x0c115818
 c101cfc:	0000013e 	.word	0x0000013e

0c101d00 <idiomaScreen>:

void idiomaScreen(void) {
 c101d00:	e1a0c00d 	mov	ip, sp
 c101d04:	e92dd800 	push	{fp, ip, lr, pc}
 c101d08:	e24cb004 	sub	fp, ip, #4

	lcd_puts_x2(20, 100, BLACK, "ESPANOL");
 c101d0c:	e3a00014 	mov	r0, #20
 c101d10:	e3a01064 	mov	r1, #100	; 0x64
 c101d14:	e3a0200f 	mov	r2, #15
 c101d18:	e59f3034 	ldr	r3, [pc, #52]	; c101d54 <idiomaScreen+0x54>
 c101d1c:	eb000c82 	bl	c104f2c <lcd_puts_x2>
	lcd_puts_x2(150, 100, BLACK, "||");
 c101d20:	e3a00096 	mov	r0, #150	; 0x96
 c101d24:	e3a01064 	mov	r1, #100	; 0x64
 c101d28:	e3a0200f 	mov	r2, #15
 c101d2c:	e59f3024 	ldr	r3, [pc, #36]	; c101d58 <idiomaScreen+0x58>
 c101d30:	eb000c7d 	bl	c104f2c <lcd_puts_x2>
	lcd_puts_x2(200, 100, BLACK, "ENGLISH");
 c101d34:	e3a000c8 	mov	r0, #200	; 0xc8
 c101d38:	e3a01064 	mov	r1, #100	; 0x64
 c101d3c:	e3a0200f 	mov	r2, #15
 c101d40:	e59f3014 	ldr	r3, [pc, #20]	; c101d5c <idiomaScreen+0x5c>
 c101d44:	eb000c78 	bl	c104f2c <lcd_puts_x2>
}
 c101d48:	e24bd00c 	sub	sp, fp, #12
 c101d4c:	e89d6800 	ldm	sp, {fp, sp, lr}
 c101d50:	e12fff1e 	bx	lr
 c101d54:	0c10a55c 	.word	0x0c10a55c
 c101d58:	0c10a564 	.word	0x0c10a564
 c101d5c:	0c10a568 	.word	0x0c10a568

0c101d60 <plazaSeleccionada>:

uint8 plazaSeleccionada(void) { //Función que devuelve que plaza ha sido pulsada
 c101d60:	e1a0c00d 	mov	ip, sp
 c101d64:	e92dd800 	push	{fp, ip, lr, pc}
 c101d68:	e24cb004 	sub	fp, ip, #4
 c101d6c:	e24dd008 	sub	sp, sp, #8

	uint8 sol;

	if (tsPressedMsg.x > 0 && tsPressedMsg.y > 80 && tsPressedMsg.x < 79
 c101d70:	e59f3270 	ldr	r3, [pc, #624]	; c101fe8 <plazaSeleccionada+0x288>
 c101d74:	e1d330b2 	ldrh	r3, [r3, #2]
 c101d78:	e3530000 	cmp	r3, #0
 c101d7c:	0a00000e 	beq	c101dbc <plazaSeleccionada+0x5c>
 c101d80:	e59f3260 	ldr	r3, [pc, #608]	; c101fe8 <plazaSeleccionada+0x288>
 c101d84:	e1d330b4 	ldrh	r3, [r3, #4]
 c101d88:	e3530050 	cmp	r3, #80	; 0x50
 c101d8c:	9a00000a 	bls	c101dbc <plazaSeleccionada+0x5c>
 c101d90:	e59f3250 	ldr	r3, [pc, #592]	; c101fe8 <plazaSeleccionada+0x288>
 c101d94:	e1d330b2 	ldrh	r3, [r3, #2]
 c101d98:	e353004e 	cmp	r3, #78	; 0x4e
 c101d9c:	8a000006 	bhi	c101dbc <plazaSeleccionada+0x5c>
			&& tsPressedMsg.y < 139) {
 c101da0:	e59f3240 	ldr	r3, [pc, #576]	; c101fe8 <plazaSeleccionada+0x288>
 c101da4:	e1d330b4 	ldrh	r3, [r3, #4]
 c101da8:	e353008a 	cmp	r3, #138	; 0x8a
 c101dac:	8a000002 	bhi	c101dbc <plazaSeleccionada+0x5c>
		sol = 1;
 c101db0:	e3a03001 	mov	r3, #1
 c101db4:	e54b300d 	strb	r3, [fp, #-13]
 c101db8:	ea000085 	b	c101fd4 <plazaSeleccionada+0x274>
	} else if (tsPressedMsg.x > 79 && tsPressedMsg.y > 80
 c101dbc:	e59f3224 	ldr	r3, [pc, #548]	; c101fe8 <plazaSeleccionada+0x288>
 c101dc0:	e1d330b2 	ldrh	r3, [r3, #2]
 c101dc4:	e353004f 	cmp	r3, #79	; 0x4f
 c101dc8:	9a00000e 	bls	c101e08 <plazaSeleccionada+0xa8>
 c101dcc:	e59f3214 	ldr	r3, [pc, #532]	; c101fe8 <plazaSeleccionada+0x288>
 c101dd0:	e1d330b4 	ldrh	r3, [r3, #4]
 c101dd4:	e3530050 	cmp	r3, #80	; 0x50
 c101dd8:	9a00000a 	bls	c101e08 <plazaSeleccionada+0xa8>
			&& tsPressedMsg.x < 159 && tsPressedMsg.y < 139) {
 c101ddc:	e59f3204 	ldr	r3, [pc, #516]	; c101fe8 <plazaSeleccionada+0x288>
 c101de0:	e1d330b2 	ldrh	r3, [r3, #2]
 c101de4:	e353009e 	cmp	r3, #158	; 0x9e
 c101de8:	8a000006 	bhi	c101e08 <plazaSeleccionada+0xa8>
 c101dec:	e59f31f4 	ldr	r3, [pc, #500]	; c101fe8 <plazaSeleccionada+0x288>
 c101df0:	e1d330b4 	ldrh	r3, [r3, #4]
 c101df4:	e353008a 	cmp	r3, #138	; 0x8a
 c101df8:	8a000002 	bhi	c101e08 <plazaSeleccionada+0xa8>
		sol = 2;
 c101dfc:	e3a03002 	mov	r3, #2
 c101e00:	e54b300d 	strb	r3, [fp, #-13]
 c101e04:	ea000072 	b	c101fd4 <plazaSeleccionada+0x274>
	} else if (tsPressedMsg.x > 159 && tsPressedMsg.y > 80
 c101e08:	e59f31d8 	ldr	r3, [pc, #472]	; c101fe8 <plazaSeleccionada+0x288>
 c101e0c:	e1d330b2 	ldrh	r3, [r3, #2]
 c101e10:	e353009f 	cmp	r3, #159	; 0x9f
 c101e14:	9a00000e 	bls	c101e54 <plazaSeleccionada+0xf4>
 c101e18:	e59f31c8 	ldr	r3, [pc, #456]	; c101fe8 <plazaSeleccionada+0x288>
 c101e1c:	e1d330b4 	ldrh	r3, [r3, #4]
 c101e20:	e3530050 	cmp	r3, #80	; 0x50
 c101e24:	9a00000a 	bls	c101e54 <plazaSeleccionada+0xf4>
			&& tsPressedMsg.x < 239 && tsPressedMsg.y < 139) {
 c101e28:	e59f31b8 	ldr	r3, [pc, #440]	; c101fe8 <plazaSeleccionada+0x288>
 c101e2c:	e1d330b2 	ldrh	r3, [r3, #2]
 c101e30:	e35300ee 	cmp	r3, #238	; 0xee
 c101e34:	8a000006 	bhi	c101e54 <plazaSeleccionada+0xf4>
 c101e38:	e59f31a8 	ldr	r3, [pc, #424]	; c101fe8 <plazaSeleccionada+0x288>
 c101e3c:	e1d330b4 	ldrh	r3, [r3, #4]
 c101e40:	e353008a 	cmp	r3, #138	; 0x8a
 c101e44:	8a000002 	bhi	c101e54 <plazaSeleccionada+0xf4>
		sol = 3;
 c101e48:	e3a03003 	mov	r3, #3
 c101e4c:	e54b300d 	strb	r3, [fp, #-13]
 c101e50:	ea00005f 	b	c101fd4 <plazaSeleccionada+0x274>
	} else if (tsPressedMsg.x > 239 && tsPressedMsg.y > 80
 c101e54:	e59f318c 	ldr	r3, [pc, #396]	; c101fe8 <plazaSeleccionada+0x288>
 c101e58:	e1d330b2 	ldrh	r3, [r3, #2]
 c101e5c:	e35300ef 	cmp	r3, #239	; 0xef
 c101e60:	9a00000f 	bls	c101ea4 <plazaSeleccionada+0x144>
 c101e64:	e59f317c 	ldr	r3, [pc, #380]	; c101fe8 <plazaSeleccionada+0x288>
 c101e68:	e1d330b4 	ldrh	r3, [r3, #4]
 c101e6c:	e3530050 	cmp	r3, #80	; 0x50
 c101e70:	9a00000b 	bls	c101ea4 <plazaSeleccionada+0x144>
			&& tsPressedMsg.x < 319 && tsPressedMsg.y < 139) {
 c101e74:	e59f316c 	ldr	r3, [pc, #364]	; c101fe8 <plazaSeleccionada+0x288>
 c101e78:	e1d320b2 	ldrh	r2, [r3, #2]
 c101e7c:	e59f3168 	ldr	r3, [pc, #360]	; c101fec <plazaSeleccionada+0x28c>
 c101e80:	e1520003 	cmp	r2, r3
 c101e84:	8a000006 	bhi	c101ea4 <plazaSeleccionada+0x144>
 c101e88:	e59f3158 	ldr	r3, [pc, #344]	; c101fe8 <plazaSeleccionada+0x288>
 c101e8c:	e1d330b4 	ldrh	r3, [r3, #4]
 c101e90:	e353008a 	cmp	r3, #138	; 0x8a
 c101e94:	8a000002 	bhi	c101ea4 <plazaSeleccionada+0x144>
		sol = 4;
 c101e98:	e3a03004 	mov	r3, #4
 c101e9c:	e54b300d 	strb	r3, [fp, #-13]
 c101ea0:	ea00004b 	b	c101fd4 <plazaSeleccionada+0x274>
	} else if (tsPressedMsg.x > 0 && tsPressedMsg.y > 139 && tsPressedMsg.x < 79
 c101ea4:	e59f313c 	ldr	r3, [pc, #316]	; c101fe8 <plazaSeleccionada+0x288>
 c101ea8:	e1d330b2 	ldrh	r3, [r3, #2]
 c101eac:	e3530000 	cmp	r3, #0
 c101eb0:	0a00000e 	beq	c101ef0 <plazaSeleccionada+0x190>
 c101eb4:	e59f312c 	ldr	r3, [pc, #300]	; c101fe8 <plazaSeleccionada+0x288>
 c101eb8:	e1d330b4 	ldrh	r3, [r3, #4]
 c101ebc:	e353008b 	cmp	r3, #139	; 0x8b
 c101ec0:	9a00000a 	bls	c101ef0 <plazaSeleccionada+0x190>
 c101ec4:	e59f311c 	ldr	r3, [pc, #284]	; c101fe8 <plazaSeleccionada+0x288>
 c101ec8:	e1d330b2 	ldrh	r3, [r3, #2]
 c101ecc:	e353004e 	cmp	r3, #78	; 0x4e
 c101ed0:	8a000006 	bhi	c101ef0 <plazaSeleccionada+0x190>
			&& tsPressedMsg.y < 199) {
 c101ed4:	e59f310c 	ldr	r3, [pc, #268]	; c101fe8 <plazaSeleccionada+0x288>
 c101ed8:	e1d330b4 	ldrh	r3, [r3, #4]
 c101edc:	e35300c6 	cmp	r3, #198	; 0xc6
 c101ee0:	8a000002 	bhi	c101ef0 <plazaSeleccionada+0x190>
		sol = 5;
 c101ee4:	e3a03005 	mov	r3, #5
 c101ee8:	e54b300d 	strb	r3, [fp, #-13]
 c101eec:	ea000038 	b	c101fd4 <plazaSeleccionada+0x274>
	} else if (tsPressedMsg.x > 79 && tsPressedMsg.y > 139
 c101ef0:	e59f30f0 	ldr	r3, [pc, #240]	; c101fe8 <plazaSeleccionada+0x288>
 c101ef4:	e1d330b2 	ldrh	r3, [r3, #2]
 c101ef8:	e353004f 	cmp	r3, #79	; 0x4f
 c101efc:	9a00000e 	bls	c101f3c <plazaSeleccionada+0x1dc>
 c101f00:	e59f30e0 	ldr	r3, [pc, #224]	; c101fe8 <plazaSeleccionada+0x288>
 c101f04:	e1d330b4 	ldrh	r3, [r3, #4]
 c101f08:	e353008b 	cmp	r3, #139	; 0x8b
 c101f0c:	9a00000a 	bls	c101f3c <plazaSeleccionada+0x1dc>
			&& tsPressedMsg.x < 159 && tsPressedMsg.y < 199) {
 c101f10:	e59f30d0 	ldr	r3, [pc, #208]	; c101fe8 <plazaSeleccionada+0x288>
 c101f14:	e1d330b2 	ldrh	r3, [r3, #2]
 c101f18:	e353009e 	cmp	r3, #158	; 0x9e
 c101f1c:	8a000006 	bhi	c101f3c <plazaSeleccionada+0x1dc>
 c101f20:	e59f30c0 	ldr	r3, [pc, #192]	; c101fe8 <plazaSeleccionada+0x288>
 c101f24:	e1d330b4 	ldrh	r3, [r3, #4]
 c101f28:	e35300c6 	cmp	r3, #198	; 0xc6
 c101f2c:	8a000002 	bhi	c101f3c <plazaSeleccionada+0x1dc>
		sol = 6;
 c101f30:	e3a03006 	mov	r3, #6
 c101f34:	e54b300d 	strb	r3, [fp, #-13]
 c101f38:	ea000025 	b	c101fd4 <plazaSeleccionada+0x274>
	} else if (tsPressedMsg.x > 159 && tsPressedMsg.y > 139
 c101f3c:	e59f30a4 	ldr	r3, [pc, #164]	; c101fe8 <plazaSeleccionada+0x288>
 c101f40:	e1d330b2 	ldrh	r3, [r3, #2]
 c101f44:	e353009f 	cmp	r3, #159	; 0x9f
 c101f48:	9a00000e 	bls	c101f88 <plazaSeleccionada+0x228>
 c101f4c:	e59f3094 	ldr	r3, [pc, #148]	; c101fe8 <plazaSeleccionada+0x288>
 c101f50:	e1d330b4 	ldrh	r3, [r3, #4]
 c101f54:	e353008b 	cmp	r3, #139	; 0x8b
 c101f58:	9a00000a 	bls	c101f88 <plazaSeleccionada+0x228>
			&& tsPressedMsg.x < 239 && tsPressedMsg.y < 199) {
 c101f5c:	e59f3084 	ldr	r3, [pc, #132]	; c101fe8 <plazaSeleccionada+0x288>
 c101f60:	e1d330b2 	ldrh	r3, [r3, #2]
 c101f64:	e35300ee 	cmp	r3, #238	; 0xee
 c101f68:	8a000006 	bhi	c101f88 <plazaSeleccionada+0x228>
 c101f6c:	e59f3074 	ldr	r3, [pc, #116]	; c101fe8 <plazaSeleccionada+0x288>
 c101f70:	e1d330b4 	ldrh	r3, [r3, #4]
 c101f74:	e35300c6 	cmp	r3, #198	; 0xc6
 c101f78:	8a000002 	bhi	c101f88 <plazaSeleccionada+0x228>
		sol = 7;
 c101f7c:	e3a03007 	mov	r3, #7
 c101f80:	e54b300d 	strb	r3, [fp, #-13]
 c101f84:	ea000012 	b	c101fd4 <plazaSeleccionada+0x274>
	} else if (tsPressedMsg.x > 239 && tsPressedMsg.y > 139
 c101f88:	e59f3058 	ldr	r3, [pc, #88]	; c101fe8 <plazaSeleccionada+0x288>
 c101f8c:	e1d330b2 	ldrh	r3, [r3, #2]
 c101f90:	e35300ef 	cmp	r3, #239	; 0xef
 c101f94:	9a00000e 	bls	c101fd4 <plazaSeleccionada+0x274>
 c101f98:	e59f3048 	ldr	r3, [pc, #72]	; c101fe8 <plazaSeleccionada+0x288>
 c101f9c:	e1d330b4 	ldrh	r3, [r3, #4]
 c101fa0:	e353008b 	cmp	r3, #139	; 0x8b
 c101fa4:	9a00000a 	bls	c101fd4 <plazaSeleccionada+0x274>
			&& tsPressedMsg.x < 319 && tsPressedMsg.y < 199) {
 c101fa8:	e59f3038 	ldr	r3, [pc, #56]	; c101fe8 <plazaSeleccionada+0x288>
 c101fac:	e1d320b2 	ldrh	r2, [r3, #2]
 c101fb0:	e59f3034 	ldr	r3, [pc, #52]	; c101fec <plazaSeleccionada+0x28c>
 c101fb4:	e1520003 	cmp	r2, r3
 c101fb8:	8a000005 	bhi	c101fd4 <plazaSeleccionada+0x274>
 c101fbc:	e59f3024 	ldr	r3, [pc, #36]	; c101fe8 <plazaSeleccionada+0x288>
 c101fc0:	e1d330b4 	ldrh	r3, [r3, #4]
 c101fc4:	e35300c6 	cmp	r3, #198	; 0xc6
 c101fc8:	8a000001 	bhi	c101fd4 <plazaSeleccionada+0x274>
		sol = 8;
 c101fcc:	e3a03008 	mov	r3, #8
 c101fd0:	e54b300d 	strb	r3, [fp, #-13]
	}
	return sol;
 c101fd4:	e55b300d 	ldrb	r3, [fp, #-13]
}
 c101fd8:	e1a00003 	mov	r0, r3
 c101fdc:	e24bd00c 	sub	sp, fp, #12
 c101fe0:	e89d6800 	ldm	sp, {fp, sp, lr}
 c101fe4:	e12fff1e 	bx	lr
 c101fe8:	0c115808 	.word	0x0c115808
 c101fec:	0000013e 	.word	0x0000013e

0c101ff0 <plotPaymentScreen>:

void plotPaymentScreen(uint16 credit) {
 c101ff0:	e1a0c00d 	mov	ip, sp
 c101ff4:	e92dd800 	push	{fp, ip, lr, pc}
 c101ff8:	e24cb004 	sub	fp, ip, #4
 c101ffc:	e24dd010 	sub	sp, sp, #16
 c102000:	e1a03000 	mov	r3, r0
 c102004:	e14b30be 	strh	r3, [fp, #-14]
	if (parking.espanol) {
 c102008:	e59f31f8 	ldr	r3, [pc, #504]	; c102208 <plotPaymentScreen+0x218>
 c10200c:	e5d33042 	ldrb	r3, [r3, #66]	; 0x42
 c102010:	e3530000 	cmp	r3, #0
 c102014:	0a00003c 	beq	c10210c <plotPaymentScreen+0x11c>
// Mostrar tarifas
		lcd_draw_box(0, 35, LCD_WIDTH - 1, 95, BLACK, 1); // Limpiar área
 c102018:	e3a0300f 	mov	r3, #15
 c10201c:	e58d3000 	str	r3, [sp]
 c102020:	e3a03001 	mov	r3, #1
 c102024:	e58d3004 	str	r3, [sp, #4]
 c102028:	e3a00000 	mov	r0, #0
 c10202c:	e3a01023 	mov	r1, #35	; 0x23
 c102030:	e59f21d4 	ldr	r2, [pc, #468]	; c10220c <plotPaymentScreen+0x21c>
 c102034:	e3a0305f 	mov	r3, #95	; 0x5f
 c102038:	eb000987 	bl	c10465c <lcd_draw_box>
		lcd_puts(110, 30, BLACK, "TARIFA:");
 c10203c:	e3a0006e 	mov	r0, #110	; 0x6e
 c102040:	e3a0101e 	mov	r1, #30
 c102044:	e3a0200f 	mov	r2, #15
 c102048:	e59f31c0 	ldr	r3, [pc, #448]	; c102210 <plotPaymentScreen+0x220>
 c10204c:	eb000a5f 	bl	c1049d0 <lcd_puts>
		lcd_puts(45, 45, BLACK, "Precio por minuto: 0,01");
 c102050:	e3a0002d 	mov	r0, #45	; 0x2d
 c102054:	e3a0102d 	mov	r1, #45	; 0x2d
 c102058:	e3a0200f 	mov	r2, #15
 c10205c:	e59f31b0 	ldr	r3, [pc, #432]	; c102214 <plotPaymentScreen+0x224>
 c102060:	eb000a5a 	bl	c1049d0 <lcd_puts>
		lcd_puts(35, 60, BLACK, "Estancia Minima: 20 minutos");
 c102064:	e3a00023 	mov	r0, #35	; 0x23
 c102068:	e3a0103c 	mov	r1, #60	; 0x3c
 c10206c:	e3a0200f 	mov	r2, #15
 c102070:	e59f31a0 	ldr	r3, [pc, #416]	; c102218 <plotPaymentScreen+0x228>
 c102074:	eb000a55 	bl	c1049d0 <lcd_puts>
		lcd_puts(35, 75, BLACK, "Estancia Maxima: 240 minutos");
 c102078:	e3a00023 	mov	r0, #35	; 0x23
 c10207c:	e3a0104b 	mov	r1, #75	; 0x4b
 c102080:	e3a0200f 	mov	r2, #15
 c102084:	e59f3190 	ldr	r3, [pc, #400]	; c10221c <plotPaymentScreen+0x22c>
 c102088:	eb000a50 	bl	c1049d0 <lcd_puts>

		lcd_puts_x2(80, 110, BLACK, "Plaza: ");
 c10208c:	e3a00050 	mov	r0, #80	; 0x50
 c102090:	e3a0106e 	mov	r1, #110	; 0x6e
 c102094:	e3a0200f 	mov	r2, #15
 c102098:	e59f3180 	ldr	r3, [pc, #384]	; c102220 <plotPaymentScreen+0x230>
 c10209c:	eb000ba2 	bl	c104f2c <lcd_puts_x2>
		lcd_putint_x2(200, 110, BLACK, plazaSelecc);
 c1020a0:	e59f317c 	ldr	r3, [pc, #380]	; c102224 <plotPaymentScreen+0x234>
 c1020a4:	e5d33000 	ldrb	r3, [r3]
 c1020a8:	e3a000c8 	mov	r0, #200	; 0xc8
 c1020ac:	e3a0106e 	mov	r1, #110	; 0x6e
 c1020b0:	e3a0200f 	mov	r2, #15
 c1020b4:	eb000bb9 	bl	c104fa0 <lcd_putint_x2>
		lcd_puts(80, 140, BLACK, "Credito: ");
 c1020b8:	e3a00050 	mov	r0, #80	; 0x50
 c1020bc:	e3a0108c 	mov	r1, #140	; 0x8c
 c1020c0:	e3a0200f 	mov	r2, #15
 c1020c4:	e59f315c 	ldr	r3, [pc, #348]	; c102228 <plotPaymentScreen+0x238>
 c1020c8:	eb000a40 	bl	c1049d0 <lcd_puts>

// Mostrar fecha y hora de liberación
		lcd_puts(50, 155, BLACK, "Fin:");
 c1020cc:	e3a00032 	mov	r0, #50	; 0x32
 c1020d0:	e3a0109b 	mov	r1, #155	; 0x9b
 c1020d4:	e3a0200f 	mov	r2, #15
 c1020d8:	e59f314c 	ldr	r3, [pc, #332]	; c10222c <plotPaymentScreen+0x23c>
 c1020dc:	eb000a3b 	bl	c1049d0 <lcd_puts>

// Instrucciones
		lcd_puts(80, 190, BLACK, "Inserte monedas");
 c1020e0:	e3a00050 	mov	r0, #80	; 0x50
 c1020e4:	e3a010be 	mov	r1, #190	; 0xbe
 c1020e8:	e3a0200f 	mov	r2, #15
 c1020ec:	e59f313c 	ldr	r3, [pc, #316]	; c102230 <plotPaymentScreen+0x240>
 c1020f0:	eb000a36 	bl	c1049d0 <lcd_puts>
		lcd_puts(50, 210, BLACK, "Pulse pantalla para aceptar");
 c1020f4:	e3a00032 	mov	r0, #50	; 0x32
 c1020f8:	e3a010d2 	mov	r1, #210	; 0xd2
 c1020fc:	e3a0200f 	mov	r2, #15
 c102100:	e59f312c 	ldr	r3, [pc, #300]	; c102234 <plotPaymentScreen+0x244>
 c102104:	eb000a31 	bl	c1049d0 <lcd_puts>
 c102108:	ea00003b 	b	c1021fc <plotPaymentScreen+0x20c>
	} else {
		lcd_draw_box(0, 35, LCD_WIDTH - 1, 95, BLACK, 1);
 c10210c:	e3a0300f 	mov	r3, #15
 c102110:	e58d3000 	str	r3, [sp]
 c102114:	e3a03001 	mov	r3, #1
 c102118:	e58d3004 	str	r3, [sp, #4]
 c10211c:	e3a00000 	mov	r0, #0
 c102120:	e3a01023 	mov	r1, #35	; 0x23
 c102124:	e59f20e0 	ldr	r2, [pc, #224]	; c10220c <plotPaymentScreen+0x21c>
 c102128:	e3a0305f 	mov	r3, #95	; 0x5f
 c10212c:	eb00094a 	bl	c10465c <lcd_draw_box>
		lcd_puts(110, 30, BLACK, "TARIFF:");
 c102130:	e3a0006e 	mov	r0, #110	; 0x6e
 c102134:	e3a0101e 	mov	r1, #30
 c102138:	e3a0200f 	mov	r2, #15
 c10213c:	e59f30f4 	ldr	r3, [pc, #244]	; c102238 <plotPaymentScreen+0x248>
 c102140:	eb000a22 	bl	c1049d0 <lcd_puts>
		lcd_puts(45, 45, BLACK, "Price per minute: 0,01");
 c102144:	e3a0002d 	mov	r0, #45	; 0x2d
 c102148:	e3a0102d 	mov	r1, #45	; 0x2d
 c10214c:	e3a0200f 	mov	r2, #15
 c102150:	e59f30e4 	ldr	r3, [pc, #228]	; c10223c <plotPaymentScreen+0x24c>
 c102154:	eb000a1d 	bl	c1049d0 <lcd_puts>
		lcd_puts(35, 60, BLACK, "Minimum Stay: 20 minutes");
 c102158:	e3a00023 	mov	r0, #35	; 0x23
 c10215c:	e3a0103c 	mov	r1, #60	; 0x3c
 c102160:	e3a0200f 	mov	r2, #15
 c102164:	e59f30d4 	ldr	r3, [pc, #212]	; c102240 <plotPaymentScreen+0x250>
 c102168:	eb000a18 	bl	c1049d0 <lcd_puts>
		lcd_puts(35, 75, BLACK, "Maximum Stay: 240 minutes");
 c10216c:	e3a00023 	mov	r0, #35	; 0x23
 c102170:	e3a0104b 	mov	r1, #75	; 0x4b
 c102174:	e3a0200f 	mov	r2, #15
 c102178:	e59f30c4 	ldr	r3, [pc, #196]	; c102244 <plotPaymentScreen+0x254>
 c10217c:	eb000a13 	bl	c1049d0 <lcd_puts>

		lcd_puts_x2(30, 110, BLACK, "Parking space: ");
 c102180:	e3a0001e 	mov	r0, #30
 c102184:	e3a0106e 	mov	r1, #110	; 0x6e
 c102188:	e3a0200f 	mov	r2, #15
 c10218c:	e59f30b4 	ldr	r3, [pc, #180]	; c102248 <plotPaymentScreen+0x258>
 c102190:	eb000b65 	bl	c104f2c <lcd_puts_x2>
		lcd_putint_x2(260, 110, BLACK, plazaSelecc);
 c102194:	e59f3088 	ldr	r3, [pc, #136]	; c102224 <plotPaymentScreen+0x234>
 c102198:	e5d33000 	ldrb	r3, [r3]
 c10219c:	e3a00f41 	mov	r0, #260	; 0x104
 c1021a0:	e3a0106e 	mov	r1, #110	; 0x6e
 c1021a4:	e3a0200f 	mov	r2, #15
 c1021a8:	eb000b7c 	bl	c104fa0 <lcd_putint_x2>
		lcd_puts(80, 140, BLACK, "Credit: ");
 c1021ac:	e3a00050 	mov	r0, #80	; 0x50
 c1021b0:	e3a0108c 	mov	r1, #140	; 0x8c
 c1021b4:	e3a0200f 	mov	r2, #15
 c1021b8:	e59f308c 	ldr	r3, [pc, #140]	; c10224c <plotPaymentScreen+0x25c>
 c1021bc:	eb000a03 	bl	c1049d0 <lcd_puts>

		lcd_puts(50, 155, BLACK, "End:");
 c1021c0:	e3a00032 	mov	r0, #50	; 0x32
 c1021c4:	e3a0109b 	mov	r1, #155	; 0x9b
 c1021c8:	e3a0200f 	mov	r2, #15
 c1021cc:	e59f307c 	ldr	r3, [pc, #124]	; c102250 <plotPaymentScreen+0x260>
 c1021d0:	eb0009fe 	bl	c1049d0 <lcd_puts>

		lcd_puts(80, 190, BLACK, "Insert coins");
 c1021d4:	e3a00050 	mov	r0, #80	; 0x50
 c1021d8:	e3a010be 	mov	r1, #190	; 0xbe
 c1021dc:	e3a0200f 	mov	r2, #15
 c1021e0:	e59f306c 	ldr	r3, [pc, #108]	; c102254 <plotPaymentScreen+0x264>
 c1021e4:	eb0009f9 	bl	c1049d0 <lcd_puts>
		lcd_puts(50, 210, BLACK, "Press screen to accept");
 c1021e8:	e3a00032 	mov	r0, #50	; 0x32
 c1021ec:	e3a010d2 	mov	r1, #210	; 0xd2
 c1021f0:	e3a0200f 	mov	r2, #15
 c1021f4:	e59f305c 	ldr	r3, [pc, #92]	; c102258 <plotPaymentScreen+0x268>
 c1021f8:	eb0009f4 	bl	c1049d0 <lcd_puts>
	}
}
 c1021fc:	e24bd00c 	sub	sp, fp, #12
 c102200:	e89d6800 	ldm	sp, {fp, sp, lr}
 c102204:	e12fff1e 	bx	lr
 c102208:	0c115818 	.word	0x0c115818
 c10220c:	0000013f 	.word	0x0000013f
 c102210:	0c10a570 	.word	0x0c10a570
 c102214:	0c10a578 	.word	0x0c10a578
 c102218:	0c10a590 	.word	0x0c10a590
 c10221c:	0c10a5ac 	.word	0x0c10a5ac
 c102220:	0c10a3a8 	.word	0x0c10a3a8
 c102224:	0c11585c 	.word	0x0c11585c
 c102228:	0c10a5cc 	.word	0x0c10a5cc
 c10222c:	0c10a5d8 	.word	0x0c10a5d8
 c102230:	0c10a5e0 	.word	0x0c10a5e0
 c102234:	0c10a5f0 	.word	0x0c10a5f0
 c102238:	0c10a60c 	.word	0x0c10a60c
 c10223c:	0c10a614 	.word	0x0c10a614
 c102240:	0c10a62c 	.word	0x0c10a62c
 c102244:	0c10a648 	.word	0x0c10a648
 c102248:	0c10a664 	.word	0x0c10a664
 c10224c:	0c10a674 	.word	0x0c10a674
 c102250:	0c10a680 	.word	0x0c10a680
 c102254:	0c10a688 	.word	0x0c10a688
 c102258:	0c10a698 	.word	0x0c10a698

0c10225c <liberar>:

void liberar(void) {
 c10225c:	e1a0c00d 	mov	ip, sp
 c102260:	e92dd800 	push	{fp, ip, lr, pc}
 c102264:	e24cb004 	sub	fp, ip, #4
	static rtc_time_t tiempoActual; // Estructura para guardar el tiempo actual

	rtc_gettime(&tiempoActual);
 c102268:	e59f0130 	ldr	r0, [pc, #304]	; c1023a0 <liberar+0x144>
 c10226c:	eb000e17 	bl	c105ad0 <rtc_gettime>

	if (tsPressedMsg.x > 80 && tsPressedMsg.y > 50 && tsPressedMsg.x < 250
 c102270:	e59f312c 	ldr	r3, [pc, #300]	; c1023a4 <liberar+0x148>
 c102274:	e1d330b2 	ldrh	r3, [r3, #2]
 c102278:	e3530050 	cmp	r3, #80	; 0x50
 c10227c:	9a000044 	bls	c102394 <liberar+0x138>
 c102280:	e59f311c 	ldr	r3, [pc, #284]	; c1023a4 <liberar+0x148>
 c102284:	e1d330b4 	ldrh	r3, [r3, #4]
 c102288:	e3530032 	cmp	r3, #50	; 0x32
 c10228c:	9a000040 	bls	c102394 <liberar+0x138>
 c102290:	e59f310c 	ldr	r3, [pc, #268]	; c1023a4 <liberar+0x148>
 c102294:	e1d330b2 	ldrh	r3, [r3, #2]
 c102298:	e35300f9 	cmp	r3, #249	; 0xf9
 c10229c:	8a00003c 	bhi	c102394 <liberar+0x138>
			&& tsPressedMsg.y < 95) {
 c1022a0:	e59f30fc 	ldr	r3, [pc, #252]	; c1023a4 <liberar+0x148>
 c1022a4:	e1d330b4 	ldrh	r3, [r3, #4]
 c1022a8:	e353005e 	cmp	r3, #94	; 0x5e
 c1022ac:	8a000038 	bhi	c102394 <liberar+0x138>

		if (parking.plaza[plazaSelecc - 1].end_time.hour <= tiempoActual.hour
 c1022b0:	e59f30f0 	ldr	r3, [pc, #240]	; c1023a8 <liberar+0x14c>
 c1022b4:	e5d33000 	ldrb	r3, [r3]
 c1022b8:	e2432001 	sub	r2, r3, #1
 c1022bc:	e59f10e8 	ldr	r1, [pc, #232]	; c1023ac <liberar+0x150>
 c1022c0:	e3a03003 	mov	r3, #3
 c1022c4:	e1a02182 	lsl	r2, r2, #3
 c1022c8:	e0812002 	add	r2, r1, r2
 c1022cc:	e0823003 	add	r3, r2, r3
 c1022d0:	e5d32000 	ldrb	r2, [r3]
 c1022d4:	e59f30c4 	ldr	r3, [pc, #196]	; c1023a0 <liberar+0x144>
 c1022d8:	e5d33002 	ldrb	r3, [r3, #2]
 c1022dc:	e1520003 	cmp	r2, r3
 c1022e0:	8a00001f 	bhi	c102364 <liberar+0x108>
				&& parking.plaza[plazaSelecc - 1].end_time.min
 c1022e4:	e59f30bc 	ldr	r3, [pc, #188]	; c1023a8 <liberar+0x14c>
 c1022e8:	e5d33000 	ldrb	r3, [r3]
 c1022ec:	e2432001 	sub	r2, r3, #1
 c1022f0:	e59f10b4 	ldr	r1, [pc, #180]	; c1023ac <liberar+0x150>
 c1022f4:	e3a03002 	mov	r3, #2
 c1022f8:	e1a02182 	lsl	r2, r2, #3
 c1022fc:	e0812002 	add	r2, r1, r2
 c102300:	e0823003 	add	r3, r2, r3
 c102304:	e5d32000 	ldrb	r2, [r3]
						<= tiempoActual.min
 c102308:	e59f3090 	ldr	r3, [pc, #144]	; c1023a0 <liberar+0x144>
 c10230c:	e5d33001 	ldrb	r3, [r3, #1]

	if (tsPressedMsg.x > 80 && tsPressedMsg.y > 50 && tsPressedMsg.x < 250
			&& tsPressedMsg.y < 95) {

		if (parking.plaza[plazaSelecc - 1].end_time.hour <= tiempoActual.hour
				&& parking.plaza[plazaSelecc - 1].end_time.min
 c102310:	e1520003 	cmp	r2, r3
 c102314:	8a000012 	bhi	c102364 <liberar+0x108>
						<= tiempoActual.min
				&& parking.plaza[plazaSelecc - 1].end_time.sec
 c102318:	e59f3088 	ldr	r3, [pc, #136]	; c1023a8 <liberar+0x14c>
 c10231c:	e5d33000 	ldrb	r3, [r3]
 c102320:	e2432001 	sub	r2, r3, #1
 c102324:	e59f1080 	ldr	r1, [pc, #128]	; c1023ac <liberar+0x150>
 c102328:	e3a03001 	mov	r3, #1
 c10232c:	e1a02182 	lsl	r2, r2, #3
 c102330:	e0812002 	add	r2, r1, r2
 c102334:	e0823003 	add	r3, r2, r3
 c102338:	e5d32000 	ldrb	r2, [r3]
						<= tiempoActual.sec) {
 c10233c:	e59f305c 	ldr	r3, [pc, #92]	; c1023a0 <liberar+0x144>
 c102340:	e5d33000 	ldrb	r3, [r3]
			&& tsPressedMsg.y < 95) {

		if (parking.plaza[plazaSelecc - 1].end_time.hour <= tiempoActual.hour
				&& parking.plaza[plazaSelecc - 1].end_time.min
						<= tiempoActual.min
				&& parking.plaza[plazaSelecc - 1].end_time.sec
 c102344:	e1520003 	cmp	r2, r3
 c102348:	8a000005 	bhi	c102364 <liberar+0x108>
						<= tiempoActual.sec) {
			multar(plazaSelecc - 1);
 c10234c:	e59f3054 	ldr	r3, [pc, #84]	; c1023a8 <liberar+0x14c>
 c102350:	e5d33000 	ldrb	r3, [r3]
 c102354:	e2433001 	sub	r3, r3, #1
 c102358:	e20330ff 	and	r3, r3, #255	; 0xff
 c10235c:	e1a00003 	mov	r0, r3
 c102360:	eb0000d0 	bl	c1026a8 <multar>

		}
		parking.plaza[plazaSelecc - 1].occupied = FALSE;
 c102364:	e59f303c 	ldr	r3, [pc, #60]	; c1023a8 <liberar+0x14c>
 c102368:	e5d33000 	ldrb	r3, [r3]
 c10236c:	e2432001 	sub	r2, r3, #1
 c102370:	e59f3034 	ldr	r3, [pc, #52]	; c1023ac <liberar+0x150>
 c102374:	e3a01000 	mov	r1, #0
 c102378:	e7c31182 	strb	r1, [r3, r2, lsl #3]
		parking.plazasLibres++;
 c10237c:	e59f3028 	ldr	r3, [pc, #40]	; c1023ac <liberar+0x150>
 c102380:	e5d33043 	ldrb	r3, [r3, #67]	; 0x43
 c102384:	e2833001 	add	r3, r3, #1
 c102388:	e20320ff 	and	r2, r3, #255	; 0xff
 c10238c:	e59f3018 	ldr	r3, [pc, #24]	; c1023ac <liberar+0x150>
 c102390:	e5c32043 	strb	r2, [r3, #67]	; 0x43
	}
}
 c102394:	e24bd00c 	sub	sp, fp, #12
 c102398:	e89d6800 	ldm	sp, {fp, sp, lr}
 c10239c:	e12fff1e 	bx	lr
 c1023a0:	0c11576c 	.word	0x0c11576c
 c1023a4:	0c115808 	.word	0x0c115808
 c1023a8:	0c11585c 	.word	0x0c11585c
 c1023ac:	0c115818 	.word	0x0c115818

0c1023b0 <plotOccupiedScreen>:

void plotOccupiedScreen(uint16 credit) {
 c1023b0:	e1a0c00d 	mov	ip, sp
 c1023b4:	e92dd800 	push	{fp, ip, lr, pc}
 c1023b8:	e24cb004 	sub	fp, ip, #4
 c1023bc:	e24dd040 	sub	sp, sp, #64	; 0x40
 c1023c0:	e1a03000 	mov	r3, r0
 c1023c4:	e14b34b6 	strh	r3, [fp, #-70]	; 0xffffffba
	char bufferFechaLiberacion[40];
	char diaSemana[4];

// Convertir la fecha y hora de liberación a cadena
	rtc_time_t end_time = parking.plaza[plazaSelecc - 1].end_time;
 c1023c8:	e59f3160 	ldr	r3, [pc, #352]	; c102530 <plotOccupiedScreen+0x180>
 c1023cc:	e5d33000 	ldrb	r3, [r3]
 c1023d0:	e2432001 	sub	r2, r3, #1
 c1023d4:	e59f1158 	ldr	r1, [pc, #344]	; c102534 <plotOccupiedScreen+0x184>
 c1023d8:	e3a03001 	mov	r3, #1
 c1023dc:	e1a02182 	lsl	r2, r2, #3
 c1023e0:	e0812002 	add	r2, r1, r2
 c1023e4:	e0823003 	add	r3, r2, r3
 c1023e8:	e24b1040 	sub	r1, fp, #64	; 0x40
 c1023ec:	e1a02003 	mov	r2, r3
 c1023f0:	e3a03007 	mov	r3, #7
 c1023f4:	e1a00001 	mov	r0, r1
 c1023f8:	e1a01002 	mov	r1, r2
 c1023fc:	e1a02003 	mov	r2, r3
 c102400:	eb0000dd 	bl	c10277c <memcpy>
	convertirFechaHora(end_time, bufferFechaLiberacion, diaSemana);
 c102404:	e24b2034 	sub	r2, fp, #52	; 0x34
 c102408:	e24b3038 	sub	r3, fp, #56	; 0x38
 c10240c:	e24b1040 	sub	r1, fp, #64	; 0x40
 c102410:	e8910003 	ldm	r1, {r0, r1}
 c102414:	ebfffc15 	bl	c101470 <convertirFechaHora>
	if (parking.espanol) {
 c102418:	e59f3114 	ldr	r3, [pc, #276]	; c102534 <plotOccupiedScreen+0x184>
 c10241c:	e5d33042 	ldrb	r3, [r3, #66]	; 0x42
 c102420:	e3530000 	cmp	r3, #0
 c102424:	0a00001f 	beq	c1024a8 <plotOccupiedScreen+0xf8>
		lcd_puts_x2(140, 60, BLACK, "LIBERAR");
 c102428:	e3a0008c 	mov	r0, #140	; 0x8c
 c10242c:	e3a0103c 	mov	r1, #60	; 0x3c
 c102430:	e3a0200f 	mov	r2, #15
 c102434:	e59f30fc 	ldr	r3, [pc, #252]	; c102538 <plotOccupiedScreen+0x188>
 c102438:	eb000abb 	bl	c104f2c <lcd_puts_x2>
		lcd_puts_x2(30, 110, BLACK, "Plaza ");
 c10243c:	e3a0001e 	mov	r0, #30
 c102440:	e3a0106e 	mov	r1, #110	; 0x6e
 c102444:	e3a0200f 	mov	r2, #15
 c102448:	e59f30ec 	ldr	r3, [pc, #236]	; c10253c <plotOccupiedScreen+0x18c>
 c10244c:	eb000ab6 	bl	c104f2c <lcd_puts_x2>
		lcd_putint_x2(120, 110, BLACK, plazaSelecc);
 c102450:	e59f30d8 	ldr	r3, [pc, #216]	; c102530 <plotOccupiedScreen+0x180>
 c102454:	e5d33000 	ldrb	r3, [r3]
 c102458:	e3a00078 	mov	r0, #120	; 0x78
 c10245c:	e3a0106e 	mov	r1, #110	; 0x6e
 c102460:	e3a0200f 	mov	r2, #15
 c102464:	eb000acd 	bl	c104fa0 <lcd_putint_x2>
		lcd_puts_x2(140, 110, BLACK, " ocupada ");
 c102468:	e3a0008c 	mov	r0, #140	; 0x8c
 c10246c:	e3a0106e 	mov	r1, #110	; 0x6e
 c102470:	e3a0200f 	mov	r2, #15
 c102474:	e59f30c4 	ldr	r3, [pc, #196]	; c102540 <plotOccupiedScreen+0x190>
 c102478:	eb000aab 	bl	c104f2c <lcd_puts_x2>
// Mostrar fecha y hora de liberación
		lcd_puts(60, 150, BLACK, "Fin:");
 c10247c:	e3a0003c 	mov	r0, #60	; 0x3c
 c102480:	e3a01096 	mov	r1, #150	; 0x96
 c102484:	e3a0200f 	mov	r2, #15
 c102488:	e59f30b4 	ldr	r3, [pc, #180]	; c102544 <plotOccupiedScreen+0x194>
 c10248c:	eb00094f 	bl	c1049d0 <lcd_puts>
		lcd_puts(110, 150, BLACK, bufferFechaLiberacion);
 c102490:	e24b3034 	sub	r3, fp, #52	; 0x34
 c102494:	e3a0006e 	mov	r0, #110	; 0x6e
 c102498:	e3a01096 	mov	r1, #150	; 0x96
 c10249c:	e3a0200f 	mov	r2, #15
 c1024a0:	eb00094a 	bl	c1049d0 <lcd_puts>
 c1024a4:	ea00001e 	b	c102524 <plotOccupiedScreen+0x174>
	} else {
		lcd_puts_x2(140, 60, BLACK, "FREE");
 c1024a8:	e3a0008c 	mov	r0, #140	; 0x8c
 c1024ac:	e3a0103c 	mov	r1, #60	; 0x3c
 c1024b0:	e3a0200f 	mov	r2, #15
 c1024b4:	e59f308c 	ldr	r3, [pc, #140]	; c102548 <plotOccupiedScreen+0x198>
 c1024b8:	eb000a9b 	bl	c104f2c <lcd_puts_x2>
		lcd_puts_x2(30, 110, BLACK, "Place ");
 c1024bc:	e3a0001e 	mov	r0, #30
 c1024c0:	e3a0106e 	mov	r1, #110	; 0x6e
 c1024c4:	e3a0200f 	mov	r2, #15
 c1024c8:	e59f307c 	ldr	r3, [pc, #124]	; c10254c <plotOccupiedScreen+0x19c>
 c1024cc:	eb000a96 	bl	c104f2c <lcd_puts_x2>
		lcd_putint_x2(120, 110, BLACK, plazaSelecc);
 c1024d0:	e59f3058 	ldr	r3, [pc, #88]	; c102530 <plotOccupiedScreen+0x180>
 c1024d4:	e5d33000 	ldrb	r3, [r3]
 c1024d8:	e3a00078 	mov	r0, #120	; 0x78
 c1024dc:	e3a0106e 	mov	r1, #110	; 0x6e
 c1024e0:	e3a0200f 	mov	r2, #15
 c1024e4:	eb000aad 	bl	c104fa0 <lcd_putint_x2>
		lcd_puts_x2(140, 110, BLACK, " Occupied ");
 c1024e8:	e3a0008c 	mov	r0, #140	; 0x8c
 c1024ec:	e3a0106e 	mov	r1, #110	; 0x6e
 c1024f0:	e3a0200f 	mov	r2, #15
 c1024f4:	e59f3054 	ldr	r3, [pc, #84]	; c102550 <plotOccupiedScreen+0x1a0>
 c1024f8:	eb000a8b 	bl	c104f2c <lcd_puts_x2>
// Mostrar fecha y hora de liberación
		lcd_puts(60, 150, BLACK, "End:");
 c1024fc:	e3a0003c 	mov	r0, #60	; 0x3c
 c102500:	e3a01096 	mov	r1, #150	; 0x96
 c102504:	e3a0200f 	mov	r2, #15
 c102508:	e59f3044 	ldr	r3, [pc, #68]	; c102554 <plotOccupiedScreen+0x1a4>
 c10250c:	eb00092f 	bl	c1049d0 <lcd_puts>
		lcd_puts(110, 150, BLACK, bufferFechaLiberacion);
 c102510:	e24b3034 	sub	r3, fp, #52	; 0x34
 c102514:	e3a0006e 	mov	r0, #110	; 0x6e
 c102518:	e3a01096 	mov	r1, #150	; 0x96
 c10251c:	e3a0200f 	mov	r2, #15
 c102520:	eb00092a 	bl	c1049d0 <lcd_puts>
	}

}
 c102524:	e24bd00c 	sub	sp, fp, #12
 c102528:	e89d6800 	ldm	sp, {fp, sp, lr}
 c10252c:	e12fff1e 	bx	lr
 c102530:	0c11585c 	.word	0x0c11585c
 c102534:	0c115818 	.word	0x0c115818
 c102538:	0c10a6b0 	.word	0x0c10a6b0
 c10253c:	0c10a6b8 	.word	0x0c10a6b8
 c102540:	0c10a6c0 	.word	0x0c10a6c0
 c102544:	0c10a5d8 	.word	0x0c10a5d8
 c102548:	0c10a6cc 	.word	0x0c10a6cc
 c10254c:	0c10a6d4 	.word	0x0c10a6d4
 c102550:	0c10a6dc 	.word	0x0c10a6dc
 c102554:	0c10a680 	.word	0x0c10a680

0c102558 <tiempoOcupado>:

void tiempoOcupado(uint16 credit) {
 c102558:	e1a0c00d 	mov	ip, sp
 c10255c:	e92dd800 	push	{fp, ip, lr, pc}
 c102560:	e24cb004 	sub	fp, ip, #4
 c102564:	e24dd018 	sub	sp, sp, #24
 c102568:	e1a03000 	mov	r3, r0
 c10256c:	e14b31be 	strh	r3, [fp, #-30]	; 0xffffffe2

	rtc_time_t current_time, end_time;
	rtc_gettime(&current_time);
 c102570:	e24b3014 	sub	r3, fp, #20
 c102574:	e1a00003 	mov	r0, r3
 c102578:	eb000d54 	bl	c105ad0 <rtc_gettime>

	end_time = current_time;
 c10257c:	e24b301c 	sub	r3, fp, #28
 c102580:	e24b2014 	sub	r2, fp, #20
 c102584:	e8920003 	ldm	r2, {r0, r1}
 c102588:	e5830000 	str	r0, [r3]
 c10258c:	e2833004 	add	r3, r3, #4
 c102590:	e1c310b0 	strh	r1, [r3]
 c102594:	e2833002 	add	r3, r3, #2
 c102598:	e1a02821 	lsr	r2, r1, #16
 c10259c:	e5c32000 	strb	r2, [r3]

	if (credit + end_time.min < 60) {
 c1025a0:	e15b21be 	ldrh	r2, [fp, #-30]	; 0xffffffe2
 c1025a4:	e55b301b 	ldrb	r3, [fp, #-27]	; 0xffffffe5
 c1025a8:	e0823003 	add	r3, r2, r3
 c1025ac:	e353003b 	cmp	r3, #59	; 0x3b
 c1025b0:	ca00000b 	bgt	c1025e4 <tiempoOcupado+0x8c>
		end_time.min += credit/12;
 c1025b4:	e55b201b 	ldrb	r2, [fp, #-27]	; 0xffffffe5
 c1025b8:	e15b11be 	ldrh	r1, [fp, #-30]	; 0xffffffe2
 c1025bc:	e59f30d4 	ldr	r3, [pc, #212]	; c102698 <tiempoOcupado+0x140>
 c1025c0:	e0830391 	umull	r0, r3, r1, r3
 c1025c4:	e1a031a3 	lsr	r3, r3, #3
 c1025c8:	e1a03803 	lsl	r3, r3, #16
 c1025cc:	e1a03823 	lsr	r3, r3, #16
 c1025d0:	e20330ff 	and	r3, r3, #255	; 0xff
 c1025d4:	e0823003 	add	r3, r2, r3
 c1025d8:	e20330ff 	and	r3, r3, #255	; 0xff
 c1025dc:	e54b301b 	strb	r3, [fp, #-27]	; 0xffffffe5
 c1025e0:	ea00001a 	b	c102650 <tiempoOcupado+0xf8>
	} else {
		end_time.hour = ((credit + end_time.min) / 60);
 c1025e4:	e15b21be 	ldrh	r2, [fp, #-30]	; 0xffffffe2
 c1025e8:	e55b301b 	ldrb	r3, [fp, #-27]	; 0xffffffe5
 c1025ec:	e0823003 	add	r3, r2, r3
 c1025f0:	e59f20a4 	ldr	r2, [pc, #164]	; c10269c <tiempoOcupado+0x144>
 c1025f4:	e0c21293 	smull	r1, r2, r3, r2
 c1025f8:	e0822003 	add	r2, r2, r3
 c1025fc:	e1a022c2 	asr	r2, r2, #5
 c102600:	e1a03fc3 	asr	r3, r3, #31
 c102604:	e0633002 	rsb	r3, r3, r2
 c102608:	e20330ff 	and	r3, r3, #255	; 0xff
 c10260c:	e54b301a 	strb	r3, [fp, #-26]	; 0xffffffe6
		end_time.min = ((credit + end_time.min) % 60);
 c102610:	e15b21be 	ldrh	r2, [fp, #-30]	; 0xffffffe2
 c102614:	e55b301b 	ldrb	r3, [fp, #-27]	; 0xffffffe5
 c102618:	e0821003 	add	r1, r2, r3
 c10261c:	e59f3078 	ldr	r3, [pc, #120]	; c10269c <tiempoOcupado+0x144>
 c102620:	e0c32391 	smull	r2, r3, r1, r3
 c102624:	e0833001 	add	r3, r3, r1
 c102628:	e1a022c3 	asr	r2, r3, #5
 c10262c:	e1a03fc1 	asr	r3, r1, #31
 c102630:	e0632002 	rsb	r2, r3, r2
 c102634:	e1a03002 	mov	r3, r2
 c102638:	e1a03203 	lsl	r3, r3, #4
 c10263c:	e0623003 	rsb	r3, r2, r3
 c102640:	e1a03103 	lsl	r3, r3, #2
 c102644:	e0632001 	rsb	r2, r3, r1
 c102648:	e20230ff 	and	r3, r2, #255	; 0xff
 c10264c:	e54b301b 	strb	r3, [fp, #-27]	; 0xffffffe5
	}

	parking.plaza[plazaSelecc - 1].end_time = end_time;
 c102650:	e59f3048 	ldr	r3, [pc, #72]	; c1026a0 <tiempoOcupado+0x148>
 c102654:	e5d33000 	ldrb	r3, [r3]
 c102658:	e2432001 	sub	r2, r3, #1
 c10265c:	e59f1040 	ldr	r1, [pc, #64]	; c1026a4 <tiempoOcupado+0x14c>
 c102660:	e3a03001 	mov	r3, #1
 c102664:	e1a02182 	lsl	r2, r2, #3
 c102668:	e0812002 	add	r2, r1, r2
 c10266c:	e0823003 	add	r3, r2, r3
 c102670:	e1a01003 	mov	r1, r3
 c102674:	e24b201c 	sub	r2, fp, #28
 c102678:	e3a03007 	mov	r3, #7
 c10267c:	e1a00001 	mov	r0, r1
 c102680:	e1a01002 	mov	r1, r2
 c102684:	e1a02003 	mov	r2, r3
 c102688:	eb00003b 	bl	c10277c <memcpy>
}
 c10268c:	e24bd00c 	sub	sp, fp, #12
 c102690:	e89d6800 	ldm	sp, {fp, sp, lr}
 c102694:	e12fff1e 	bx	lr
 c102698:	aaaaaaab 	.word	0xaaaaaaab
 c10269c:	88888889 	.word	0x88888889
 c1026a0:	0c11585c 	.word	0x0c11585c
 c1026a4:	0c115818 	.word	0x0c115818

0c1026a8 <multar>:

void multar(uint8 plaza) {
 c1026a8:	e1a0c00d 	mov	ip, sp
 c1026ac:	e92dd800 	push	{fp, ip, lr, pc}
 c1026b0:	e24cb004 	sub	fp, ip, #4
 c1026b4:	e24dd050 	sub	sp, sp, #80	; 0x50
 c1026b8:	e1a03000 	mov	r3, r0
 c1026bc:	e54b3055 	strb	r3, [fp, #-85]	; 0xffffffab

	char ticketHeader[] = "----- TICKET DE MULTA -----\n";
 c1026c0:	e59f3098 	ldr	r3, [pc, #152]	; c102760 <multar+0xb8>
 c1026c4:	e24bc02c 	sub	ip, fp, #44	; 0x2c
 c1026c8:	e1a0e003 	mov	lr, r3
 c1026cc:	e8be000f 	ldm	lr!, {r0, r1, r2, r3}
 c1026d0:	e8ac000f 	stmia	ip!, {r0, r1, r2, r3}
 c1026d4:	e89e000f 	ldm	lr, {r0, r1, r2, r3}
 c1026d8:	e8ac0007 	stmia	ip!, {r0, r1, r2}
 c1026dc:	e5cc3000 	strb	r3, [ip]
	char ticketFooter[] = "----------------------------------\n";
 c1026e0:	e59f307c 	ldr	r3, [pc, #124]	; c102764 <multar+0xbc>
 c1026e4:	e24bc050 	sub	ip, fp, #80	; 0x50
 c1026e8:	e1a0e003 	mov	lr, r3
 c1026ec:	e8be000f 	ldm	lr!, {r0, r1, r2, r3}
 c1026f0:	e8ac000f 	stmia	ip!, {r0, r1, r2, r3}
 c1026f4:	e8be000f 	ldm	lr!, {r0, r1, r2, r3}
 c1026f8:	e8ac000f 	stmia	ip!, {r0, r1, r2, r3}
 c1026fc:	e59e3000 	ldr	r3, [lr]
 c102700:	e58c3000 	str	r3, [ip]

	uart0_puts(ticketHeader);              // Encabezado del ticket
 c102704:	e24b302c 	sub	r3, fp, #44	; 0x2c
 c102708:	e1a00003 	mov	r0, r3
 c10270c:	eb001a31 	bl	c108fd8 <uart0_puts>
	uart0_puts("Plaza: ");
 c102710:	e59f0050 	ldr	r0, [pc, #80]	; c102768 <multar+0xc0>
 c102714:	eb001a2f 	bl	c108fd8 <uart0_puts>
	uart0_putint(plazaSelecc);                    // Número de plaza
 c102718:	e59f304c 	ldr	r3, [pc, #76]	; c10276c <multar+0xc4>
 c10271c:	e5d33000 	ldrb	r3, [r3]
 c102720:	e1a00003 	mov	r0, r3
 c102724:	eb001a3f 	bl	c109028 <uart0_putint>
	uart0_puts("\n");
 c102728:	e59f0040 	ldr	r0, [pc, #64]	; c102770 <multar+0xc8>
 c10272c:	eb001a29 	bl	c108fd8 <uart0_puts>

	uart0_puts("Tiene una multa de 50 ");
 c102730:	e59f003c 	ldr	r0, [pc, #60]	; c102774 <multar+0xcc>
 c102734:	eb001a27 	bl	c108fd8 <uart0_puts>
	uart0_puts("\n");
 c102738:	e59f0030 	ldr	r0, [pc, #48]	; c102770 <multar+0xc8>
 c10273c:	eb001a25 	bl	c108fd8 <uart0_puts>

	uart0_puts("Acuda a ventana para pagar\n"); // Mensaje adicional
 c102740:	e59f0030 	ldr	r0, [pc, #48]	; c102778 <multar+0xd0>
 c102744:	eb001a23 	bl	c108fd8 <uart0_puts>
	uart0_puts(ticketFooter);              // Pie del ticket
 c102748:	e24b3050 	sub	r3, fp, #80	; 0x50
 c10274c:	e1a00003 	mov	r0, r3
 c102750:	eb001a20 	bl	c108fd8 <uart0_puts>
}
 c102754:	e24bd00c 	sub	sp, fp, #12
 c102758:	e89d6800 	ldm	sp, {fp, sp, lr}
 c10275c:	e12fff1e 	bx	lr
 c102760:	0c10a71c 	.word	0x0c10a71c
 c102764:	0c10a40c 	.word	0x0c10a40c
 c102768:	0c10a3a8 	.word	0x0c10a3a8
 c10276c:	0c11585c 	.word	0x0c11585c
 c102770:	0c10a3b0 	.word	0x0c10a3b0
 c102774:	0c10a6e8 	.word	0x0c10a6e8
 c102778:	0c10a700 	.word	0x0c10a700

0c10277c <memcpy>:
 c10277c:	e1a0c00d 	mov	ip, sp
 c102780:	e92dd800 	push	{fp, ip, lr, pc}
 c102784:	e24cb004 	sub	fp, ip, #4
 c102788:	e24dd010 	sub	sp, sp, #16
 c10278c:	e50b0010 	str	r0, [fp, #-16]
 c102790:	e50b1014 	str	r1, [fp, #-20]	; 0xffffffec
 c102794:	e50b2018 	str	r2, [fp, #-24]	; 0xffffffe8
 c102798:	ea00000c 	b	c1027d0 <memcpy+0x54>
 c10279c:	e51b3014 	ldr	r3, [fp, #-20]	; 0xffffffec
 c1027a0:	e5d32000 	ldrb	r2, [r3]
 c1027a4:	e51b3010 	ldr	r3, [fp, #-16]
 c1027a8:	e5c32000 	strb	r2, [r3]
 c1027ac:	e51b3010 	ldr	r3, [fp, #-16]
 c1027b0:	e2833001 	add	r3, r3, #1
 c1027b4:	e50b3010 	str	r3, [fp, #-16]
 c1027b8:	e51b3014 	ldr	r3, [fp, #-20]	; 0xffffffec
 c1027bc:	e2833001 	add	r3, r3, #1
 c1027c0:	e50b3014 	str	r3, [fp, #-20]	; 0xffffffec
 c1027c4:	e51b3018 	ldr	r3, [fp, #-24]	; 0xffffffe8
 c1027c8:	e2433001 	sub	r3, r3, #1
 c1027cc:	e50b3018 	str	r3, [fp, #-24]	; 0xffffffe8
 c1027d0:	e51b3018 	ldr	r3, [fp, #-24]	; 0xffffffe8
 c1027d4:	e3530000 	cmp	r3, #0
 c1027d8:	1affffef 	bne	c10279c <memcpy+0x20>
 c1027dc:	e24bd00c 	sub	sp, fp, #12
 c1027e0:	e89d6800 	ldm	sp, {fp, sp, lr}
 c1027e4:	e12fff1e 	bx	lr

0c1027e8 <memset>:
 c1027e8:	e1a0c00d 	mov	ip, sp
 c1027ec:	e92dd800 	push	{fp, ip, lr, pc}
 c1027f0:	e24cb004 	sub	fp, ip, #4
 c1027f4:	e24dd010 	sub	sp, sp, #16
 c1027f8:	e50b0010 	str	r0, [fp, #-16]
 c1027fc:	e1a03001 	mov	r3, r1
 c102800:	e50b2018 	str	r2, [fp, #-24]	; 0xffffffe8
 c102804:	e54b3011 	strb	r3, [fp, #-17]	; 0xffffffef
 c102808:	ea000008 	b	c102830 <memset+0x48>
 c10280c:	e51b3010 	ldr	r3, [fp, #-16]
 c102810:	e55b2011 	ldrb	r2, [fp, #-17]	; 0xffffffef
 c102814:	e5c32000 	strb	r2, [r3]
 c102818:	e51b3010 	ldr	r3, [fp, #-16]
 c10281c:	e2833001 	add	r3, r3, #1
 c102820:	e50b3010 	str	r3, [fp, #-16]
 c102824:	e51b3018 	ldr	r3, [fp, #-24]	; 0xffffffe8
 c102828:	e2433001 	sub	r3, r3, #1
 c10282c:	e50b3018 	str	r3, [fp, #-24]	; 0xffffffe8
 c102830:	e51b3018 	ldr	r3, [fp, #-24]	; 0xffffffe8
 c102834:	e3530000 	cmp	r3, #0
 c102838:	1afffff3 	bne	c10280c <memset+0x24>
 c10283c:	e24bd00c 	sub	sp, fp, #12
 c102840:	e89d6800 	ldm	sp, {fp, sp, lr}
 c102844:	e12fff1e 	bx	lr

0c102848 <memcmp>:
 c102848:	e1a0c00d 	mov	ip, sp
 c10284c:	e92dd800 	push	{fp, ip, lr, pc}
 c102850:	e24cb004 	sub	fp, ip, #4
 c102854:	e24dd018 	sub	sp, sp, #24
 c102858:	e50b0018 	str	r0, [fp, #-24]	; 0xffffffe8
 c10285c:	e50b101c 	str	r1, [fp, #-28]	; 0xffffffe4
 c102860:	e50b2020 	str	r2, [fp, #-32]	; 0xffffffe0
 c102864:	e3a03000 	mov	r3, #0
 c102868:	e54b300d 	strb	r3, [fp, #-13]
 c10286c:	ea00000e 	b	c1028ac <memcmp+0x64>
 c102870:	e51b3018 	ldr	r3, [fp, #-24]	; 0xffffffe8
 c102874:	e5d32000 	ldrb	r2, [r3]
 c102878:	e51b301c 	ldr	r3, [fp, #-28]	; 0xffffffe4
 c10287c:	e5d33000 	ldrb	r3, [r3]
 c102880:	e0633002 	rsb	r3, r3, r2
 c102884:	e54b300d 	strb	r3, [fp, #-13]
 c102888:	e51b3018 	ldr	r3, [fp, #-24]	; 0xffffffe8
 c10288c:	e2833001 	add	r3, r3, #1
 c102890:	e50b3018 	str	r3, [fp, #-24]	; 0xffffffe8
 c102894:	e51b301c 	ldr	r3, [fp, #-28]	; 0xffffffe4
 c102898:	e2833001 	add	r3, r3, #1
 c10289c:	e50b301c 	str	r3, [fp, #-28]	; 0xffffffe4
 c1028a0:	e51b3020 	ldr	r3, [fp, #-32]	; 0xffffffe0
 c1028a4:	e2433001 	sub	r3, r3, #1
 c1028a8:	e50b3020 	str	r3, [fp, #-32]	; 0xffffffe0
 c1028ac:	e51b3020 	ldr	r3, [fp, #-32]	; 0xffffffe0
 c1028b0:	e3530000 	cmp	r3, #0
 c1028b4:	0a000002 	beq	c1028c4 <memcmp+0x7c>
 c1028b8:	e55b300d 	ldrb	r3, [fp, #-13]
 c1028bc:	e3530000 	cmp	r3, #0
 c1028c0:	0affffea 	beq	c102870 <memcmp+0x28>
 c1028c4:	e55b300d 	ldrb	r3, [fp, #-13]
 c1028c8:	e1a00003 	mov	r0, r3
 c1028cc:	e24bd00c 	sub	sp, fp, #12
 c1028d0:	e89d6800 	ldm	sp, {fp, sp, lr}
 c1028d4:	e12fff1e 	bx	lr

0c1028d8 <random>:
 c1028d8:	e1a0c00d 	mov	ip, sp
 c1028dc:	e92dd800 	push	{fp, ip, lr, pc}
 c1028e0:	e24cb004 	sub	fp, ip, #4
 c1028e4:	e24dd010 	sub	sp, sp, #16
 c1028e8:	e50b0018 	str	r0, [fp, #-24]	; 0xffffffe8
 c1028ec:	e51b3018 	ldr	r3, [fp, #-24]	; 0xffffffe8
 c1028f0:	e3530000 	cmp	r3, #0
 c1028f4:	0a000002 	beq	c102904 <random+0x2c>
 c1028f8:	e59f3084 	ldr	r3, [pc, #132]	; c102984 <random+0xac>
 c1028fc:	e51b2018 	ldr	r2, [fp, #-24]	; 0xffffffe8
 c102900:	e5832000 	str	r2, [r3]
 c102904:	e59f3078 	ldr	r3, [pc, #120]	; c102984 <random+0xac>
 c102908:	e5933000 	ldr	r3, [r3]
 c10290c:	e1a02fa3 	lsr	r2, r3, #31
 c102910:	e59f306c 	ldr	r3, [pc, #108]	; c102984 <random+0xac>
 c102914:	e5933000 	ldr	r3, [r3]
 c102918:	e1a03aa3 	lsr	r3, r3, #21
 c10291c:	e0222003 	eor	r2, r2, r3
 c102920:	e59f305c 	ldr	r3, [pc, #92]	; c102984 <random+0xac>
 c102924:	e5933000 	ldr	r3, [r3]
 c102928:	e1a030a3 	lsr	r3, r3, #1
 c10292c:	e0222003 	eor	r2, r2, r3
 c102930:	e59f304c 	ldr	r3, [pc, #76]	; c102984 <random+0xac>
 c102934:	e5933000 	ldr	r3, [r3]
 c102938:	e0223003 	eor	r3, r2, r3
 c10293c:	e2033001 	and	r3, r3, #1
 c102940:	e3530000 	cmp	r3, #0
 c102944:	13a03000 	movne	r3, #0
 c102948:	03a03001 	moveq	r3, #1
 c10294c:	e50b3010 	str	r3, [fp, #-16]
 c102950:	e59f302c 	ldr	r3, [pc, #44]	; c102984 <random+0xac>
 c102954:	e5933000 	ldr	r3, [r3]
 c102958:	e1a02083 	lsl	r2, r3, #1
 c10295c:	e51b3010 	ldr	r3, [fp, #-16]
 c102960:	e1822003 	orr	r2, r2, r3
 c102964:	e59f3018 	ldr	r3, [pc, #24]	; c102984 <random+0xac>
 c102968:	e5832000 	str	r2, [r3]
 c10296c:	e59f3010 	ldr	r3, [pc, #16]	; c102984 <random+0xac>
 c102970:	e5933000 	ldr	r3, [r3]
 c102974:	e1a00003 	mov	r0, r3
 c102978:	e24bd00c 	sub	sp, fp, #12
 c10297c:	e89d6800 	ldm	sp, {fp, sp, lr}
 c102980:	e12fff1e 	bx	lr
 c102984:	0c1157b8 	.word	0x0c1157b8

0c102988 <checksum>:
 c102988:	e1a0c00d 	mov	ip, sp
 c10298c:	e92dd800 	push	{fp, ip, lr, pc}
 c102990:	e24cb004 	sub	fp, ip, #4
 c102994:	e24dd018 	sub	sp, sp, #24
 c102998:	e50b0020 	str	r0, [fp, #-32]	; 0xffffffe0
 c10299c:	e1a03001 	mov	r3, r1
 c1029a0:	e14b32b2 	strh	r3, [fp, #-34]	; 0xffffffde
 c1029a4:	e3a03000 	mov	r3, #0
 c1029a8:	e50b3014 	str	r3, [fp, #-20]	; 0xffffffec
 c1029ac:	e51b3020 	ldr	r3, [fp, #-32]	; 0xffffffe0
 c1029b0:	e50b3018 	str	r3, [fp, #-24]	; 0xffffffe8
 c1029b4:	e3a03000 	mov	r3, #0
 c1029b8:	e14b30be 	strh	r3, [fp, #-14]
 c1029bc:	ea000017 	b	c102a20 <checksum+0x98>
 c1029c0:	e15b30be 	ldrh	r3, [fp, #-14]
 c1029c4:	e1a03083 	lsl	r3, r3, #1
 c1029c8:	e51b2018 	ldr	r2, [fp, #-24]	; 0xffffffe8
 c1029cc:	e0823003 	add	r3, r2, r3
 c1029d0:	e1d330b0 	ldrh	r3, [r3]
 c1029d4:	e1a03403 	lsl	r3, r3, #8
 c1029d8:	e1a03803 	lsl	r3, r3, #16
 c1029dc:	e1a03823 	lsr	r3, r3, #16
 c1029e0:	e15b20be 	ldrh	r2, [fp, #-14]
 c1029e4:	e1a02082 	lsl	r2, r2, #1
 c1029e8:	e51b1018 	ldr	r1, [fp, #-24]	; 0xffffffe8
 c1029ec:	e0812002 	add	r2, r1, r2
 c1029f0:	e1d220b0 	ldrh	r2, [r2]
 c1029f4:	e1a02422 	lsr	r2, r2, #8
 c1029f8:	e1a02802 	lsl	r2, r2, #16
 c1029fc:	e1a02822 	lsr	r2, r2, #16
 c102a00:	e20220ff 	and	r2, r2, #255	; 0xff
 c102a04:	e1833002 	orr	r3, r3, r2
 c102a08:	e51b2014 	ldr	r2, [fp, #-20]	; 0xffffffec
 c102a0c:	e0823003 	add	r3, r2, r3
 c102a10:	e50b3014 	str	r3, [fp, #-20]	; 0xffffffec
 c102a14:	e15b30be 	ldrh	r3, [fp, #-14]
 c102a18:	e2833001 	add	r3, r3, #1
 c102a1c:	e14b30be 	strh	r3, [fp, #-14]
 c102a20:	e15b32b2 	ldrh	r3, [fp, #-34]	; 0xffffffde
 c102a24:	e1a030a3 	lsr	r3, r3, #1
 c102a28:	e1a03803 	lsl	r3, r3, #16
 c102a2c:	e1a03823 	lsr	r3, r3, #16
 c102a30:	e15b20be 	ldrh	r2, [fp, #-14]
 c102a34:	e1520003 	cmp	r2, r3
 c102a38:	3affffe0 	bcc	c1029c0 <checksum+0x38>
 c102a3c:	e51b3014 	ldr	r3, [fp, #-20]	; 0xffffffec
 c102a40:	e1a03823 	lsr	r3, r3, #16
 c102a44:	e1a03803 	lsl	r3, r3, #16
 c102a48:	e1a02823 	lsr	r2, r3, #16
 c102a4c:	e51b3014 	ldr	r3, [fp, #-20]	; 0xffffffec
 c102a50:	e1a03803 	lsl	r3, r3, #16
 c102a54:	e1a03823 	lsr	r3, r3, #16
 c102a58:	e0823003 	add	r3, r2, r3
 c102a5c:	e1a03803 	lsl	r3, r3, #16
 c102a60:	e1a03823 	lsr	r3, r3, #16
 c102a64:	e1e03003 	mvn	r3, r3
 c102a68:	e1a03803 	lsl	r3, r3, #16
 c102a6c:	e1a03823 	lsr	r3, r3, #16
 c102a70:	e1a00003 	mov	r0, r3
 c102a74:	e24bd00c 	sub	sp, fp, #12
 c102a78:	e89d6800 	ldm	sp, {fp, sp, lr}
 c102a7c:	e12fff1e 	bx	lr

0c102a80 <uart0_putMac>:
 c102a80:	e1a0c00d 	mov	ip, sp
 c102a84:	e92dd800 	push	{fp, ip, lr, pc}
 c102a88:	e24cb004 	sub	fp, ip, #4
 c102a8c:	e24dd010 	sub	sp, sp, #16
 c102a90:	e50b0018 	str	r0, [fp, #-24]	; 0xffffffe8
 c102a94:	e3a03000 	mov	r3, #0
 c102a98:	e54b300d 	strb	r3, [fp, #-13]
 c102a9c:	ea000013 	b	c102af0 <uart0_putMac+0x70>
 c102aa0:	e55b300d 	ldrb	r3, [fp, #-13]
 c102aa4:	e51b2018 	ldr	r2, [fp, #-24]	; 0xffffffe8
 c102aa8:	e0823003 	add	r3, r2, r3
 c102aac:	e5d33000 	ldrb	r3, [r3]
 c102ab0:	e1a03223 	lsr	r3, r3, #4
 c102ab4:	e20330ff 	and	r3, r3, #255	; 0xff
 c102ab8:	e1a00003 	mov	r0, r3
 c102abc:	eb0019ae 	bl	c10917c <uart0_puthex>
 c102ac0:	e55b300d 	ldrb	r3, [fp, #-13]
 c102ac4:	e51b2018 	ldr	r2, [fp, #-24]	; 0xffffffe8
 c102ac8:	e0823003 	add	r3, r2, r3
 c102acc:	e5d33000 	ldrb	r3, [r3]
 c102ad0:	e203300f 	and	r3, r3, #15
 c102ad4:	e1a00003 	mov	r0, r3
 c102ad8:	eb0019a7 	bl	c10917c <uart0_puthex>
 c102adc:	e3a0003a 	mov	r0, #58	; 0x3a
 c102ae0:	eb001914 	bl	c108f38 <uart0_putchar>
 c102ae4:	e55b300d 	ldrb	r3, [fp, #-13]
 c102ae8:	e2833001 	add	r3, r3, #1
 c102aec:	e54b300d 	strb	r3, [fp, #-13]
 c102af0:	e55b300d 	ldrb	r3, [fp, #-13]
 c102af4:	e3530004 	cmp	r3, #4
 c102af8:	9affffe8 	bls	c102aa0 <uart0_putMac+0x20>
 c102afc:	e55b300d 	ldrb	r3, [fp, #-13]
 c102b00:	e51b2018 	ldr	r2, [fp, #-24]	; 0xffffffe8
 c102b04:	e0823003 	add	r3, r2, r3
 c102b08:	e5d33000 	ldrb	r3, [r3]
 c102b0c:	e1a03223 	lsr	r3, r3, #4
 c102b10:	e20330ff 	and	r3, r3, #255	; 0xff
 c102b14:	e1a00003 	mov	r0, r3
 c102b18:	eb001997 	bl	c10917c <uart0_puthex>
 c102b1c:	e55b300d 	ldrb	r3, [fp, #-13]
 c102b20:	e51b2018 	ldr	r2, [fp, #-24]	; 0xffffffe8
 c102b24:	e0823003 	add	r3, r2, r3
 c102b28:	e5d33000 	ldrb	r3, [r3]
 c102b2c:	e203300f 	and	r3, r3, #15
 c102b30:	e1a00003 	mov	r0, r3
 c102b34:	eb001990 	bl	c10917c <uart0_puthex>
 c102b38:	e24bd00c 	sub	sp, fp, #12
 c102b3c:	e89d6800 	ldm	sp, {fp, sp, lr}
 c102b40:	e12fff1e 	bx	lr

0c102b44 <uart0_putIp>:
 c102b44:	e1a0c00d 	mov	ip, sp
 c102b48:	e92dd800 	push	{fp, ip, lr, pc}
 c102b4c:	e24cb004 	sub	fp, ip, #4
 c102b50:	e24dd008 	sub	sp, sp, #8
 c102b54:	e50b0010 	str	r0, [fp, #-16]
 c102b58:	e51b3010 	ldr	r3, [fp, #-16]
 c102b5c:	e1a03c23 	lsr	r3, r3, #24
 c102b60:	e1a00003 	mov	r0, r3
 c102b64:	eb00192f 	bl	c109028 <uart0_putint>
 c102b68:	e3a0002e 	mov	r0, #46	; 0x2e
 c102b6c:	eb0018f1 	bl	c108f38 <uart0_putchar>
 c102b70:	e51b3010 	ldr	r3, [fp, #-16]
 c102b74:	e20338ff 	and	r3, r3, #16711680	; 0xff0000
 c102b78:	e1a03823 	lsr	r3, r3, #16
 c102b7c:	e1a00003 	mov	r0, r3
 c102b80:	eb001928 	bl	c109028 <uart0_putint>
 c102b84:	e3a0002e 	mov	r0, #46	; 0x2e
 c102b88:	eb0018ea 	bl	c108f38 <uart0_putchar>
 c102b8c:	e51b3010 	ldr	r3, [fp, #-16]
 c102b90:	e2033cff 	and	r3, r3, #65280	; 0xff00
 c102b94:	e1a03423 	lsr	r3, r3, #8
 c102b98:	e1a00003 	mov	r0, r3
 c102b9c:	eb001921 	bl	c109028 <uart0_putint>
 c102ba0:	e3a0002e 	mov	r0, #46	; 0x2e
 c102ba4:	eb0018e3 	bl	c108f38 <uart0_putchar>
 c102ba8:	e51b3010 	ldr	r3, [fp, #-16]
 c102bac:	e20330ff 	and	r3, r3, #255	; 0xff
 c102bb0:	e1a00003 	mov	r0, r3
 c102bb4:	eb00191b 	bl	c109028 <uart0_putint>
 c102bb8:	e24bd00c 	sub	sp, fp, #12
 c102bbc:	e89d6800 	ldm	sp, {fp, sp, lr}
 c102bc0:	e12fff1e 	bx	lr

0c102bc4 <uart0_putEthHeader>:
 c102bc4:	e1a0c00d 	mov	ip, sp
 c102bc8:	e92dd800 	push	{fp, ip, lr, pc}
 c102bcc:	e24cb004 	sub	fp, ip, #4
 c102bd0:	e24dd010 	sub	sp, sp, #16
 c102bd4:	e50b0018 	str	r0, [fp, #-24]	; 0xffffffe8
 c102bd8:	e51b3018 	ldr	r3, [fp, #-24]	; 0xffffffe8
 c102bdc:	e50b3010 	str	r3, [fp, #-16]
 c102be0:	e59f006c 	ldr	r0, [pc, #108]	; c102c54 <uart0_putEthHeader+0x90>
 c102be4:	eb0018fb 	bl	c108fd8 <uart0_puts>
 c102be8:	e59f0068 	ldr	r0, [pc, #104]	; c102c58 <uart0_putEthHeader+0x94>
 c102bec:	eb0018f9 	bl	c108fd8 <uart0_puts>
 c102bf0:	e51b3010 	ldr	r3, [fp, #-16]
 c102bf4:	e5d3200c 	ldrb	r2, [r3, #12]
 c102bf8:	e5d3300d 	ldrb	r3, [r3, #13]
 c102bfc:	e1a03403 	lsl	r3, r3, #8
 c102c00:	e1833002 	orr	r3, r3, r2
 c102c04:	e1a03803 	lsl	r3, r3, #16
 c102c08:	e1a03823 	lsr	r3, r3, #16
 c102c0c:	e1a00003 	mov	r0, r3
 c102c10:	eb001959 	bl	c10917c <uart0_puthex>
 c102c14:	e59f0040 	ldr	r0, [pc, #64]	; c102c5c <uart0_putEthHeader+0x98>
 c102c18:	eb0018ee 	bl	c108fd8 <uart0_puts>
 c102c1c:	e51b3010 	ldr	r3, [fp, #-16]
 c102c20:	e1a00003 	mov	r0, r3
 c102c24:	ebffff95 	bl	c102a80 <uart0_putMac>
 c102c28:	e59f0030 	ldr	r0, [pc, #48]	; c102c60 <uart0_putEthHeader+0x9c>
 c102c2c:	eb0018e9 	bl	c108fd8 <uart0_puts>
 c102c30:	e51b3010 	ldr	r3, [fp, #-16]
 c102c34:	e2833006 	add	r3, r3, #6
 c102c38:	e1a00003 	mov	r0, r3
 c102c3c:	ebffff8f 	bl	c102a80 <uart0_putMac>
 c102c40:	e3a0000a 	mov	r0, #10
 c102c44:	eb0018bb 	bl	c108f38 <uart0_putchar>
 c102c48:	e24bd00c 	sub	sp, fp, #12
 c102c4c:	e89d6800 	ldm	sp, {fp, sp, lr}
 c102c50:	e12fff1e 	bx	lr
 c102c54:	0c10a73c 	.word	0x0c10a73c
 c102c58:	0c10a750 	.word	0x0c10a750
 c102c5c:	0c10a758 	.word	0x0c10a758
 c102c60:	0c10a760 	.word	0x0c10a760

0c102c64 <uart0_putArpHeader>:
 c102c64:	e1a0c00d 	mov	ip, sp
 c102c68:	e92dd800 	push	{fp, ip, lr, pc}
 c102c6c:	e24cb004 	sub	fp, ip, #4
 c102c70:	e24dd010 	sub	sp, sp, #16
 c102c74:	e50b0018 	str	r0, [fp, #-24]	; 0xffffffe8
 c102c78:	e51b3018 	ldr	r3, [fp, #-24]	; 0xffffffe8
 c102c7c:	e50b3010 	str	r3, [fp, #-16]
 c102c80:	e59f029c 	ldr	r0, [pc, #668]	; c102f24 <uart0_putArpHeader+0x2c0>
 c102c84:	eb0018d3 	bl	c108fd8 <uart0_puts>
 c102c88:	e59f0298 	ldr	r0, [pc, #664]	; c102f28 <uart0_putArpHeader+0x2c4>
 c102c8c:	eb0018d1 	bl	c108fd8 <uart0_puts>
 c102c90:	e51b3010 	ldr	r3, [fp, #-16]
 c102c94:	e5d32006 	ldrb	r2, [r3, #6]
 c102c98:	e5d33007 	ldrb	r3, [r3, #7]
 c102c9c:	e1a03403 	lsl	r3, r3, #8
 c102ca0:	e1833002 	orr	r3, r3, r2
 c102ca4:	e1a03803 	lsl	r3, r3, #16
 c102ca8:	e1a03823 	lsr	r3, r3, #16
 c102cac:	e3530c01 	cmp	r3, #256	; 0x100
 c102cb0:	1a000002 	bne	c102cc0 <uart0_putArpHeader+0x5c>
 c102cb4:	e59f0270 	ldr	r0, [pc, #624]	; c102f2c <uart0_putArpHeader+0x2c8>
 c102cb8:	eb0018c6 	bl	c108fd8 <uart0_puts>
 c102cbc:	ea00000d 	b	c102cf8 <uart0_putArpHeader+0x94>
 c102cc0:	e51b3010 	ldr	r3, [fp, #-16]
 c102cc4:	e5d32006 	ldrb	r2, [r3, #6]
 c102cc8:	e5d33007 	ldrb	r3, [r3, #7]
 c102ccc:	e1a03403 	lsl	r3, r3, #8
 c102cd0:	e1833002 	orr	r3, r3, r2
 c102cd4:	e1a03803 	lsl	r3, r3, #16
 c102cd8:	e1a03823 	lsr	r3, r3, #16
 c102cdc:	e3530c02 	cmp	r3, #512	; 0x200
 c102ce0:	1a000002 	bne	c102cf0 <uart0_putArpHeader+0x8c>
 c102ce4:	e59f0244 	ldr	r0, [pc, #580]	; c102f30 <uart0_putArpHeader+0x2cc>
 c102ce8:	eb0018ba 	bl	c108fd8 <uart0_puts>
 c102cec:	ea000001 	b	c102cf8 <uart0_putArpHeader+0x94>
 c102cf0:	e59f023c 	ldr	r0, [pc, #572]	; c102f34 <uart0_putArpHeader+0x2d0>
 c102cf4:	eb0018b7 	bl	c108fd8 <uart0_puts>
 c102cf8:	e3a0000a 	mov	r0, #10
 c102cfc:	eb00188d 	bl	c108f38 <uart0_putchar>
 c102d00:	e59f0230 	ldr	r0, [pc, #560]	; c102f38 <uart0_putArpHeader+0x2d4>
 c102d04:	eb0018b3 	bl	c108fd8 <uart0_puts>
 c102d08:	e51b3010 	ldr	r3, [fp, #-16]
 c102d0c:	e2833008 	add	r3, r3, #8
 c102d10:	e1a00003 	mov	r0, r3
 c102d14:	ebffff59 	bl	c102a80 <uart0_putMac>
 c102d18:	e3a0000a 	mov	r0, #10
 c102d1c:	eb001885 	bl	c108f38 <uart0_putchar>
 c102d20:	e59f0214 	ldr	r0, [pc, #532]	; c102f3c <uart0_putArpHeader+0x2d8>
 c102d24:	eb0018ab 	bl	c108fd8 <uart0_puts>
 c102d28:	e51b3010 	ldr	r3, [fp, #-16]
 c102d2c:	e5d3200e 	ldrb	r2, [r3, #14]
 c102d30:	e5d3100f 	ldrb	r1, [r3, #15]
 c102d34:	e1a01401 	lsl	r1, r1, #8
 c102d38:	e1812002 	orr	r2, r1, r2
 c102d3c:	e5d31010 	ldrb	r1, [r3, #16]
 c102d40:	e1a01801 	lsl	r1, r1, #16
 c102d44:	e1812002 	orr	r2, r1, r2
 c102d48:	e5d33011 	ldrb	r3, [r3, #17]
 c102d4c:	e1a03c03 	lsl	r3, r3, #24
 c102d50:	e1833002 	orr	r3, r3, r2
 c102d54:	e1a02c03 	lsl	r2, r3, #24
 c102d58:	e51b3010 	ldr	r3, [fp, #-16]
 c102d5c:	e5d3100e 	ldrb	r1, [r3, #14]
 c102d60:	e5d3000f 	ldrb	r0, [r3, #15]
 c102d64:	e1a00400 	lsl	r0, r0, #8
 c102d68:	e1801001 	orr	r1, r0, r1
 c102d6c:	e5d30010 	ldrb	r0, [r3, #16]
 c102d70:	e1a00800 	lsl	r0, r0, #16
 c102d74:	e1801001 	orr	r1, r0, r1
 c102d78:	e5d33011 	ldrb	r3, [r3, #17]
 c102d7c:	e1a03c03 	lsl	r3, r3, #24
 c102d80:	e1833001 	orr	r3, r3, r1
 c102d84:	e1a03403 	lsl	r3, r3, #8
 c102d88:	e20338ff 	and	r3, r3, #16711680	; 0xff0000
 c102d8c:	e1822003 	orr	r2, r2, r3
 c102d90:	e51b3010 	ldr	r3, [fp, #-16]
 c102d94:	e5d3100e 	ldrb	r1, [r3, #14]
 c102d98:	e5d3000f 	ldrb	r0, [r3, #15]
 c102d9c:	e1a00400 	lsl	r0, r0, #8
 c102da0:	e1801001 	orr	r1, r0, r1
 c102da4:	e5d30010 	ldrb	r0, [r3, #16]
 c102da8:	e1a00800 	lsl	r0, r0, #16
 c102dac:	e1801001 	orr	r1, r0, r1
 c102db0:	e5d33011 	ldrb	r3, [r3, #17]
 c102db4:	e1a03c03 	lsl	r3, r3, #24
 c102db8:	e1833001 	orr	r3, r3, r1
 c102dbc:	e1a03423 	lsr	r3, r3, #8
 c102dc0:	e2033cff 	and	r3, r3, #65280	; 0xff00
 c102dc4:	e1822003 	orr	r2, r2, r3
 c102dc8:	e51b3010 	ldr	r3, [fp, #-16]
 c102dcc:	e5d3100e 	ldrb	r1, [r3, #14]
 c102dd0:	e5d3000f 	ldrb	r0, [r3, #15]
 c102dd4:	e1a00400 	lsl	r0, r0, #8
 c102dd8:	e1801001 	orr	r1, r0, r1
 c102ddc:	e5d30010 	ldrb	r0, [r3, #16]
 c102de0:	e1a00800 	lsl	r0, r0, #16
 c102de4:	e1801001 	orr	r1, r0, r1
 c102de8:	e5d33011 	ldrb	r3, [r3, #17]
 c102dec:	e1a03c03 	lsl	r3, r3, #24
 c102df0:	e1833001 	orr	r3, r3, r1
 c102df4:	e1a03c23 	lsr	r3, r3, #24
 c102df8:	e1823003 	orr	r3, r2, r3
 c102dfc:	e1a00003 	mov	r0, r3
 c102e00:	ebffff4f 	bl	c102b44 <uart0_putIp>
 c102e04:	e3a0000a 	mov	r0, #10
 c102e08:	eb00184a 	bl	c108f38 <uart0_putchar>
 c102e0c:	e59f012c 	ldr	r0, [pc, #300]	; c102f40 <uart0_putArpHeader+0x2dc>
 c102e10:	eb001870 	bl	c108fd8 <uart0_puts>
 c102e14:	e51b3010 	ldr	r3, [fp, #-16]
 c102e18:	e2833012 	add	r3, r3, #18
 c102e1c:	e1a00003 	mov	r0, r3
 c102e20:	ebffff16 	bl	c102a80 <uart0_putMac>
 c102e24:	e3a0000a 	mov	r0, #10
 c102e28:	eb001842 	bl	c108f38 <uart0_putchar>
 c102e2c:	e59f0110 	ldr	r0, [pc, #272]	; c102f44 <uart0_putArpHeader+0x2e0>
 c102e30:	eb001868 	bl	c108fd8 <uart0_puts>
 c102e34:	e51b3010 	ldr	r3, [fp, #-16]
 c102e38:	e5d32018 	ldrb	r2, [r3, #24]
 c102e3c:	e5d31019 	ldrb	r1, [r3, #25]
 c102e40:	e1a01401 	lsl	r1, r1, #8
 c102e44:	e1812002 	orr	r2, r1, r2
 c102e48:	e5d3101a 	ldrb	r1, [r3, #26]
 c102e4c:	e1a01801 	lsl	r1, r1, #16
 c102e50:	e1812002 	orr	r2, r1, r2
 c102e54:	e5d3301b 	ldrb	r3, [r3, #27]
 c102e58:	e1a03c03 	lsl	r3, r3, #24
 c102e5c:	e1833002 	orr	r3, r3, r2
 c102e60:	e1a02c03 	lsl	r2, r3, #24
 c102e64:	e51b3010 	ldr	r3, [fp, #-16]
 c102e68:	e5d31018 	ldrb	r1, [r3, #24]
 c102e6c:	e5d30019 	ldrb	r0, [r3, #25]
 c102e70:	e1a00400 	lsl	r0, r0, #8
 c102e74:	e1801001 	orr	r1, r0, r1
 c102e78:	e5d3001a 	ldrb	r0, [r3, #26]
 c102e7c:	e1a00800 	lsl	r0, r0, #16
 c102e80:	e1801001 	orr	r1, r0, r1
 c102e84:	e5d3301b 	ldrb	r3, [r3, #27]
 c102e88:	e1a03c03 	lsl	r3, r3, #24
 c102e8c:	e1833001 	orr	r3, r3, r1
 c102e90:	e1a03403 	lsl	r3, r3, #8
 c102e94:	e20338ff 	and	r3, r3, #16711680	; 0xff0000
 c102e98:	e1822003 	orr	r2, r2, r3
 c102e9c:	e51b3010 	ldr	r3, [fp, #-16]
 c102ea0:	e5d31018 	ldrb	r1, [r3, #24]
 c102ea4:	e5d30019 	ldrb	r0, [r3, #25]
 c102ea8:	e1a00400 	lsl	r0, r0, #8
 c102eac:	e1801001 	orr	r1, r0, r1
 c102eb0:	e5d3001a 	ldrb	r0, [r3, #26]
 c102eb4:	e1a00800 	lsl	r0, r0, #16
 c102eb8:	e1801001 	orr	r1, r0, r1
 c102ebc:	e5d3301b 	ldrb	r3, [r3, #27]
 c102ec0:	e1a03c03 	lsl	r3, r3, #24
 c102ec4:	e1833001 	orr	r3, r3, r1
 c102ec8:	e1a03423 	lsr	r3, r3, #8
 c102ecc:	e2033cff 	and	r3, r3, #65280	; 0xff00
 c102ed0:	e1822003 	orr	r2, r2, r3
 c102ed4:	e51b3010 	ldr	r3, [fp, #-16]
 c102ed8:	e5d31018 	ldrb	r1, [r3, #24]
 c102edc:	e5d30019 	ldrb	r0, [r3, #25]
 c102ee0:	e1a00400 	lsl	r0, r0, #8
 c102ee4:	e1801001 	orr	r1, r0, r1
 c102ee8:	e5d3001a 	ldrb	r0, [r3, #26]
 c102eec:	e1a00800 	lsl	r0, r0, #16
 c102ef0:	e1801001 	orr	r1, r0, r1
 c102ef4:	e5d3301b 	ldrb	r3, [r3, #27]
 c102ef8:	e1a03c03 	lsl	r3, r3, #24
 c102efc:	e1833001 	orr	r3, r3, r1
 c102f00:	e1a03c23 	lsr	r3, r3, #24
 c102f04:	e1823003 	orr	r3, r2, r3
 c102f08:	e1a00003 	mov	r0, r3
 c102f0c:	ebffff0c 	bl	c102b44 <uart0_putIp>
 c102f10:	e3a0000a 	mov	r0, #10
 c102f14:	eb001807 	bl	c108f38 <uart0_putchar>
 c102f18:	e24bd00c 	sub	sp, fp, #12
 c102f1c:	e89d6800 	ldm	sp, {fp, sp, lr}
 c102f20:	e12fff1e 	bx	lr
 c102f24:	0c10a76c 	.word	0x0c10a76c
 c102f28:	0c10a77c 	.word	0x0c10a77c
 c102f2c:	0c10a78c 	.word	0x0c10a78c
 c102f30:	0c10a794 	.word	0x0c10a794
 c102f34:	0c10a79c 	.word	0x0c10a79c
 c102f38:	0c10a7a4 	.word	0x0c10a7a4
 c102f3c:	0c10a7b4 	.word	0x0c10a7b4
 c102f40:	0c10a7c4 	.word	0x0c10a7c4
 c102f44:	0c10a7d4 	.word	0x0c10a7d4

0c102f48 <uart0_putIpHeader>:
 c102f48:	e1a0c00d 	mov	ip, sp
 c102f4c:	e92dd800 	push	{fp, ip, lr, pc}
 c102f50:	e24cb004 	sub	fp, ip, #4
 c102f54:	e24dd010 	sub	sp, sp, #16
 c102f58:	e50b0018 	str	r0, [fp, #-24]	; 0xffffffe8
 c102f5c:	e51b3018 	ldr	r3, [fp, #-24]	; 0xffffffe8
 c102f60:	e50b3010 	str	r3, [fp, #-16]
 c102f64:	e59f048c 	ldr	r0, [pc, #1164]	; c1033f8 <uart0_putIpHeader+0x4b0>
 c102f68:	eb00181a 	bl	c108fd8 <uart0_puts>
 c102f6c:	e59f0488 	ldr	r0, [pc, #1160]	; c1033fc <uart0_putIpHeader+0x4b4>
 c102f70:	eb001818 	bl	c108fd8 <uart0_puts>
 c102f74:	e51b3010 	ldr	r3, [fp, #-16]
 c102f78:	e5d33000 	ldrb	r3, [r3]
 c102f7c:	e1a03223 	lsr	r3, r3, #4
 c102f80:	e20330ff 	and	r3, r3, #255	; 0xff
 c102f84:	e1a03243 	asr	r3, r3, #4
 c102f88:	e1a00003 	mov	r0, r3
 c102f8c:	eb001825 	bl	c109028 <uart0_putint>
 c102f90:	e3a0000a 	mov	r0, #10
 c102f94:	eb0017e7 	bl	c108f38 <uart0_putchar>
 c102f98:	e59f0460 	ldr	r0, [pc, #1120]	; c103400 <uart0_putIpHeader+0x4b8>
 c102f9c:	eb00180d 	bl	c108fd8 <uart0_puts>
 c102fa0:	e51b3010 	ldr	r3, [fp, #-16]
 c102fa4:	e5d33009 	ldrb	r3, [r3, #9]
 c102fa8:	e3530006 	cmp	r3, #6
 c102fac:	0a000006 	beq	c102fcc <uart0_putIpHeader+0x84>
 c102fb0:	e3530011 	cmp	r3, #17
 c102fb4:	0a000007 	beq	c102fd8 <uart0_putIpHeader+0x90>
 c102fb8:	e3530001 	cmp	r3, #1
 c102fbc:	1a000008 	bne	c102fe4 <uart0_putIpHeader+0x9c>
 c102fc0:	e59f043c 	ldr	r0, [pc, #1084]	; c103404 <uart0_putIpHeader+0x4bc>
 c102fc4:	eb001803 	bl	c108fd8 <uart0_puts>
 c102fc8:	ea000008 	b	c102ff0 <uart0_putIpHeader+0xa8>
 c102fcc:	e59f0434 	ldr	r0, [pc, #1076]	; c103408 <uart0_putIpHeader+0x4c0>
 c102fd0:	eb001800 	bl	c108fd8 <uart0_puts>
 c102fd4:	ea000005 	b	c102ff0 <uart0_putIpHeader+0xa8>
 c102fd8:	e59f042c 	ldr	r0, [pc, #1068]	; c10340c <uart0_putIpHeader+0x4c4>
 c102fdc:	eb0017fd 	bl	c108fd8 <uart0_puts>
 c102fe0:	ea000002 	b	c102ff0 <uart0_putIpHeader+0xa8>
 c102fe4:	e59f0424 	ldr	r0, [pc, #1060]	; c103410 <uart0_putIpHeader+0x4c8>
 c102fe8:	eb0017fa 	bl	c108fd8 <uart0_puts>
 c102fec:	e1a00000 	nop			; (mov r0, r0)
 c102ff0:	e3a0000a 	mov	r0, #10
 c102ff4:	eb0017cf 	bl	c108f38 <uart0_putchar>
 c102ff8:	e59f0414 	ldr	r0, [pc, #1044]	; c103414 <uart0_putIpHeader+0x4cc>
 c102ffc:	eb0017f5 	bl	c108fd8 <uart0_puts>
 c103000:	e51b3010 	ldr	r3, [fp, #-16]
 c103004:	e5d3200c 	ldrb	r2, [r3, #12]
 c103008:	e5d3100d 	ldrb	r1, [r3, #13]
 c10300c:	e1a01401 	lsl	r1, r1, #8
 c103010:	e1812002 	orr	r2, r1, r2
 c103014:	e5d3100e 	ldrb	r1, [r3, #14]
 c103018:	e1a01801 	lsl	r1, r1, #16
 c10301c:	e1812002 	orr	r2, r1, r2
 c103020:	e5d3300f 	ldrb	r3, [r3, #15]
 c103024:	e1a03c03 	lsl	r3, r3, #24
 c103028:	e1833002 	orr	r3, r3, r2
 c10302c:	e1a02c03 	lsl	r2, r3, #24
 c103030:	e51b3010 	ldr	r3, [fp, #-16]
 c103034:	e5d3100c 	ldrb	r1, [r3, #12]
 c103038:	e5d3000d 	ldrb	r0, [r3, #13]
 c10303c:	e1a00400 	lsl	r0, r0, #8
 c103040:	e1801001 	orr	r1, r0, r1
 c103044:	e5d3000e 	ldrb	r0, [r3, #14]
 c103048:	e1a00800 	lsl	r0, r0, #16
 c10304c:	e1801001 	orr	r1, r0, r1
 c103050:	e5d3300f 	ldrb	r3, [r3, #15]
 c103054:	e1a03c03 	lsl	r3, r3, #24
 c103058:	e1833001 	orr	r3, r3, r1
 c10305c:	e1a03403 	lsl	r3, r3, #8
 c103060:	e20338ff 	and	r3, r3, #16711680	; 0xff0000
 c103064:	e1822003 	orr	r2, r2, r3
 c103068:	e51b3010 	ldr	r3, [fp, #-16]
 c10306c:	e5d3100c 	ldrb	r1, [r3, #12]
 c103070:	e5d3000d 	ldrb	r0, [r3, #13]
 c103074:	e1a00400 	lsl	r0, r0, #8
 c103078:	e1801001 	orr	r1, r0, r1
 c10307c:	e5d3000e 	ldrb	r0, [r3, #14]
 c103080:	e1a00800 	lsl	r0, r0, #16
 c103084:	e1801001 	orr	r1, r0, r1
 c103088:	e5d3300f 	ldrb	r3, [r3, #15]
 c10308c:	e1a03c03 	lsl	r3, r3, #24
 c103090:	e1833001 	orr	r3, r3, r1
 c103094:	e1a03423 	lsr	r3, r3, #8
 c103098:	e2033cff 	and	r3, r3, #65280	; 0xff00
 c10309c:	e1822003 	orr	r2, r2, r3
 c1030a0:	e51b3010 	ldr	r3, [fp, #-16]
 c1030a4:	e5d3100c 	ldrb	r1, [r3, #12]
 c1030a8:	e5d3000d 	ldrb	r0, [r3, #13]
 c1030ac:	e1a00400 	lsl	r0, r0, #8
 c1030b0:	e1801001 	orr	r1, r0, r1
 c1030b4:	e5d3000e 	ldrb	r0, [r3, #14]
 c1030b8:	e1a00800 	lsl	r0, r0, #16
 c1030bc:	e1801001 	orr	r1, r0, r1
 c1030c0:	e5d3300f 	ldrb	r3, [r3, #15]
 c1030c4:	e1a03c03 	lsl	r3, r3, #24
 c1030c8:	e1833001 	orr	r3, r3, r1
 c1030cc:	e1a03c23 	lsr	r3, r3, #24
 c1030d0:	e1823003 	orr	r3, r2, r3
 c1030d4:	e1a00003 	mov	r0, r3
 c1030d8:	ebfffe99 	bl	c102b44 <uart0_putIp>
 c1030dc:	e3a0000a 	mov	r0, #10
 c1030e0:	eb001794 	bl	c108f38 <uart0_putchar>
 c1030e4:	e59f032c 	ldr	r0, [pc, #812]	; c103418 <uart0_putIpHeader+0x4d0>
 c1030e8:	eb0017ba 	bl	c108fd8 <uart0_puts>
 c1030ec:	e51b3010 	ldr	r3, [fp, #-16]
 c1030f0:	e5d32010 	ldrb	r2, [r3, #16]
 c1030f4:	e5d31011 	ldrb	r1, [r3, #17]
 c1030f8:	e1a01401 	lsl	r1, r1, #8
 c1030fc:	e1812002 	orr	r2, r1, r2
 c103100:	e5d31012 	ldrb	r1, [r3, #18]
 c103104:	e1a01801 	lsl	r1, r1, #16
 c103108:	e1812002 	orr	r2, r1, r2
 c10310c:	e5d33013 	ldrb	r3, [r3, #19]
 c103110:	e1a03c03 	lsl	r3, r3, #24
 c103114:	e1833002 	orr	r3, r3, r2
 c103118:	e1a02c03 	lsl	r2, r3, #24
 c10311c:	e51b3010 	ldr	r3, [fp, #-16]
 c103120:	e5d31010 	ldrb	r1, [r3, #16]
 c103124:	e5d30011 	ldrb	r0, [r3, #17]
 c103128:	e1a00400 	lsl	r0, r0, #8
 c10312c:	e1801001 	orr	r1, r0, r1
 c103130:	e5d30012 	ldrb	r0, [r3, #18]
 c103134:	e1a00800 	lsl	r0, r0, #16
 c103138:	e1801001 	orr	r1, r0, r1
 c10313c:	e5d33013 	ldrb	r3, [r3, #19]
 c103140:	e1a03c03 	lsl	r3, r3, #24
 c103144:	e1833001 	orr	r3, r3, r1
 c103148:	e1a03403 	lsl	r3, r3, #8
 c10314c:	e20338ff 	and	r3, r3, #16711680	; 0xff0000
 c103150:	e1822003 	orr	r2, r2, r3
 c103154:	e51b3010 	ldr	r3, [fp, #-16]
 c103158:	e5d31010 	ldrb	r1, [r3, #16]
 c10315c:	e5d30011 	ldrb	r0, [r3, #17]
 c103160:	e1a00400 	lsl	r0, r0, #8
 c103164:	e1801001 	orr	r1, r0, r1
 c103168:	e5d30012 	ldrb	r0, [r3, #18]
 c10316c:	e1a00800 	lsl	r0, r0, #16
 c103170:	e1801001 	orr	r1, r0, r1
 c103174:	e5d33013 	ldrb	r3, [r3, #19]
 c103178:	e1a03c03 	lsl	r3, r3, #24
 c10317c:	e1833001 	orr	r3, r3, r1
 c103180:	e1a03423 	lsr	r3, r3, #8
 c103184:	e2033cff 	and	r3, r3, #65280	; 0xff00
 c103188:	e1822003 	orr	r2, r2, r3
 c10318c:	e51b3010 	ldr	r3, [fp, #-16]
 c103190:	e5d31010 	ldrb	r1, [r3, #16]
 c103194:	e5d30011 	ldrb	r0, [r3, #17]
 c103198:	e1a00400 	lsl	r0, r0, #8
 c10319c:	e1801001 	orr	r1, r0, r1
 c1031a0:	e5d30012 	ldrb	r0, [r3, #18]
 c1031a4:	e1a00800 	lsl	r0, r0, #16
 c1031a8:	e1801001 	orr	r1, r0, r1
 c1031ac:	e5d33013 	ldrb	r3, [r3, #19]
 c1031b0:	e1a03c03 	lsl	r3, r3, #24
 c1031b4:	e1833001 	orr	r3, r3, r1
 c1031b8:	e1a03c23 	lsr	r3, r3, #24
 c1031bc:	e1823003 	orr	r3, r2, r3
 c1031c0:	e1a00003 	mov	r0, r3
 c1031c4:	ebfffe5e 	bl	c102b44 <uart0_putIp>
 c1031c8:	e3a0000a 	mov	r0, #10
 c1031cc:	eb001759 	bl	c108f38 <uart0_putchar>
 c1031d0:	e59f0244 	ldr	r0, [pc, #580]	; c10341c <uart0_putIpHeader+0x4d4>
 c1031d4:	eb00177f 	bl	c108fd8 <uart0_puts>
 c1031d8:	e51b3010 	ldr	r3, [fp, #-16]
 c1031dc:	e5d32002 	ldrb	r2, [r3, #2]
 c1031e0:	e5d33003 	ldrb	r3, [r3, #3]
 c1031e4:	e1a03403 	lsl	r3, r3, #8
 c1031e8:	e1833002 	orr	r3, r3, r2
 c1031ec:	e1a03803 	lsl	r3, r3, #16
 c1031f0:	e1a03823 	lsr	r3, r3, #16
 c1031f4:	e1a03c03 	lsl	r3, r3, #24
 c1031f8:	e1a02003 	mov	r2, r3
 c1031fc:	e51b3010 	ldr	r3, [fp, #-16]
 c103200:	e5d31002 	ldrb	r1, [r3, #2]
 c103204:	e5d33003 	ldrb	r3, [r3, #3]
 c103208:	e1a03403 	lsl	r3, r3, #8
 c10320c:	e1833001 	orr	r3, r3, r1
 c103210:	e1a03803 	lsl	r3, r3, #16
 c103214:	e1a03823 	lsr	r3, r3, #16
 c103218:	e1a03403 	lsl	r3, r3, #8
 c10321c:	e20338ff 	and	r3, r3, #16711680	; 0xff0000
 c103220:	e1822003 	orr	r2, r2, r3
 c103224:	e51b3010 	ldr	r3, [fp, #-16]
 c103228:	e5d31002 	ldrb	r1, [r3, #2]
 c10322c:	e5d33003 	ldrb	r3, [r3, #3]
 c103230:	e1a03403 	lsl	r3, r3, #8
 c103234:	e1833001 	orr	r3, r3, r1
 c103238:	e1a03803 	lsl	r3, r3, #16
 c10323c:	e1a03823 	lsr	r3, r3, #16
 c103240:	e1a03423 	lsr	r3, r3, #8
 c103244:	e1a03803 	lsl	r3, r3, #16
 c103248:	e1a03823 	lsr	r3, r3, #16
 c10324c:	e2033cff 	and	r3, r3, #65280	; 0xff00
 c103250:	e1822003 	orr	r2, r2, r3
 c103254:	e51b3010 	ldr	r3, [fp, #-16]
 c103258:	e5d31002 	ldrb	r1, [r3, #2]
 c10325c:	e5d33003 	ldrb	r3, [r3, #3]
 c103260:	e1a03403 	lsl	r3, r3, #8
 c103264:	e1833001 	orr	r3, r3, r1
 c103268:	e1a03803 	lsl	r3, r3, #16
 c10326c:	e1a03823 	lsr	r3, r3, #16
 c103270:	e1a03c43 	asr	r3, r3, #24
 c103274:	e20330ff 	and	r3, r3, #255	; 0xff
 c103278:	e1823003 	orr	r3, r2, r3
 c10327c:	e1a00003 	mov	r0, r3
 c103280:	ebfffe2f 	bl	c102b44 <uart0_putIp>
 c103284:	e3a0000a 	mov	r0, #10
 c103288:	eb00172a 	bl	c108f38 <uart0_putchar>
 c10328c:	e59f018c 	ldr	r0, [pc, #396]	; c103420 <uart0_putIpHeader+0x4d8>
 c103290:	eb001750 	bl	c108fd8 <uart0_puts>
 c103294:	e51b3010 	ldr	r3, [fp, #-16]
 c103298:	e5d32006 	ldrb	r2, [r3, #6]
 c10329c:	e5d33007 	ldrb	r3, [r3, #7]
 c1032a0:	e1a03403 	lsl	r3, r3, #8
 c1032a4:	e1833002 	orr	r3, r3, r2
 c1032a8:	e1a03803 	lsl	r3, r3, #16
 c1032ac:	e1a03823 	lsr	r3, r3, #16
 c1032b0:	e1a03403 	lsl	r3, r3, #8
 c1032b4:	e1a03803 	lsl	r3, r3, #16
 c1032b8:	e1a03823 	lsr	r3, r3, #16
 c1032bc:	e51b2010 	ldr	r2, [fp, #-16]
 c1032c0:	e5d21006 	ldrb	r1, [r2, #6]
 c1032c4:	e5d22007 	ldrb	r2, [r2, #7]
 c1032c8:	e1a02402 	lsl	r2, r2, #8
 c1032cc:	e1822001 	orr	r2, r2, r1
 c1032d0:	e1a02802 	lsl	r2, r2, #16
 c1032d4:	e1a02822 	lsr	r2, r2, #16
 c1032d8:	e1a02422 	lsr	r2, r2, #8
 c1032dc:	e1a02802 	lsl	r2, r2, #16
 c1032e0:	e1a02822 	lsr	r2, r2, #16
 c1032e4:	e20220ff 	and	r2, r2, #255	; 0xff
 c1032e8:	e1833002 	orr	r3, r3, r2
 c1032ec:	e1a03983 	lsl	r3, r3, #19
 c1032f0:	e1a039a3 	lsr	r3, r3, #19
 c1032f4:	e1a00003 	mov	r0, r3
 c1032f8:	ebfffe11 	bl	c102b44 <uart0_putIp>
 c1032fc:	e3a0000a 	mov	r0, #10
 c103300:	eb00170c 	bl	c108f38 <uart0_putchar>
 c103304:	e59f0118 	ldr	r0, [pc, #280]	; c103424 <uart0_putIpHeader+0x4dc>
 c103308:	eb001732 	bl	c108fd8 <uart0_puts>
 c10330c:	e51b3010 	ldr	r3, [fp, #-16]
 c103310:	e5d32006 	ldrb	r2, [r3, #6]
 c103314:	e5d33007 	ldrb	r3, [r3, #7]
 c103318:	e1a03403 	lsl	r3, r3, #8
 c10331c:	e1833002 	orr	r3, r3, r2
 c103320:	e1a03803 	lsl	r3, r3, #16
 c103324:	e1a03823 	lsr	r3, r3, #16
 c103328:	e1a03403 	lsl	r3, r3, #8
 c10332c:	e1a03803 	lsl	r3, r3, #16
 c103330:	e1a03823 	lsr	r3, r3, #16
 c103334:	e51b2010 	ldr	r2, [fp, #-16]
 c103338:	e5d21006 	ldrb	r1, [r2, #6]
 c10333c:	e5d22007 	ldrb	r2, [r2, #7]
 c103340:	e1a02402 	lsl	r2, r2, #8
 c103344:	e1822001 	orr	r2, r2, r1
 c103348:	e1a02802 	lsl	r2, r2, #16
 c10334c:	e1a02822 	lsr	r2, r2, #16
 c103350:	e1a02422 	lsr	r2, r2, #8
 c103354:	e1a02802 	lsl	r2, r2, #16
 c103358:	e1a02822 	lsr	r2, r2, #16
 c10335c:	e20220ff 	and	r2, r2, #255	; 0xff
 c103360:	e1833002 	orr	r3, r3, r2
 c103364:	e2033901 	and	r3, r3, #16384	; 0x4000
 c103368:	e3530000 	cmp	r3, #0
 c10336c:	0a000001 	beq	c103378 <uart0_putIpHeader+0x430>
 c103370:	e59f00b0 	ldr	r0, [pc, #176]	; c103428 <uart0_putIpHeader+0x4e0>
 c103374:	eb001717 	bl	c108fd8 <uart0_puts>
 c103378:	e51b3010 	ldr	r3, [fp, #-16]
 c10337c:	e5d32006 	ldrb	r2, [r3, #6]
 c103380:	e5d33007 	ldrb	r3, [r3, #7]
 c103384:	e1a03403 	lsl	r3, r3, #8
 c103388:	e1833002 	orr	r3, r3, r2
 c10338c:	e1a03803 	lsl	r3, r3, #16
 c103390:	e1a03823 	lsr	r3, r3, #16
 c103394:	e1a03403 	lsl	r3, r3, #8
 c103398:	e1a03803 	lsl	r3, r3, #16
 c10339c:	e1a03823 	lsr	r3, r3, #16
 c1033a0:	e51b2010 	ldr	r2, [fp, #-16]
 c1033a4:	e5d21006 	ldrb	r1, [r2, #6]
 c1033a8:	e5d22007 	ldrb	r2, [r2, #7]
 c1033ac:	e1a02402 	lsl	r2, r2, #8
 c1033b0:	e1822001 	orr	r2, r2, r1
 c1033b4:	e1a02802 	lsl	r2, r2, #16
 c1033b8:	e1a02822 	lsr	r2, r2, #16
 c1033bc:	e1a02422 	lsr	r2, r2, #8
 c1033c0:	e1a02802 	lsl	r2, r2, #16
 c1033c4:	e1a02822 	lsr	r2, r2, #16
 c1033c8:	e20220ff 	and	r2, r2, #255	; 0xff
 c1033cc:	e1833002 	orr	r3, r3, r2
 c1033d0:	e2033a02 	and	r3, r3, #8192	; 0x2000
 c1033d4:	e3530000 	cmp	r3, #0
 c1033d8:	0a000001 	beq	c1033e4 <uart0_putIpHeader+0x49c>
 c1033dc:	e59f0048 	ldr	r0, [pc, #72]	; c10342c <uart0_putIpHeader+0x4e4>
 c1033e0:	eb0016fc 	bl	c108fd8 <uart0_puts>
 c1033e4:	e3a0000a 	mov	r0, #10
 c1033e8:	eb0016d2 	bl	c108f38 <uart0_putchar>
 c1033ec:	e24bd00c 	sub	sp, fp, #12
 c1033f0:	e89d6800 	ldm	sp, {fp, sp, lr}
 c1033f4:	e12fff1e 	bx	lr
 c1033f8:	0c10a7e4 	.word	0x0c10a7e4
 c1033fc:	0c10a7f4 	.word	0x0c10a7f4
 c103400:	0c10a804 	.word	0x0c10a804
 c103404:	0c10a814 	.word	0x0c10a814
 c103408:	0c10a81c 	.word	0x0c10a81c
 c10340c:	0c10a820 	.word	0x0c10a820
 c103410:	0c10a79c 	.word	0x0c10a79c
 c103414:	0c10a824 	.word	0x0c10a824
 c103418:	0c10a834 	.word	0x0c10a834
 c10341c:	0c10a844 	.word	0x0c10a844
 c103420:	0c10a854 	.word	0x0c10a854
 c103424:	0c10a864 	.word	0x0c10a864
 c103428:	0c10a874 	.word	0x0c10a874
 c10342c:	0c10a878 	.word	0x0c10a878

0c103430 <uart0_putIcmpHeader>:
 c103430:	e1a0c00d 	mov	ip, sp
 c103434:	e92dd800 	push	{fp, ip, lr, pc}
 c103438:	e24cb004 	sub	fp, ip, #4
 c10343c:	e24dd010 	sub	sp, sp, #16
 c103440:	e50b0018 	str	r0, [fp, #-24]	; 0xffffffe8
 c103444:	e51b3018 	ldr	r3, [fp, #-24]	; 0xffffffe8
 c103448:	e50b3010 	str	r3, [fp, #-16]
 c10344c:	e59f0078 	ldr	r0, [pc, #120]	; c1034cc <uart0_putIcmpHeader+0x9c>
 c103450:	eb0016e0 	bl	c108fd8 <uart0_puts>
 c103454:	e59f0074 	ldr	r0, [pc, #116]	; c1034d0 <uart0_putIcmpHeader+0xa0>
 c103458:	eb0016de 	bl	c108fd8 <uart0_puts>
 c10345c:	e51b3010 	ldr	r3, [fp, #-16]
 c103460:	e5d33000 	ldrb	r3, [r3]
 c103464:	e3530000 	cmp	r3, #0
 c103468:	0a000004 	beq	c103480 <uart0_putIcmpHeader+0x50>
 c10346c:	e3530008 	cmp	r3, #8
 c103470:	1a000005 	bne	c10348c <uart0_putIcmpHeader+0x5c>
 c103474:	e59f0058 	ldr	r0, [pc, #88]	; c1034d4 <uart0_putIcmpHeader+0xa4>
 c103478:	eb0016d6 	bl	c108fd8 <uart0_puts>
 c10347c:	ea000005 	b	c103498 <uart0_putIcmpHeader+0x68>
 c103480:	e59f0050 	ldr	r0, [pc, #80]	; c1034d8 <uart0_putIcmpHeader+0xa8>
 c103484:	eb0016d3 	bl	c108fd8 <uart0_puts>
 c103488:	ea000002 	b	c103498 <uart0_putIcmpHeader+0x68>
 c10348c:	e59f0048 	ldr	r0, [pc, #72]	; c1034dc <uart0_putIcmpHeader+0xac>
 c103490:	eb0016d0 	bl	c108fd8 <uart0_puts>
 c103494:	e1a00000 	nop			; (mov r0, r0)
 c103498:	e3a0000a 	mov	r0, #10
 c10349c:	eb0016a5 	bl	c108f38 <uart0_putchar>
 c1034a0:	e59f0038 	ldr	r0, [pc, #56]	; c1034e0 <uart0_putIcmpHeader+0xb0>
 c1034a4:	eb0016cb 	bl	c108fd8 <uart0_puts>
 c1034a8:	e51b3010 	ldr	r3, [fp, #-16]
 c1034ac:	e5d33001 	ldrb	r3, [r3, #1]
 c1034b0:	e1a00003 	mov	r0, r3
 c1034b4:	eb001730 	bl	c10917c <uart0_puthex>
 c1034b8:	e3a0000a 	mov	r0, #10
 c1034bc:	eb00169d 	bl	c108f38 <uart0_putchar>
 c1034c0:	e24bd00c 	sub	sp, fp, #12
 c1034c4:	e89d6800 	ldm	sp, {fp, sp, lr}
 c1034c8:	e12fff1e 	bx	lr
 c1034cc:	0c10a87c 	.word	0x0c10a87c
 c1034d0:	0c10a88c 	.word	0x0c10a88c
 c1034d4:	0c10a898 	.word	0x0c10a898
 c1034d8:	0c10a8a8 	.word	0x0c10a8a8
 c1034dc:	0c10a79c 	.word	0x0c10a79c
 c1034e0:	0c10a8b4 	.word	0x0c10a8b4

0c1034e4 <uart0_putUdpHeader>:
 c1034e4:	e1a0c00d 	mov	ip, sp
 c1034e8:	e92dd800 	push	{fp, ip, lr, pc}
 c1034ec:	e24cb004 	sub	fp, ip, #4
 c1034f0:	e24dd010 	sub	sp, sp, #16
 c1034f4:	e50b0018 	str	r0, [fp, #-24]	; 0xffffffe8
 c1034f8:	e51b3018 	ldr	r3, [fp, #-24]	; 0xffffffe8
 c1034fc:	e50b3010 	str	r3, [fp, #-16]
 c103500:	e59f015c 	ldr	r0, [pc, #348]	; c103664 <uart0_putUdpHeader+0x180>
 c103504:	eb0016b3 	bl	c108fd8 <uart0_puts>
 c103508:	e59f0158 	ldr	r0, [pc, #344]	; c103668 <uart0_putUdpHeader+0x184>
 c10350c:	eb0016b1 	bl	c108fd8 <uart0_puts>
 c103510:	e51b3010 	ldr	r3, [fp, #-16]
 c103514:	e5d32000 	ldrb	r2, [r3]
 c103518:	e5d33001 	ldrb	r3, [r3, #1]
 c10351c:	e1a03403 	lsl	r3, r3, #8
 c103520:	e1833002 	orr	r3, r3, r2
 c103524:	e1a03803 	lsl	r3, r3, #16
 c103528:	e1a03823 	lsr	r3, r3, #16
 c10352c:	e1a03403 	lsl	r3, r3, #8
 c103530:	e1a03803 	lsl	r3, r3, #16
 c103534:	e1a03823 	lsr	r3, r3, #16
 c103538:	e51b2010 	ldr	r2, [fp, #-16]
 c10353c:	e5d21000 	ldrb	r1, [r2]
 c103540:	e5d22001 	ldrb	r2, [r2, #1]
 c103544:	e1a02402 	lsl	r2, r2, #8
 c103548:	e1822001 	orr	r2, r2, r1
 c10354c:	e1a02802 	lsl	r2, r2, #16
 c103550:	e1a02822 	lsr	r2, r2, #16
 c103554:	e1a02422 	lsr	r2, r2, #8
 c103558:	e1a02802 	lsl	r2, r2, #16
 c10355c:	e1a02822 	lsr	r2, r2, #16
 c103560:	e20220ff 	and	r2, r2, #255	; 0xff
 c103564:	e1833002 	orr	r3, r3, r2
 c103568:	e1a00003 	mov	r0, r3
 c10356c:	ebfffd74 	bl	c102b44 <uart0_putIp>
 c103570:	e3a0000a 	mov	r0, #10
 c103574:	eb00166f 	bl	c108f38 <uart0_putchar>
 c103578:	e59f00ec 	ldr	r0, [pc, #236]	; c10366c <uart0_putUdpHeader+0x188>
 c10357c:	eb001695 	bl	c108fd8 <uart0_puts>
 c103580:	e51b3010 	ldr	r3, [fp, #-16]
 c103584:	e5d32002 	ldrb	r2, [r3, #2]
 c103588:	e5d33003 	ldrb	r3, [r3, #3]
 c10358c:	e1a03403 	lsl	r3, r3, #8
 c103590:	e1833002 	orr	r3, r3, r2
 c103594:	e1a03803 	lsl	r3, r3, #16
 c103598:	e1a03823 	lsr	r3, r3, #16
 c10359c:	e1a03403 	lsl	r3, r3, #8
 c1035a0:	e1a03803 	lsl	r3, r3, #16
 c1035a4:	e1a03823 	lsr	r3, r3, #16
 c1035a8:	e51b2010 	ldr	r2, [fp, #-16]
 c1035ac:	e5d21002 	ldrb	r1, [r2, #2]
 c1035b0:	e5d22003 	ldrb	r2, [r2, #3]
 c1035b4:	e1a02402 	lsl	r2, r2, #8
 c1035b8:	e1822001 	orr	r2, r2, r1
 c1035bc:	e1a02802 	lsl	r2, r2, #16
 c1035c0:	e1a02822 	lsr	r2, r2, #16
 c1035c4:	e1a02422 	lsr	r2, r2, #8
 c1035c8:	e1a02802 	lsl	r2, r2, #16
 c1035cc:	e1a02822 	lsr	r2, r2, #16
 c1035d0:	e20220ff 	and	r2, r2, #255	; 0xff
 c1035d4:	e1833002 	orr	r3, r3, r2
 c1035d8:	e1a00003 	mov	r0, r3
 c1035dc:	ebfffd58 	bl	c102b44 <uart0_putIp>
 c1035e0:	e3a0000a 	mov	r0, #10
 c1035e4:	eb001653 	bl	c108f38 <uart0_putchar>
 c1035e8:	e59f0080 	ldr	r0, [pc, #128]	; c103670 <uart0_putUdpHeader+0x18c>
 c1035ec:	eb001679 	bl	c108fd8 <uart0_puts>
 c1035f0:	e51b3010 	ldr	r3, [fp, #-16]
 c1035f4:	e5d32004 	ldrb	r2, [r3, #4]
 c1035f8:	e5d33005 	ldrb	r3, [r3, #5]
 c1035fc:	e1a03403 	lsl	r3, r3, #8
 c103600:	e1833002 	orr	r3, r3, r2
 c103604:	e1a03803 	lsl	r3, r3, #16
 c103608:	e1a03823 	lsr	r3, r3, #16
 c10360c:	e1a03403 	lsl	r3, r3, #8
 c103610:	e1a03803 	lsl	r3, r3, #16
 c103614:	e1a03823 	lsr	r3, r3, #16
 c103618:	e51b2010 	ldr	r2, [fp, #-16]
 c10361c:	e5d21004 	ldrb	r1, [r2, #4]
 c103620:	e5d22005 	ldrb	r2, [r2, #5]
 c103624:	e1a02402 	lsl	r2, r2, #8
 c103628:	e1822001 	orr	r2, r2, r1
 c10362c:	e1a02802 	lsl	r2, r2, #16
 c103630:	e1a02822 	lsr	r2, r2, #16
 c103634:	e1a02422 	lsr	r2, r2, #8
 c103638:	e1a02802 	lsl	r2, r2, #16
 c10363c:	e1a02822 	lsr	r2, r2, #16
 c103640:	e20220ff 	and	r2, r2, #255	; 0xff
 c103644:	e1833002 	orr	r3, r3, r2
 c103648:	e1a00003 	mov	r0, r3
 c10364c:	ebfffd3c 	bl	c102b44 <uart0_putIp>
 c103650:	e3a0000a 	mov	r0, #10
 c103654:	eb001637 	bl	c108f38 <uart0_putchar>
 c103658:	e24bd00c 	sub	sp, fp, #12
 c10365c:	e89d6800 	ldm	sp, {fp, sp, lr}
 c103660:	e12fff1e 	bx	lr
 c103664:	0c10a8c0 	.word	0x0c10a8c0
 c103668:	0c10a8d0 	.word	0x0c10a8d0
 c10366c:	0c10a8e4 	.word	0x0c10a8e4
 c103670:	0c10a8f8 	.word	0x0c10a8f8

0c103674 <uart0_putFrame>:
 c103674:	e1a0c00d 	mov	ip, sp
 c103678:	e92dd800 	push	{fp, ip, lr, pc}
 c10367c:	e24cb004 	sub	fp, ip, #4
 c103680:	e24dd010 	sub	sp, sp, #16
 c103684:	e50b0018 	str	r0, [fp, #-24]	; 0xffffffe8
 c103688:	e1a03001 	mov	r3, r1
 c10368c:	e14b31ba 	strh	r3, [fp, #-26]	; 0xffffffe6
 c103690:	e3a03000 	mov	r3, #0
 c103694:	e14b31b0 	strh	r3, [fp, #-16]
 c103698:	e3a03000 	mov	r3, #0
 c10369c:	e14b31b2 	strh	r3, [fp, #-18]	; 0xffffffee
 c1036a0:	ea000054 	b	c1037f8 <uart0_putFrame+0x184>
 c1036a4:	e59f0324 	ldr	r0, [pc, #804]	; c1039d0 <uart0_putFrame+0x35c>
 c1036a8:	eb00164a 	bl	c108fd8 <uart0_puts>
 c1036ac:	e15b21b0 	ldrh	r2, [fp, #-16]
 c1036b0:	e1a03002 	mov	r3, r2
 c1036b4:	e1a03103 	lsl	r3, r3, #2
 c1036b8:	e0833002 	add	r3, r3, r2
 c1036bc:	e1a03083 	lsl	r3, r3, #1
 c1036c0:	e1a02003 	mov	r2, r3
 c1036c4:	e59f3308 	ldr	r3, [pc, #776]	; c1039d4 <uart0_putFrame+0x360>
 c1036c8:	e1520003 	cmp	r2, r3
 c1036cc:	ca000001 	bgt	c1036d8 <uart0_putFrame+0x64>
 c1036d0:	e3a00030 	mov	r0, #48	; 0x30
 c1036d4:	eb001617 	bl	c108f38 <uart0_putchar>
 c1036d8:	e15b21b0 	ldrh	r2, [fp, #-16]
 c1036dc:	e1a03002 	mov	r3, r2
 c1036e0:	e1a03103 	lsl	r3, r3, #2
 c1036e4:	e0833002 	add	r3, r3, r2
 c1036e8:	e1a03083 	lsl	r3, r3, #1
 c1036ec:	e1a02003 	mov	r2, r3
 c1036f0:	e59f32e0 	ldr	r3, [pc, #736]	; c1039d8 <uart0_putFrame+0x364>
 c1036f4:	e1520003 	cmp	r2, r3
 c1036f8:	ca000001 	bgt	c103704 <uart0_putFrame+0x90>
 c1036fc:	e3a00030 	mov	r0, #48	; 0x30
 c103700:	eb00160c 	bl	c108f38 <uart0_putchar>
 c103704:	e15b21b0 	ldrh	r2, [fp, #-16]
 c103708:	e1a03002 	mov	r3, r2
 c10370c:	e1a03103 	lsl	r3, r3, #2
 c103710:	e0833002 	add	r3, r3, r2
 c103714:	e1a03083 	lsl	r3, r3, #1
 c103718:	e3530063 	cmp	r3, #99	; 0x63
 c10371c:	ca000001 	bgt	c103728 <uart0_putFrame+0xb4>
 c103720:	e3a00030 	mov	r0, #48	; 0x30
 c103724:	eb001603 	bl	c108f38 <uart0_putchar>
 c103728:	e15b21b0 	ldrh	r2, [fp, #-16]
 c10372c:	e1a03002 	mov	r3, r2
 c103730:	e1a03103 	lsl	r3, r3, #2
 c103734:	e0833002 	add	r3, r3, r2
 c103738:	e1a03083 	lsl	r3, r3, #1
 c10373c:	e3530009 	cmp	r3, #9
 c103740:	ca000001 	bgt	c10374c <uart0_putFrame+0xd8>
 c103744:	e3a00030 	mov	r0, #48	; 0x30
 c103748:	eb0015fa 	bl	c108f38 <uart0_putchar>
 c10374c:	e15b21b0 	ldrh	r2, [fp, #-16]
 c103750:	e1a03002 	mov	r3, r2
 c103754:	e1a03103 	lsl	r3, r3, #2
 c103758:	e0833002 	add	r3, r3, r2
 c10375c:	e1a03083 	lsl	r3, r3, #1
 c103760:	e1a00003 	mov	r0, r3
 c103764:	eb00162f 	bl	c109028 <uart0_putint>
 c103768:	e59f026c 	ldr	r0, [pc, #620]	; c1039dc <uart0_putFrame+0x368>
 c10376c:	eb001619 	bl	c108fd8 <uart0_puts>
 c103770:	e3a03000 	mov	r3, #0
 c103774:	e14b30be 	strh	r3, [fp, #-14]
 c103778:	ea000016 	b	c1037d8 <uart0_putFrame+0x164>
 c10377c:	e15b31b2 	ldrh	r3, [fp, #-18]	; 0xffffffee
 c103780:	e51b2018 	ldr	r2, [fp, #-24]	; 0xffffffe8
 c103784:	e0823003 	add	r3, r2, r3
 c103788:	e5d33000 	ldrb	r3, [r3]
 c10378c:	e1a03223 	lsr	r3, r3, #4
 c103790:	e20330ff 	and	r3, r3, #255	; 0xff
 c103794:	e1a00003 	mov	r0, r3
 c103798:	eb001677 	bl	c10917c <uart0_puthex>
 c10379c:	e15b31b2 	ldrh	r3, [fp, #-18]	; 0xffffffee
 c1037a0:	e51b2018 	ldr	r2, [fp, #-24]	; 0xffffffe8
 c1037a4:	e0823003 	add	r3, r2, r3
 c1037a8:	e5d33000 	ldrb	r3, [r3]
 c1037ac:	e203300f 	and	r3, r3, #15
 c1037b0:	e15b21b2 	ldrh	r2, [fp, #-18]	; 0xffffffee
 c1037b4:	e2822001 	add	r2, r2, #1
 c1037b8:	e14b21b2 	strh	r2, [fp, #-18]	; 0xffffffee
 c1037bc:	e1a00003 	mov	r0, r3
 c1037c0:	eb00166d 	bl	c10917c <uart0_puthex>
 c1037c4:	e3a0003a 	mov	r0, #58	; 0x3a
 c1037c8:	eb0015da 	bl	c108f38 <uart0_putchar>
 c1037cc:	e15b30be 	ldrh	r3, [fp, #-14]
 c1037d0:	e2833001 	add	r3, r3, #1
 c1037d4:	e14b30be 	strh	r3, [fp, #-14]
 c1037d8:	e15b30be 	ldrh	r3, [fp, #-14]
 c1037dc:	e3530009 	cmp	r3, #9
 c1037e0:	9affffe5 	bls	c10377c <uart0_putFrame+0x108>
 c1037e4:	e3a0000a 	mov	r0, #10
 c1037e8:	eb0015d2 	bl	c108f38 <uart0_putchar>
 c1037ec:	e15b31b0 	ldrh	r3, [fp, #-16]
 c1037f0:	e2833001 	add	r3, r3, #1
 c1037f4:	e14b31b0 	strh	r3, [fp, #-16]
 c1037f8:	e15b21ba 	ldrh	r2, [fp, #-26]	; 0xffffffe6
 c1037fc:	e59f31dc 	ldr	r3, [pc, #476]	; c1039e0 <uart0_putFrame+0x36c>
 c103800:	e0831392 	umull	r1, r3, r2, r3
 c103804:	e1a031a3 	lsr	r3, r3, #3
 c103808:	e1a03803 	lsl	r3, r3, #16
 c10380c:	e1a03823 	lsr	r3, r3, #16
 c103810:	e15b21b0 	ldrh	r2, [fp, #-16]
 c103814:	e1520003 	cmp	r2, r3
 c103818:	3affffa1 	bcc	c1036a4 <uart0_putFrame+0x30>
 c10381c:	e15b21ba 	ldrh	r2, [fp, #-26]	; 0xffffffe6
 c103820:	e59f31b8 	ldr	r3, [pc, #440]	; c1039e0 <uart0_putFrame+0x36c>
 c103824:	e0831392 	umull	r1, r3, r2, r3
 c103828:	e1a011a3 	lsr	r1, r3, #3
 c10382c:	e1a03001 	mov	r3, r1
 c103830:	e1a03103 	lsl	r3, r3, #2
 c103834:	e0833001 	add	r3, r3, r1
 c103838:	e1a03083 	lsl	r3, r3, #1
 c10383c:	e0633002 	rsb	r3, r3, r2
 c103840:	e1a03803 	lsl	r3, r3, #16
 c103844:	e1a03823 	lsr	r3, r3, #16
 c103848:	e3530000 	cmp	r3, #0
 c10384c:	0a00005c 	beq	c1039c4 <uart0_putFrame+0x350>
 c103850:	e59f0178 	ldr	r0, [pc, #376]	; c1039d0 <uart0_putFrame+0x35c>
 c103854:	eb0015df 	bl	c108fd8 <uart0_puts>
 c103858:	e15b21b0 	ldrh	r2, [fp, #-16]
 c10385c:	e1a03002 	mov	r3, r2
 c103860:	e1a03103 	lsl	r3, r3, #2
 c103864:	e0833002 	add	r3, r3, r2
 c103868:	e1a03083 	lsl	r3, r3, #1
 c10386c:	e1a02003 	mov	r2, r3
 c103870:	e59f315c 	ldr	r3, [pc, #348]	; c1039d4 <uart0_putFrame+0x360>
 c103874:	e1520003 	cmp	r2, r3
 c103878:	ca000001 	bgt	c103884 <uart0_putFrame+0x210>
 c10387c:	e3a00030 	mov	r0, #48	; 0x30
 c103880:	eb0015ac 	bl	c108f38 <uart0_putchar>
 c103884:	e15b21b0 	ldrh	r2, [fp, #-16]
 c103888:	e1a03002 	mov	r3, r2
 c10388c:	e1a03103 	lsl	r3, r3, #2
 c103890:	e0833002 	add	r3, r3, r2
 c103894:	e1a03083 	lsl	r3, r3, #1
 c103898:	e1a02003 	mov	r2, r3
 c10389c:	e59f3134 	ldr	r3, [pc, #308]	; c1039d8 <uart0_putFrame+0x364>
 c1038a0:	e1520003 	cmp	r2, r3
 c1038a4:	ca000001 	bgt	c1038b0 <uart0_putFrame+0x23c>
 c1038a8:	e3a00030 	mov	r0, #48	; 0x30
 c1038ac:	eb0015a1 	bl	c108f38 <uart0_putchar>
 c1038b0:	e15b21b0 	ldrh	r2, [fp, #-16]
 c1038b4:	e1a03002 	mov	r3, r2
 c1038b8:	e1a03103 	lsl	r3, r3, #2
 c1038bc:	e0833002 	add	r3, r3, r2
 c1038c0:	e1a03083 	lsl	r3, r3, #1
 c1038c4:	e3530063 	cmp	r3, #99	; 0x63
 c1038c8:	ca000001 	bgt	c1038d4 <uart0_putFrame+0x260>
 c1038cc:	e3a00030 	mov	r0, #48	; 0x30
 c1038d0:	eb001598 	bl	c108f38 <uart0_putchar>
 c1038d4:	e15b21b0 	ldrh	r2, [fp, #-16]
 c1038d8:	e1a03002 	mov	r3, r2
 c1038dc:	e1a03103 	lsl	r3, r3, #2
 c1038e0:	e0833002 	add	r3, r3, r2
 c1038e4:	e1a03083 	lsl	r3, r3, #1
 c1038e8:	e3530009 	cmp	r3, #9
 c1038ec:	ca000001 	bgt	c1038f8 <uart0_putFrame+0x284>
 c1038f0:	e3a00030 	mov	r0, #48	; 0x30
 c1038f4:	eb00158f 	bl	c108f38 <uart0_putchar>
 c1038f8:	e15b21b0 	ldrh	r2, [fp, #-16]
 c1038fc:	e1a03002 	mov	r3, r2
 c103900:	e1a03103 	lsl	r3, r3, #2
 c103904:	e0833002 	add	r3, r3, r2
 c103908:	e1a03083 	lsl	r3, r3, #1
 c10390c:	e1a00003 	mov	r0, r3
 c103910:	eb0015c4 	bl	c109028 <uart0_putint>
 c103914:	e59f00c0 	ldr	r0, [pc, #192]	; c1039dc <uart0_putFrame+0x368>
 c103918:	eb0015ae 	bl	c108fd8 <uart0_puts>
 c10391c:	e3a03000 	mov	r3, #0
 c103920:	e14b30be 	strh	r3, [fp, #-14]
 c103924:	ea000016 	b	c103984 <uart0_putFrame+0x310>
 c103928:	e15b31b2 	ldrh	r3, [fp, #-18]	; 0xffffffee
 c10392c:	e51b2018 	ldr	r2, [fp, #-24]	; 0xffffffe8
 c103930:	e0823003 	add	r3, r2, r3
 c103934:	e5d33000 	ldrb	r3, [r3]
 c103938:	e1a03223 	lsr	r3, r3, #4
 c10393c:	e20330ff 	and	r3, r3, #255	; 0xff
 c103940:	e1a00003 	mov	r0, r3
 c103944:	eb00160c 	bl	c10917c <uart0_puthex>
 c103948:	e15b31b2 	ldrh	r3, [fp, #-18]	; 0xffffffee
 c10394c:	e51b2018 	ldr	r2, [fp, #-24]	; 0xffffffe8
 c103950:	e0823003 	add	r3, r2, r3
 c103954:	e5d33000 	ldrb	r3, [r3]
 c103958:	e203300f 	and	r3, r3, #15
 c10395c:	e15b21b2 	ldrh	r2, [fp, #-18]	; 0xffffffee
 c103960:	e2822001 	add	r2, r2, #1
 c103964:	e14b21b2 	strh	r2, [fp, #-18]	; 0xffffffee
 c103968:	e1a00003 	mov	r0, r3
 c10396c:	eb001602 	bl	c10917c <uart0_puthex>
 c103970:	e3a0003a 	mov	r0, #58	; 0x3a
 c103974:	eb00156f 	bl	c108f38 <uart0_putchar>
 c103978:	e15b30be 	ldrh	r3, [fp, #-14]
 c10397c:	e2833001 	add	r3, r3, #1
 c103980:	e14b30be 	strh	r3, [fp, #-14]
 c103984:	e15b21ba 	ldrh	r2, [fp, #-26]	; 0xffffffe6
 c103988:	e59f3050 	ldr	r3, [pc, #80]	; c1039e0 <uart0_putFrame+0x36c>
 c10398c:	e0831392 	umull	r1, r3, r2, r3
 c103990:	e1a011a3 	lsr	r1, r3, #3
 c103994:	e1a03001 	mov	r3, r1
 c103998:	e1a03103 	lsl	r3, r3, #2
 c10399c:	e0833001 	add	r3, r3, r1
 c1039a0:	e1a03083 	lsl	r3, r3, #1
 c1039a4:	e0633002 	rsb	r3, r3, r2
 c1039a8:	e1a03803 	lsl	r3, r3, #16
 c1039ac:	e1a03823 	lsr	r3, r3, #16
 c1039b0:	e15b20be 	ldrh	r2, [fp, #-14]
 c1039b4:	e1520003 	cmp	r2, r3
 c1039b8:	3affffda 	bcc	c103928 <uart0_putFrame+0x2b4>
 c1039bc:	e3a0000a 	mov	r0, #10
 c1039c0:	eb00155c 	bl	c108f38 <uart0_putchar>
 c1039c4:	e24bd00c 	sub	sp, fp, #12
 c1039c8:	e89d6800 	ldm	sp, {fp, sp, lr}
 c1039cc:	e12fff1e 	bx	lr
 c1039d0:	0c10a90c 	.word	0x0c10a90c
 c1039d4:	0000270f 	.word	0x0000270f
 c1039d8:	000003e7 	.word	0x000003e7
 c1039dc:	0c10a914 	.word	0x0c10a914
 c1039e0:	cccccccd 	.word	0xcccccccd

0c1039e4 <keypad_scan>:
 c1039e4:	e1a0c00d 	mov	ip, sp
 c1039e8:	e92dd800 	push	{fp, ip, lr, pc}
 c1039ec:	e24cb004 	sub	fp, ip, #4
 c1039f0:	e24dd008 	sub	sp, sp, #8
 c1039f4:	e59f31fc 	ldr	r3, [pc, #508]	; c103bf8 <keypad_scan+0x214>
 c1039f8:	e5d33000 	ldrb	r3, [r3]
 c1039fc:	e54b300d 	strb	r3, [fp, #-13]
 c103a00:	e55b300d 	ldrb	r3, [fp, #-13]
 c103a04:	e203300f 	and	r3, r3, #15
 c103a08:	e353000f 	cmp	r3, #15
 c103a0c:	0a000017 	beq	c103a70 <keypad_scan+0x8c>
 c103a10:	e55b300d 	ldrb	r3, [fp, #-13]
 c103a14:	e2033008 	and	r3, r3, #8
 c103a18:	e3530000 	cmp	r3, #0
 c103a1c:	1a000001 	bne	c103a28 <keypad_scan+0x44>
 c103a20:	e3a03000 	mov	r3, #0
 c103a24:	ea00006f 	b	c103be8 <keypad_scan+0x204>
 c103a28:	e55b300d 	ldrb	r3, [fp, #-13]
 c103a2c:	e2033004 	and	r3, r3, #4
 c103a30:	e3530000 	cmp	r3, #0
 c103a34:	1a000001 	bne	c103a40 <keypad_scan+0x5c>
 c103a38:	e3a03001 	mov	r3, #1
 c103a3c:	ea000069 	b	c103be8 <keypad_scan+0x204>
 c103a40:	e55b300d 	ldrb	r3, [fp, #-13]
 c103a44:	e2033002 	and	r3, r3, #2
 c103a48:	e3530000 	cmp	r3, #0
 c103a4c:	1a000001 	bne	c103a58 <keypad_scan+0x74>
 c103a50:	e3a03002 	mov	r3, #2
 c103a54:	ea000063 	b	c103be8 <keypad_scan+0x204>
 c103a58:	e55b300d 	ldrb	r3, [fp, #-13]
 c103a5c:	e2033001 	and	r3, r3, #1
 c103a60:	e3530000 	cmp	r3, #0
 c103a64:	1a000001 	bne	c103a70 <keypad_scan+0x8c>
 c103a68:	e3a03003 	mov	r3, #3
 c103a6c:	ea00005d 	b	c103be8 <keypad_scan+0x204>
 c103a70:	e59f3184 	ldr	r3, [pc, #388]	; c103bfc <keypad_scan+0x218>
 c103a74:	e5d33000 	ldrb	r3, [r3]
 c103a78:	e54b300d 	strb	r3, [fp, #-13]
 c103a7c:	e55b300d 	ldrb	r3, [fp, #-13]
 c103a80:	e203300f 	and	r3, r3, #15
 c103a84:	e353000f 	cmp	r3, #15
 c103a88:	0a000017 	beq	c103aec <keypad_scan+0x108>
 c103a8c:	e55b300d 	ldrb	r3, [fp, #-13]
 c103a90:	e2033008 	and	r3, r3, #8
 c103a94:	e3530000 	cmp	r3, #0
 c103a98:	1a000001 	bne	c103aa4 <keypad_scan+0xc0>
 c103a9c:	e3a03004 	mov	r3, #4
 c103aa0:	ea000050 	b	c103be8 <keypad_scan+0x204>
 c103aa4:	e55b300d 	ldrb	r3, [fp, #-13]
 c103aa8:	e2033004 	and	r3, r3, #4
 c103aac:	e3530000 	cmp	r3, #0
 c103ab0:	1a000001 	bne	c103abc <keypad_scan+0xd8>
 c103ab4:	e3a03005 	mov	r3, #5
 c103ab8:	ea00004a 	b	c103be8 <keypad_scan+0x204>
 c103abc:	e55b300d 	ldrb	r3, [fp, #-13]
 c103ac0:	e2033002 	and	r3, r3, #2
 c103ac4:	e3530000 	cmp	r3, #0
 c103ac8:	1a000001 	bne	c103ad4 <keypad_scan+0xf0>
 c103acc:	e3a03006 	mov	r3, #6
 c103ad0:	ea000044 	b	c103be8 <keypad_scan+0x204>
 c103ad4:	e55b300d 	ldrb	r3, [fp, #-13]
 c103ad8:	e2033001 	and	r3, r3, #1
 c103adc:	e3530000 	cmp	r3, #0
 c103ae0:	1a000001 	bne	c103aec <keypad_scan+0x108>
 c103ae4:	e3a03007 	mov	r3, #7
 c103ae8:	ea00003e 	b	c103be8 <keypad_scan+0x204>
 c103aec:	e59f310c 	ldr	r3, [pc, #268]	; c103c00 <keypad_scan+0x21c>
 c103af0:	e5d33000 	ldrb	r3, [r3]
 c103af4:	e54b300d 	strb	r3, [fp, #-13]
 c103af8:	e55b300d 	ldrb	r3, [fp, #-13]
 c103afc:	e203300f 	and	r3, r3, #15
 c103b00:	e353000f 	cmp	r3, #15
 c103b04:	0a000017 	beq	c103b68 <keypad_scan+0x184>
 c103b08:	e55b300d 	ldrb	r3, [fp, #-13]
 c103b0c:	e2033008 	and	r3, r3, #8
 c103b10:	e3530000 	cmp	r3, #0
 c103b14:	1a000001 	bne	c103b20 <keypad_scan+0x13c>
 c103b18:	e3a03008 	mov	r3, #8
 c103b1c:	ea000031 	b	c103be8 <keypad_scan+0x204>
 c103b20:	e55b300d 	ldrb	r3, [fp, #-13]
 c103b24:	e2033004 	and	r3, r3, #4
 c103b28:	e3530000 	cmp	r3, #0
 c103b2c:	1a000001 	bne	c103b38 <keypad_scan+0x154>
 c103b30:	e3a03009 	mov	r3, #9
 c103b34:	ea00002b 	b	c103be8 <keypad_scan+0x204>
 c103b38:	e55b300d 	ldrb	r3, [fp, #-13]
 c103b3c:	e2033002 	and	r3, r3, #2
 c103b40:	e3530000 	cmp	r3, #0
 c103b44:	1a000001 	bne	c103b50 <keypad_scan+0x16c>
 c103b48:	e3a0300a 	mov	r3, #10
 c103b4c:	ea000025 	b	c103be8 <keypad_scan+0x204>
 c103b50:	e55b300d 	ldrb	r3, [fp, #-13]
 c103b54:	e2033001 	and	r3, r3, #1
 c103b58:	e3530000 	cmp	r3, #0
 c103b5c:	1a000001 	bne	c103b68 <keypad_scan+0x184>
 c103b60:	e3a0300b 	mov	r3, #11
 c103b64:	ea00001f 	b	c103be8 <keypad_scan+0x204>
 c103b68:	e59f3094 	ldr	r3, [pc, #148]	; c103c04 <keypad_scan+0x220>
 c103b6c:	e5d33000 	ldrb	r3, [r3]
 c103b70:	e54b300d 	strb	r3, [fp, #-13]
 c103b74:	e55b300d 	ldrb	r3, [fp, #-13]
 c103b78:	e203300f 	and	r3, r3, #15
 c103b7c:	e353000f 	cmp	r3, #15
 c103b80:	0a000017 	beq	c103be4 <keypad_scan+0x200>
 c103b84:	e55b300d 	ldrb	r3, [fp, #-13]
 c103b88:	e2033008 	and	r3, r3, #8
 c103b8c:	e3530000 	cmp	r3, #0
 c103b90:	1a000001 	bne	c103b9c <keypad_scan+0x1b8>
 c103b94:	e3a0300c 	mov	r3, #12
 c103b98:	ea000012 	b	c103be8 <keypad_scan+0x204>
 c103b9c:	e55b300d 	ldrb	r3, [fp, #-13]
 c103ba0:	e2033004 	and	r3, r3, #4
 c103ba4:	e3530000 	cmp	r3, #0
 c103ba8:	1a000001 	bne	c103bb4 <keypad_scan+0x1d0>
 c103bac:	e3a0300d 	mov	r3, #13
 c103bb0:	ea00000c 	b	c103be8 <keypad_scan+0x204>
 c103bb4:	e55b300d 	ldrb	r3, [fp, #-13]
 c103bb8:	e2033002 	and	r3, r3, #2
 c103bbc:	e3530000 	cmp	r3, #0
 c103bc0:	1a000001 	bne	c103bcc <keypad_scan+0x1e8>
 c103bc4:	e3a0300e 	mov	r3, #14
 c103bc8:	ea000006 	b	c103be8 <keypad_scan+0x204>
 c103bcc:	e55b300d 	ldrb	r3, [fp, #-13]
 c103bd0:	e2033001 	and	r3, r3, #1
 c103bd4:	e3530000 	cmp	r3, #0
 c103bd8:	1a000001 	bne	c103be4 <keypad_scan+0x200>
 c103bdc:	e3a0300f 	mov	r3, #15
 c103be0:	ea000000 	b	c103be8 <keypad_scan+0x204>
 c103be4:	e3a030ff 	mov	r3, #255	; 0xff
 c103be8:	e1a00003 	mov	r0, r3
 c103bec:	e24bd00c 	sub	sp, fp, #12
 c103bf0:	e89d6800 	ldm	sp, {fp, sp, lr}
 c103bf4:	e12fff1e 	bx	lr
 c103bf8:	0600001c 	.word	0x0600001c
 c103bfc:	0600001a 	.word	0x0600001a
 c103c00:	06000016 	.word	0x06000016
 c103c04:	0600000e 	.word	0x0600000e

0c103c08 <keypad_pressed>:
 c103c08:	e1a0c00d 	mov	ip, sp
 c103c0c:	e92dd800 	push	{fp, ip, lr, pc}
 c103c10:	e24cb004 	sub	fp, ip, #4
 c103c14:	e59f3024 	ldr	r3, [pc, #36]	; c103c40 <keypad_pressed+0x38>
 c103c18:	e5933000 	ldr	r3, [r3]
 c103c1c:	e2033002 	and	r3, r3, #2
 c103c20:	e3530000 	cmp	r3, #0
 c103c24:	13a03000 	movne	r3, #0
 c103c28:	03a03001 	moveq	r3, #1
 c103c2c:	e20330ff 	and	r3, r3, #255	; 0xff
 c103c30:	e1a00003 	mov	r0, r3
 c103c34:	e24bd00c 	sub	sp, fp, #12
 c103c38:	e89d6800 	ldm	sp, {fp, sp, lr}
 c103c3c:	e12fff1e 	bx	lr
 c103c40:	01d20044 	.word	0x01d20044

0c103c44 <keypad_getchartime>:
 c103c44:	e1a0c00d 	mov	ip, sp
 c103c48:	e92dd800 	push	{fp, ip, lr, pc}
 c103c4c:	e24cb004 	sub	fp, ip, #4
 c103c50:	e24dd010 	sub	sp, sp, #16
 c103c54:	e50b0018 	str	r0, [fp, #-24]	; 0xffffffe8
 c103c58:	e1a00000 	nop			; (mov r0, r0)
 c103c5c:	e59f3080 	ldr	r3, [pc, #128]	; c103ce4 <keypad_getchartime+0xa0>
 c103c60:	e5933000 	ldr	r3, [r3]
 c103c64:	e2033002 	and	r3, r3, #2
 c103c68:	e3530000 	cmp	r3, #0
 c103c6c:	1afffffa 	bne	c103c5c <keypad_getchartime+0x18>
 c103c70:	eb001042 	bl	c107d80 <timer3_start>
 c103c74:	e3a0001e 	mov	r0, #30
 c103c78:	eb000fd5 	bl	c107bd4 <sw_delay_ms>
 c103c7c:	ebffff58 	bl	c1039e4 <keypad_scan>
 c103c80:	e1a03000 	mov	r3, r0
 c103c84:	e54b300d 	strb	r3, [fp, #-13]
 c103c88:	e1a00000 	nop			; (mov r0, r0)
 c103c8c:	e59f3050 	ldr	r3, [pc, #80]	; c103ce4 <keypad_getchartime+0xa0>
 c103c90:	e5933000 	ldr	r3, [r3]
 c103c94:	e2033002 	and	r3, r3, #2
 c103c98:	e3530000 	cmp	r3, #0
 c103c9c:	0afffffa 	beq	c103c8c <keypad_getchartime+0x48>
 c103ca0:	eb00106d 	bl	c107e5c <timer3_stop>
 c103ca4:	e1a03000 	mov	r3, r0
 c103ca8:	e1a02003 	mov	r2, r3
 c103cac:	e59f3034 	ldr	r3, [pc, #52]	; c103ce8 <keypad_getchartime+0xa4>
 c103cb0:	e0831392 	umull	r1, r3, r2, r3
 c103cb4:	e1a031a3 	lsr	r3, r3, #3
 c103cb8:	e1a03803 	lsl	r3, r3, #16
 c103cbc:	e1a02823 	lsr	r2, r3, #16
 c103cc0:	e51b3018 	ldr	r3, [fp, #-24]	; 0xffffffe8
 c103cc4:	e1c320b0 	strh	r2, [r3]
 c103cc8:	e3a00064 	mov	r0, #100	; 0x64
 c103ccc:	eb000fc0 	bl	c107bd4 <sw_delay_ms>
 c103cd0:	e55b300d 	ldrb	r3, [fp, #-13]
 c103cd4:	e1a00003 	mov	r0, r3
 c103cd8:	e24bd00c 	sub	sp, fp, #12
 c103cdc:	e89d6800 	ldm	sp, {fp, sp, lr}
 c103ce0:	e12fff1e 	bx	lr
 c103ce4:	01d20044 	.word	0x01d20044
 c103ce8:	cccccccd 	.word	0xcccccccd

0c103cec <keypad_timeout_getchar>:
 c103cec:	e1a0c00d 	mov	ip, sp
 c103cf0:	e92dd800 	push	{fp, ip, lr, pc}
 c103cf4:	e24cb004 	sub	fp, ip, #4
 c103cf8:	e24dd010 	sub	sp, sp, #16
 c103cfc:	e1a03000 	mov	r3, r0
 c103d00:	e14b31b6 	strh	r3, [fp, #-22]	; 0xffffffea
 c103d04:	e15b31b6 	ldrh	r3, [fp, #-22]	; 0xffffffea
 c103d08:	e1a02003 	mov	r2, r3
 c103d0c:	e1a02102 	lsl	r2, r2, #2
 c103d10:	e0823003 	add	r3, r2, r3
 c103d14:	e1a03083 	lsl	r3, r3, #1
 c103d18:	e1a03803 	lsl	r3, r3, #16
 c103d1c:	e1a03823 	lsr	r3, r3, #16
 c103d20:	e1a00003 	mov	r0, r3
 c103d24:	eb001061 	bl	c107eb0 <timer3_start_timeout>
 c103d28:	e1a00000 	nop			; (mov r0, r0)
 c103d2c:	e59f30a4 	ldr	r3, [pc, #164]	; c103dd8 <keypad_timeout_getchar+0xec>
 c103d30:	e5933000 	ldr	r3, [r3]
 c103d34:	e2033002 	and	r3, r3, #2
 c103d38:	e3530000 	cmp	r3, #0
 c103d3c:	0a000003 	beq	c103d50 <keypad_timeout_getchar+0x64>
 c103d40:	eb001093 	bl	c107f94 <timer3_timeout>
 c103d44:	e1a03000 	mov	r3, r0
 c103d48:	e3530000 	cmp	r3, #0
 c103d4c:	0afffff6 	beq	c103d2c <keypad_timeout_getchar+0x40>
 c103d50:	eb00108f 	bl	c107f94 <timer3_timeout>
 c103d54:	e1a03000 	mov	r3, r0
 c103d58:	e3530000 	cmp	r3, #0
 c103d5c:	0a000001 	beq	c103d68 <keypad_timeout_getchar+0x7c>
 c103d60:	e3a030fe 	mov	r3, #254	; 0xfe
 c103d64:	ea000017 	b	c103dc8 <keypad_timeout_getchar+0xdc>
 c103d68:	e3a0001e 	mov	r0, #30
 c103d6c:	eb000f98 	bl	c107bd4 <sw_delay_ms>
 c103d70:	ebffff1b 	bl	c1039e4 <keypad_scan>
 c103d74:	e1a03000 	mov	r3, r0
 c103d78:	e54b300d 	strb	r3, [fp, #-13]
 c103d7c:	e1a00000 	nop			; (mov r0, r0)
 c103d80:	e59f3050 	ldr	r3, [pc, #80]	; c103dd8 <keypad_timeout_getchar+0xec>
 c103d84:	e5933000 	ldr	r3, [r3]
 c103d88:	e2033002 	and	r3, r3, #2
 c103d8c:	e3530000 	cmp	r3, #0
 c103d90:	1a000003 	bne	c103da4 <keypad_timeout_getchar+0xb8>
 c103d94:	eb00107e 	bl	c107f94 <timer3_timeout>
 c103d98:	e1a03000 	mov	r3, r0
 c103d9c:	e3530000 	cmp	r3, #0
 c103da0:	0afffff6 	beq	c103d80 <keypad_timeout_getchar+0x94>
 c103da4:	eb00107a 	bl	c107f94 <timer3_timeout>
 c103da8:	e1a03000 	mov	r3, r0
 c103dac:	e3530000 	cmp	r3, #0
 c103db0:	0a000001 	beq	c103dbc <keypad_timeout_getchar+0xd0>
 c103db4:	e3a030fe 	mov	r3, #254	; 0xfe
 c103db8:	ea000002 	b	c103dc8 <keypad_timeout_getchar+0xdc>
 c103dbc:	e3a00064 	mov	r0, #100	; 0x64
 c103dc0:	eb000f83 	bl	c107bd4 <sw_delay_ms>
 c103dc4:	e55b300d 	ldrb	r3, [fp, #-13]
 c103dc8:	e1a00003 	mov	r0, r3
 c103dcc:	e24bd00c 	sub	sp, fp, #12
 c103dd0:	e89d6800 	ldm	sp, {fp, sp, lr}
 c103dd4:	e12fff1e 	bx	lr
 c103dd8:	01d20044 	.word	0x01d20044

0c103ddc <keypad_open>:
 c103ddc:	e1a0c00d 	mov	ip, sp
 c103de0:	e92dd800 	push	{fp, ip, lr, pc}
 c103de4:	e24cb004 	sub	fp, ip, #4
 c103de8:	e24dd008 	sub	sp, sp, #8
 c103dec:	e50b0010 	str	r0, [fp, #-16]
 c103df0:	e59f3030 	ldr	r3, [pc, #48]	; c103e28 <keypad_open+0x4c>
 c103df4:	e51b2010 	ldr	r2, [fp, #-16]
 c103df8:	e5832000 	str	r2, [r3]
 c103dfc:	e59f3028 	ldr	r3, [pc, #40]	; c103e2c <keypad_open+0x50>
 c103e00:	e3a02401 	mov	r2, #16777216	; 0x1000000
 c103e04:	e5832000 	str	r2, [r3]
 c103e08:	e59f3020 	ldr	r3, [pc, #32]	; c103e30 <keypad_open+0x54>
 c103e0c:	e59f201c 	ldr	r2, [pc, #28]	; c103e30 <keypad_open+0x54>
 c103e10:	e5922000 	ldr	r2, [r2]
 c103e14:	e3c22405 	bic	r2, r2, #83886080	; 0x5000000
 c103e18:	e5832000 	str	r2, [r3]
 c103e1c:	e24bd00c 	sub	sp, fp, #12
 c103e20:	e89d6800 	ldm	sp, {fp, sp, lr}
 c103e24:	e12fff1e 	bx	lr
 c103e28:	0c7fff80 	.word	0x0c7fff80
 c103e2c:	01e00024 	.word	0x01e00024
 c103e30:	01e0000c 	.word	0x01e0000c

0c103e34 <keypad_close>:
 c103e34:	e1a0c00d 	mov	ip, sp
 c103e38:	e92dd800 	push	{fp, ip, lr, pc}
 c103e3c:	e24cb004 	sub	fp, ip, #4
 c103e40:	e59f3024 	ldr	r3, [pc, #36]	; c103e6c <keypad_close+0x38>
 c103e44:	e59f2020 	ldr	r2, [pc, #32]	; c103e6c <keypad_close+0x38>
 c103e48:	e5922000 	ldr	r2, [r2]
 c103e4c:	e3822401 	orr	r2, r2, #16777216	; 0x1000000
 c103e50:	e5832000 	str	r2, [r3]
 c103e54:	e59f3014 	ldr	r3, [pc, #20]	; c103e70 <keypad_close+0x3c>
 c103e58:	e59f2014 	ldr	r2, [pc, #20]	; c103e74 <keypad_close+0x40>
 c103e5c:	e5832000 	str	r2, [r3]
 c103e60:	e24bd00c 	sub	sp, fp, #12
 c103e64:	e89d6800 	ldm	sp, {fp, sp, lr}
 c103e68:	e12fff1e 	bx	lr
 c103e6c:	01e0000c 	.word	0x01e0000c
 c103e70:	0c7fff70 	.word	0x0c7fff70
 c103e74:	0c107230 	.word	0x0c107230

0c103e78 <keypad_init>:
 c103e78:	e1a0c00d 	mov	ip, sp
 c103e7c:	e92dd800 	push	{fp, ip, lr, pc}
 c103e80:	e24cb004 	sub	fp, ip, #4
 c103e84:	e3a0000a 	mov	r0, #10
 c103e88:	eb00058c 	bl	c1054c0 <power_on>
 c103e8c:	e59f305c 	ldr	r3, [pc, #92]	; c103ef0 <keypad_init+0x78>
 c103e90:	e59f2058 	ldr	r2, [pc, #88]	; c103ef0 <keypad_init+0x78>
 c103e94:	e5922000 	ldr	r2, [r2]
 c103e98:	e3822c01 	orr	r2, r2, #256	; 0x100
 c103e9c:	e5832000 	str	r2, [r3]
 c103ea0:	e59f304c 	ldr	r3, [pc, #76]	; c103ef4 <keypad_init+0x7c>
 c103ea4:	e59f2048 	ldr	r2, [pc, #72]	; c103ef4 <keypad_init+0x7c>
 c103ea8:	e5922000 	ldr	r2, [r2]
 c103eac:	e382200c 	orr	r2, r2, #12
 c103eb0:	e5832000 	str	r2, [r3]
 c103eb4:	e59f303c 	ldr	r3, [pc, #60]	; c103ef8 <keypad_init+0x80>
 c103eb8:	e59f2038 	ldr	r2, [pc, #56]	; c103ef8 <keypad_init+0x80>
 c103ebc:	e5922000 	ldr	r2, [r2]
 c103ec0:	e3c22002 	bic	r2, r2, #2
 c103ec4:	e5832000 	str	r2, [r3]
 c103ec8:	e59f302c 	ldr	r3, [pc, #44]	; c103efc <keypad_init+0x84>
 c103ecc:	e59f2028 	ldr	r2, [pc, #40]	; c103efc <keypad_init+0x84>
 c103ed0:	e5922000 	ldr	r2, [r2]
 c103ed4:	e3c220f0 	bic	r2, r2, #240	; 0xf0
 c103ed8:	e3822020 	orr	r2, r2, #32
 c103edc:	e5832000 	str	r2, [r3]
 c103ee0:	eb000e89 	bl	c10790c <timers_init>
 c103ee4:	e24bd00c 	sub	sp, fp, #12
 c103ee8:	e89d6800 	ldm	sp, {fp, sp, lr}
 c103eec:	e12fff1e 	bx	lr
 c103ef0:	01d20008 	.word	0x01d20008
 c103ef4:	01d20040 	.word	0x01d20040
 c103ef8:	01d20048 	.word	0x01d20048
 c103efc:	01d20050 	.word	0x01d20050

0c103f00 <keypad_getchar>:
 c103f00:	e1a0c00d 	mov	ip, sp
 c103f04:	e92dd800 	push	{fp, ip, lr, pc}
 c103f08:	e24cb004 	sub	fp, ip, #4
 c103f0c:	e24dd008 	sub	sp, sp, #8
 c103f10:	e1a00000 	nop			; (mov r0, r0)
 c103f14:	e59f3054 	ldr	r3, [pc, #84]	; c103f70 <keypad_getchar+0x70>
 c103f18:	e5933000 	ldr	r3, [r3]
 c103f1c:	e2033002 	and	r3, r3, #2
 c103f20:	e3530000 	cmp	r3, #0
 c103f24:	1afffffa 	bne	c103f14 <keypad_getchar+0x14>
 c103f28:	e3a0001e 	mov	r0, #30
 c103f2c:	eb000f28 	bl	c107bd4 <sw_delay_ms>
 c103f30:	ebfffeab 	bl	c1039e4 <keypad_scan>
 c103f34:	e1a03000 	mov	r3, r0
 c103f38:	e54b300d 	strb	r3, [fp, #-13]
 c103f3c:	e1a00000 	nop			; (mov r0, r0)
 c103f40:	e59f3028 	ldr	r3, [pc, #40]	; c103f70 <keypad_getchar+0x70>
 c103f44:	e5933000 	ldr	r3, [r3]
 c103f48:	e2033002 	and	r3, r3, #2
 c103f4c:	e3530000 	cmp	r3, #0
 c103f50:	0afffffa 	beq	c103f40 <keypad_getchar+0x40>
 c103f54:	e3a00064 	mov	r0, #100	; 0x64
 c103f58:	eb000f1d 	bl	c107bd4 <sw_delay_ms>
 c103f5c:	e55b300d 	ldrb	r3, [fp, #-13]
 c103f60:	e1a00003 	mov	r0, r3
 c103f64:	e24bd00c 	sub	sp, fp, #12
 c103f68:	e89d6800 	ldm	sp, {fp, sp, lr}
 c103f6c:	e12fff1e 	bx	lr
 c103f70:	01d20044 	.word	0x01d20044

0c103f74 <lcd_init>:
 c103f74:	e1a0c00d 	mov	ip, sp
 c103f78:	e92dd800 	push	{fp, ip, lr, pc}
 c103f7c:	e24cb004 	sub	fp, ip, #4
 c103f80:	e3a00006 	mov	r0, #6
 c103f84:	eb00054d 	bl	c1054c0 <power_on>
 c103f88:	e59f3114 	ldr	r3, [pc, #276]	; c1040a4 <lcd_init+0x130>
 c103f8c:	e59f2114 	ldr	r2, [pc, #276]	; c1040a8 <lcd_init+0x134>
 c103f90:	e5832000 	str	r2, [r3]
 c103f94:	e59f3110 	ldr	r3, [pc, #272]	; c1040ac <lcd_init+0x138>
 c103f98:	e3a020ff 	mov	r2, #255	; 0xff
 c103f9c:	e5832000 	str	r2, [r3]
 c103fa0:	e59f3108 	ldr	r3, [pc, #264]	; c1040b0 <lcd_init+0x13c>
 c103fa4:	e59f2108 	ldr	r2, [pc, #264]	; c1040b4 <lcd_init+0x140>
 c103fa8:	e5832000 	str	r2, [r3]
 c103fac:	e59f3104 	ldr	r3, [pc, #260]	; c1040b8 <lcd_init+0x144>
 c103fb0:	e59f2104 	ldr	r2, [pc, #260]	; c1040bc <lcd_init+0x148>
 c103fb4:	e5832000 	str	r2, [r3]
 c103fb8:	e59f3100 	ldr	r3, [pc, #256]	; c1040c0 <lcd_init+0x14c>
 c103fbc:	e59f2100 	ldr	r2, [pc, #256]	; c1040c4 <lcd_init+0x150>
 c103fc0:	e5832000 	str	r2, [r3]
 c103fc4:	e59f30fc 	ldr	r3, [pc, #252]	; c1040c8 <lcd_init+0x154>
 c103fc8:	e59f20fc 	ldr	r2, [pc, #252]	; c1040cc <lcd_init+0x158>
 c103fcc:	e5832000 	str	r2, [r3]
 c103fd0:	e59f30f8 	ldr	r3, [pc, #248]	; c1040d0 <lcd_init+0x15c>
 c103fd4:	e59f20f8 	ldr	r2, [pc, #248]	; c1040d4 <lcd_init+0x160>
 c103fd8:	e5832000 	str	r2, [r3]
 c103fdc:	e59f30f4 	ldr	r3, [pc, #244]	; c1040d8 <lcd_init+0x164>
 c103fe0:	e59f20f4 	ldr	r2, [pc, #244]	; c1040dc <lcd_init+0x168>
 c103fe4:	e5832000 	str	r2, [r3]
 c103fe8:	e59f30f0 	ldr	r3, [pc, #240]	; c1040e0 <lcd_init+0x16c>
 c103fec:	e59f20f0 	ldr	r2, [pc, #240]	; c1040e4 <lcd_init+0x170>
 c103ff0:	e5832000 	str	r2, [r3]
 c103ff4:	e59f30ec 	ldr	r3, [pc, #236]	; c1040e8 <lcd_init+0x174>
 c103ff8:	e59f20ec 	ldr	r2, [pc, #236]	; c1040ec <lcd_init+0x178>
 c103ffc:	e5832000 	str	r2, [r3]
 c104000:	e59f30e8 	ldr	r3, [pc, #232]	; c1040f0 <lcd_init+0x17c>
 c104004:	e59f20e8 	ldr	r2, [pc, #232]	; c1040f4 <lcd_init+0x180>
 c104008:	e5832000 	str	r2, [r3]
 c10400c:	e59f30e4 	ldr	r3, [pc, #228]	; c1040f8 <lcd_init+0x184>
 c104010:	e3a02000 	mov	r2, #0
 c104014:	e5832000 	str	r2, [r3]
 c104018:	e59f30dc 	ldr	r3, [pc, #220]	; c1040fc <lcd_init+0x188>
 c10401c:	e3a02000 	mov	r2, #0
 c104020:	e5832000 	str	r2, [r3]
 c104024:	e59f30d4 	ldr	r3, [pc, #212]	; c104100 <lcd_init+0x18c>
 c104028:	e3a02000 	mov	r2, #0
 c10402c:	e5832000 	str	r2, [r3]
 c104030:	e59f30cc 	ldr	r3, [pc, #204]	; c104104 <lcd_init+0x190>
 c104034:	e59f20cc 	ldr	r2, [pc, #204]	; c104108 <lcd_init+0x194>
 c104038:	e5832000 	str	r2, [r3]
 c10403c:	e59f30c8 	ldr	r3, [pc, #200]	; c10410c <lcd_init+0x198>
 c104040:	e3a02000 	mov	r2, #0
 c104044:	e5832000 	str	r2, [r3]
 c104048:	e59f30c0 	ldr	r3, [pc, #192]	; c104110 <lcd_init+0x19c>
 c10404c:	e59f20c0 	ldr	r2, [pc, #192]	; c104114 <lcd_init+0x1a0>
 c104050:	e1a020a2 	lsr	r2, r2, #1
 c104054:	e3822201 	orr	r2, r2, #268435456	; 0x10000000
 c104058:	e5832000 	str	r2, [r3]
 c10405c:	e59f20b4 	ldr	r2, [pc, #180]	; c104118 <lcd_init+0x1a4>
 c104060:	e59f30ac 	ldr	r3, [pc, #172]	; c104114 <lcd_init+0x1a0>
 c104064:	e2833c96 	add	r3, r3, #38400	; 0x9600
 c104068:	e3c334ff 	bic	r3, r3, #-16777216	; 0xff000000
 c10406c:	e3c33503 	bic	r3, r3, #12582912	; 0xc00000
 c104070:	e1a030a3 	lsr	r3, r3, #1
 c104074:	e3833202 	orr	r3, r3, #536870912	; 0x20000000
 c104078:	e5823000 	str	r3, [r2]
 c10407c:	e59f3098 	ldr	r3, [pc, #152]	; c10411c <lcd_init+0x1a8>
 c104080:	e3a02050 	mov	r2, #80	; 0x50
 c104084:	e5832000 	str	r2, [r3]
 c104088:	e3a0361f 	mov	r3, #32505856	; 0x1f00000
 c10408c:	e59f208c 	ldr	r2, [pc, #140]	; c104120 <lcd_init+0x1ac>
 c104090:	e5832000 	str	r2, [r3]
 c104094:	eb000031 	bl	c104160 <lcd_off>
 c104098:	e24bd00c 	sub	sp, fp, #12
 c10409c:	e89d6800 	ldm	sp, {fp, sp, lr}
 c1040a0:	e12fff1e 	bx	lr
 c1040a4:	01d2001c 	.word	0x01d2001c
 c1040a8:	0000aaaa 	.word	0x0000aaaa
 c1040ac:	01d20024 	.word	0x01d20024
 c1040b0:	01f00044 	.word	0x01f00044
 c1040b4:	00012210 	.word	0x00012210
 c1040b8:	01f00020 	.word	0x01f00020
 c1040bc:	0000a5a5 	.word	0x0000a5a5
 c1040c0:	01f00024 	.word	0x01f00024
 c1040c4:	0ba5da65 	.word	0x0ba5da65
 c1040c8:	01f00028 	.word	0x01f00028
 c1040cc:	000a5a5f 	.word	0x000a5a5f
 c1040d0:	01f0002c 	.word	0x01f0002c
 c1040d4:	00000d6b 	.word	0x00000d6b
 c1040d8:	01f00030 	.word	0x01f00030
 c1040dc:	0eb7b5ed 	.word	0x0eb7b5ed
 c1040e0:	01f00034 	.word	0x01f00034
 c1040e4:	00007dbe 	.word	0x00007dbe
 c1040e8:	01f00038 	.word	0x01f00038
 c1040ec:	0007ebdf 	.word	0x0007ebdf
 c1040f0:	01f0003c 	.word	0x01f0003c
 c1040f4:	07fdfbfe 	.word	0x07fdfbfe
 c1040f8:	01f00014 	.word	0x01f00014
 c1040fc:	01f00018 	.word	0x01f00018
 c104100:	01f0001c 	.word	0x01f0001c
 c104104:	01f00004 	.word	0x01f00004
 c104108:	00013cef 	.word	0x00013cef
 c10410c:	01f00040 	.word	0x01f00040
 c104110:	01f00008 	.word	0x01f00008
 c104114:	0c10c0cc 	.word	0x0c10c0cc
 c104118:	01f0000c 	.word	0x01f0000c
 c10411c:	01f00010 	.word	0x01f00010
 c104120:	0001c020 	.word	0x0001c020

0c104124 <lcd_on>:
 c104124:	e1a0c00d 	mov	ip, sp
 c104128:	e92dd800 	push	{fp, ip, lr, pc}
 c10412c:	e24cb004 	sub	fp, ip, #4
 c104130:	e3a0361f 	mov	r3, #32505856	; 0x1f00000
 c104134:	e3a0261f 	mov	r2, #32505856	; 0x1f00000
 c104138:	e5922000 	ldr	r2, [r2]
 c10413c:	e3822001 	orr	r2, r2, #1
 c104140:	e5832000 	str	r2, [r3]
 c104144:	e59f3010 	ldr	r3, [pc, #16]	; c10415c <lcd_on+0x38>
 c104148:	e3a02001 	mov	r2, #1
 c10414c:	e5c32000 	strb	r2, [r3]
 c104150:	e24bd00c 	sub	sp, fp, #12
 c104154:	e89d6800 	ldm	sp, {fp, sp, lr}
 c104158:	e12fff1e 	bx	lr
 c10415c:	0c1157bc 	.word	0x0c1157bc

0c104160 <lcd_off>:
 c104160:	e1a0c00d 	mov	ip, sp
 c104164:	e92dd800 	push	{fp, ip, lr, pc}
 c104168:	e24cb004 	sub	fp, ip, #4
 c10416c:	e3a0361f 	mov	r3, #32505856	; 0x1f00000
 c104170:	e3a0261f 	mov	r2, #32505856	; 0x1f00000
 c104174:	e5922000 	ldr	r2, [r2]
 c104178:	e3c22001 	bic	r2, r2, #1
 c10417c:	e5832000 	str	r2, [r3]
 c104180:	e59f3010 	ldr	r3, [pc, #16]	; c104198 <lcd_off+0x38>
 c104184:	e3a02000 	mov	r2, #0
 c104188:	e5c32000 	strb	r2, [r3]
 c10418c:	e24bd00c 	sub	sp, fp, #12
 c104190:	e89d6800 	ldm	sp, {fp, sp, lr}
 c104194:	e12fff1e 	bx	lr
 c104198:	0c1157bc 	.word	0x0c1157bc

0c10419c <lcd_status>:
 c10419c:	e1a0c00d 	mov	ip, sp
 c1041a0:	e92dd800 	push	{fp, ip, lr, pc}
 c1041a4:	e24cb004 	sub	fp, ip, #4
 c1041a8:	e59f3010 	ldr	r3, [pc, #16]	; c1041c0 <lcd_status+0x24>
 c1041ac:	e5d33000 	ldrb	r3, [r3]
 c1041b0:	e1a00003 	mov	r0, r3
 c1041b4:	e24bd00c 	sub	sp, fp, #12
 c1041b8:	e89d6800 	ldm	sp, {fp, sp, lr}
 c1041bc:	e12fff1e 	bx	lr
 c1041c0:	0c1157bc 	.word	0x0c1157bc

0c1041c4 <lcd_clear>:
 c1041c4:	e1a0c00d 	mov	ip, sp
 c1041c8:	e92dd800 	push	{fp, ip, lr, pc}
 c1041cc:	e24cb004 	sub	fp, ip, #4
 c1041d0:	e24dd008 	sub	sp, sp, #8
 c1041d4:	e3a03000 	mov	r3, #0
 c1041d8:	e50b3010 	str	r3, [fp, #-16]
 c1041dc:	ea000007 	b	c104200 <lcd_clear+0x3c>
 c1041e0:	e59f2034 	ldr	r2, [pc, #52]	; c10421c <lcd_clear+0x58>
 c1041e4:	e51b3010 	ldr	r3, [fp, #-16]
 c1041e8:	e0823003 	add	r3, r2, r3
 c1041ec:	e3a02000 	mov	r2, #0
 c1041f0:	e5c32000 	strb	r2, [r3]
 c1041f4:	e51b3010 	ldr	r3, [fp, #-16]
 c1041f8:	e2833001 	add	r3, r3, #1
 c1041fc:	e50b3010 	str	r3, [fp, #-16]
 c104200:	e51b2010 	ldr	r2, [fp, #-16]
 c104204:	e59f3014 	ldr	r3, [pc, #20]	; c104220 <lcd_clear+0x5c>
 c104208:	e1520003 	cmp	r2, r3
 c10420c:	9afffff3 	bls	c1041e0 <lcd_clear+0x1c>
 c104210:	e24bd00c 	sub	sp, fp, #12
 c104214:	e89d6800 	ldm	sp, {fp, sp, lr}
 c104218:	e12fff1e 	bx	lr
 c10421c:	0c10c0cc 	.word	0x0c10c0cc
 c104220:	000095ff 	.word	0x000095ff

0c104224 <lcd_putpixel>:
 c104224:	e1a0c00d 	mov	ip, sp
 c104228:	e92dd800 	push	{fp, ip, lr, pc}
 c10422c:	e24cb004 	sub	fp, ip, #4
 c104230:	e24dd010 	sub	sp, sp, #16
 c104234:	e1a03002 	mov	r3, r2
 c104238:	e14b01b6 	strh	r0, [fp, #-22]	; 0xffffffea
 c10423c:	e14b11b8 	strh	r1, [fp, #-24]	; 0xffffffe8
 c104240:	e54b3019 	strb	r3, [fp, #-25]	; 0xffffffe7
 c104244:	e15b31b6 	ldrh	r3, [fp, #-22]	; 0xffffffea
 c104248:	e1a030a3 	lsr	r3, r3, #1
 c10424c:	e1a03803 	lsl	r3, r3, #16
 c104250:	e1a02823 	lsr	r2, r3, #16
 c104254:	e15b31b8 	ldrh	r3, [fp, #-24]	; 0xffffffe8
 c104258:	e1a01003 	mov	r1, r3
 c10425c:	e1a01101 	lsl	r1, r1, #2
 c104260:	e0813003 	add	r3, r1, r3
 c104264:	e1a03283 	lsl	r3, r3, #5
 c104268:	e1a03803 	lsl	r3, r3, #16
 c10426c:	e1a03823 	lsr	r3, r3, #16
 c104270:	e0823003 	add	r3, r2, r3
 c104274:	e14b30be 	strh	r3, [fp, #-14]
 c104278:	e15b31b6 	ldrh	r3, [fp, #-22]	; 0xffffffea
 c10427c:	e2033001 	and	r3, r3, #1
 c104280:	e3530000 	cmp	r3, #0
 c104284:	1a000001 	bne	c104290 <lcd_putpixel+0x6c>
 c104288:	e3a03004 	mov	r3, #4
 c10428c:	ea000000 	b	c104294 <lcd_putpixel+0x70>
 c104290:	e3a03000 	mov	r3, #0
 c104294:	e54b300f 	strb	r3, [fp, #-15]
 c104298:	e15b30be 	ldrh	r3, [fp, #-14]
 c10429c:	e59f2068 	ldr	r2, [pc, #104]	; c10430c <lcd_putpixel+0xe8>
 c1042a0:	e7d23003 	ldrb	r3, [r2, r3]
 c1042a4:	e54b3010 	strb	r3, [fp, #-16]
 c1042a8:	e55b300f 	ldrb	r3, [fp, #-15]
 c1042ac:	e3a0200f 	mov	r2, #15
 c1042b0:	e1a03312 	lsl	r3, r2, r3
 c1042b4:	e20330ff 	and	r3, r3, #255	; 0xff
 c1042b8:	e1e03003 	mvn	r3, r3
 c1042bc:	e20320ff 	and	r2, r3, #255	; 0xff
 c1042c0:	e55b3010 	ldrb	r3, [fp, #-16]
 c1042c4:	e0023003 	and	r3, r2, r3
 c1042c8:	e20330ff 	and	r3, r3, #255	; 0xff
 c1042cc:	e54b3010 	strb	r3, [fp, #-16]
 c1042d0:	e55b2019 	ldrb	r2, [fp, #-25]	; 0xffffffe7
 c1042d4:	e55b300f 	ldrb	r3, [fp, #-15]
 c1042d8:	e1a03312 	lsl	r3, r2, r3
 c1042dc:	e20320ff 	and	r2, r3, #255	; 0xff
 c1042e0:	e55b3010 	ldrb	r3, [fp, #-16]
 c1042e4:	e1823003 	orr	r3, r2, r3
 c1042e8:	e20330ff 	and	r3, r3, #255	; 0xff
 c1042ec:	e54b3010 	strb	r3, [fp, #-16]
 c1042f0:	e15b30be 	ldrh	r3, [fp, #-14]
 c1042f4:	e59f2010 	ldr	r2, [pc, #16]	; c10430c <lcd_putpixel+0xe8>
 c1042f8:	e55b1010 	ldrb	r1, [fp, #-16]
 c1042fc:	e7c21003 	strb	r1, [r2, r3]
 c104300:	e24bd00c 	sub	sp, fp, #12
 c104304:	e89d6800 	ldm	sp, {fp, sp, lr}
 c104308:	e12fff1e 	bx	lr
 c10430c:	0c10c0cc 	.word	0x0c10c0cc

0c104310 <lcd_getpixel>:
 c104310:	e1a0c00d 	mov	ip, sp
 c104314:	e92dd800 	push	{fp, ip, lr, pc}
 c104318:	e24cb004 	sub	fp, ip, #4
 c10431c:	e24dd010 	sub	sp, sp, #16
 c104320:	e1a02000 	mov	r2, r0
 c104324:	e1a03001 	mov	r3, r1
 c104328:	e14b21b6 	strh	r2, [fp, #-22]	; 0xffffffea
 c10432c:	e14b31b8 	strh	r3, [fp, #-24]	; 0xffffffe8
 c104330:	e15b31b6 	ldrh	r3, [fp, #-22]	; 0xffffffea
 c104334:	e1a030a3 	lsr	r3, r3, #1
 c104338:	e1a03803 	lsl	r3, r3, #16
 c10433c:	e1a03823 	lsr	r3, r3, #16
 c104340:	e1a01003 	mov	r1, r3
 c104344:	e15b21b8 	ldrh	r2, [fp, #-24]	; 0xffffffe8
 c104348:	e1a03002 	mov	r3, r2
 c10434c:	e1a03103 	lsl	r3, r3, #2
 c104350:	e0833002 	add	r3, r3, r2
 c104354:	e1a03283 	lsl	r3, r3, #5
 c104358:	e0813003 	add	r3, r1, r3
 c10435c:	e59f2044 	ldr	r2, [pc, #68]	; c1043a8 <lcd_getpixel+0x98>
 c104360:	e7d23003 	ldrb	r3, [r2, r3]
 c104364:	e54b300d 	strb	r3, [fp, #-13]
 c104368:	e55b200d 	ldrb	r2, [fp, #-13]
 c10436c:	e15b31b6 	ldrh	r3, [fp, #-22]	; 0xffffffea
 c104370:	e2033001 	and	r3, r3, #1
 c104374:	e3530000 	cmp	r3, #0
 c104378:	1a000001 	bne	c104384 <lcd_getpixel+0x74>
 c10437c:	e3a03004 	mov	r3, #4
 c104380:	ea000000 	b	c104388 <lcd_getpixel+0x78>
 c104384:	e3a03000 	mov	r3, #0
 c104388:	e1a03352 	asr	r3, r2, r3
 c10438c:	e20330ff 	and	r3, r3, #255	; 0xff
 c104390:	e203300f 	and	r3, r3, #15
 c104394:	e20330ff 	and	r3, r3, #255	; 0xff
 c104398:	e1a00003 	mov	r0, r3
 c10439c:	e24bd00c 	sub	sp, fp, #12
 c1043a0:	e89d6800 	ldm	sp, {fp, sp, lr}
 c1043a4:	e12fff1e 	bx	lr
 c1043a8:	0c10c0cc 	.word	0x0c10c0cc

0c1043ac <lcd_draw_hline>:
 c1043ac:	e1a0c00d 	mov	ip, sp
 c1043b0:	e92dd800 	push	{fp, ip, lr, pc}
 c1043b4:	e24cb004 	sub	fp, ip, #4
 c1043b8:	e24dd010 	sub	sp, sp, #16
 c1043bc:	e14b01b6 	strh	r0, [fp, #-22]	; 0xffffffea
 c1043c0:	e14b11b8 	strh	r1, [fp, #-24]	; 0xffffffe8
 c1043c4:	e14b21ba 	strh	r2, [fp, #-26]	; 0xffffffe6
 c1043c8:	e54b301b 	strb	r3, [fp, #-27]	; 0xffffffe5
 c1043cc:	ea00003e 	b	c1044cc <lcd_draw_hline+0x120>
 c1043d0:	e15b31b6 	ldrh	r3, [fp, #-22]	; 0xffffffea
 c1043d4:	e14b30be 	strh	r3, [fp, #-14]
 c1043d8:	ea000034 	b	c1044b0 <lcd_draw_hline+0x104>
 c1043dc:	e15b30be 	ldrh	r3, [fp, #-14]
 c1043e0:	e1a030a3 	lsr	r3, r3, #1
 c1043e4:	e1a03803 	lsl	r3, r3, #16
 c1043e8:	e1a03823 	lsr	r3, r3, #16
 c1043ec:	e1a01003 	mov	r1, r3
 c1043f0:	e15b21ba 	ldrh	r2, [fp, #-26]	; 0xffffffe6
 c1043f4:	e1a03002 	mov	r3, r2
 c1043f8:	e1a03103 	lsl	r3, r3, #2
 c1043fc:	e0833002 	add	r3, r3, r2
 c104400:	e1a03283 	lsl	r3, r3, #5
 c104404:	e0811003 	add	r1, r1, r3
 c104408:	e15b30be 	ldrh	r3, [fp, #-14]
 c10440c:	e1a030a3 	lsr	r3, r3, #1
 c104410:	e1a03803 	lsl	r3, r3, #16
 c104414:	e1a03823 	lsr	r3, r3, #16
 c104418:	e1a00003 	mov	r0, r3
 c10441c:	e15b21ba 	ldrh	r2, [fp, #-26]	; 0xffffffe6
 c104420:	e1a03002 	mov	r3, r2
 c104424:	e1a03103 	lsl	r3, r3, #2
 c104428:	e0833002 	add	r3, r3, r2
 c10442c:	e1a03283 	lsl	r3, r3, #5
 c104430:	e0803003 	add	r3, r0, r3
 c104434:	e59f20c4 	ldr	r2, [pc, #196]	; c104500 <lcd_draw_hline+0x154>
 c104438:	e7d23003 	ldrb	r3, [r2, r3]
 c10443c:	e20320ff 	and	r2, r3, #255	; 0xff
 c104440:	e15b30be 	ldrh	r3, [fp, #-14]
 c104444:	e2033001 	and	r3, r3, #1
 c104448:	e1a03103 	lsl	r3, r3, #2
 c10444c:	e3a000f0 	mov	r0, #240	; 0xf0
 c104450:	e1a03350 	asr	r3, r0, r3
 c104454:	e20330ff 	and	r3, r3, #255	; 0xff
 c104458:	e1e03003 	mvn	r3, r3
 c10445c:	e20330ff 	and	r3, r3, #255	; 0xff
 c104460:	e0023003 	and	r3, r2, r3
 c104464:	e20320ff 	and	r2, r3, #255	; 0xff
 c104468:	e55b001b 	ldrb	r0, [fp, #-27]	; 0xffffffe5
 c10446c:	e15b30be 	ldrh	r3, [fp, #-14]
 c104470:	e2033001 	and	r3, r3, #1
 c104474:	e3530000 	cmp	r3, #0
 c104478:	1a000001 	bne	c104484 <lcd_draw_hline+0xd8>
 c10447c:	e3a03004 	mov	r3, #4
 c104480:	ea000000 	b	c104488 <lcd_draw_hline+0xdc>
 c104484:	e3a03000 	mov	r3, #0
 c104488:	e1a03310 	lsl	r3, r0, r3
 c10448c:	e20330ff 	and	r3, r3, #255	; 0xff
 c104490:	e1823003 	orr	r3, r2, r3
 c104494:	e20330ff 	and	r3, r3, #255	; 0xff
 c104498:	e20320ff 	and	r2, r3, #255	; 0xff
 c10449c:	e59f305c 	ldr	r3, [pc, #92]	; c104500 <lcd_draw_hline+0x154>
 c1044a0:	e7c32001 	strb	r2, [r3, r1]
 c1044a4:	e15b30be 	ldrh	r3, [fp, #-14]
 c1044a8:	e2833001 	add	r3, r3, #1
 c1044ac:	e14b30be 	strh	r3, [fp, #-14]
 c1044b0:	e15b20be 	ldrh	r2, [fp, #-14]
 c1044b4:	e15b31b8 	ldrh	r3, [fp, #-24]	; 0xffffffe8
 c1044b8:	e1520003 	cmp	r2, r3
 c1044bc:	9affffc6 	bls	c1043dc <lcd_draw_hline+0x30>
 c1044c0:	e15b31ba 	ldrh	r3, [fp, #-26]	; 0xffffffe6
 c1044c4:	e2833001 	add	r3, r3, #1
 c1044c8:	e14b31ba 	strh	r3, [fp, #-26]	; 0xffffffe6
 c1044cc:	e1db30b4 	ldrh	r3, [fp, #4]
 c1044d0:	e3530000 	cmp	r3, #0
 c1044d4:	03a03000 	moveq	r3, #0
 c1044d8:	13a03001 	movne	r3, #1
 c1044dc:	e20330ff 	and	r3, r3, #255	; 0xff
 c1044e0:	e1db20b4 	ldrh	r2, [fp, #4]
 c1044e4:	e2422001 	sub	r2, r2, #1
 c1044e8:	e1cb20b4 	strh	r2, [fp, #4]
 c1044ec:	e3530000 	cmp	r3, #0
 c1044f0:	1affffb6 	bne	c1043d0 <lcd_draw_hline+0x24>
 c1044f4:	e24bd00c 	sub	sp, fp, #12
 c1044f8:	e89d6800 	ldm	sp, {fp, sp, lr}
 c1044fc:	e12fff1e 	bx	lr
 c104500:	0c10c0cc 	.word	0x0c10c0cc

0c104504 <lcd_draw_vline>:
 c104504:	e1a0c00d 	mov	ip, sp
 c104508:	e92dd800 	push	{fp, ip, lr, pc}
 c10450c:	e24cb004 	sub	fp, ip, #4
 c104510:	e24dd010 	sub	sp, sp, #16
 c104514:	e14b01b6 	strh	r0, [fp, #-22]	; 0xffffffea
 c104518:	e14b11b8 	strh	r1, [fp, #-24]	; 0xffffffe8
 c10451c:	e14b21ba 	strh	r2, [fp, #-26]	; 0xffffffe6
 c104520:	e54b301b 	strb	r3, [fp, #-27]	; 0xffffffe5
 c104524:	ea00003e 	b	c104624 <lcd_draw_vline+0x120>
 c104528:	e15b31b6 	ldrh	r3, [fp, #-22]	; 0xffffffea
 c10452c:	e14b30be 	strh	r3, [fp, #-14]
 c104530:	ea000034 	b	c104608 <lcd_draw_vline+0x104>
 c104534:	e15b31ba 	ldrh	r3, [fp, #-26]	; 0xffffffe6
 c104538:	e1a030a3 	lsr	r3, r3, #1
 c10453c:	e1a03803 	lsl	r3, r3, #16
 c104540:	e1a03823 	lsr	r3, r3, #16
 c104544:	e1a01003 	mov	r1, r3
 c104548:	e15b20be 	ldrh	r2, [fp, #-14]
 c10454c:	e1a03002 	mov	r3, r2
 c104550:	e1a03103 	lsl	r3, r3, #2
 c104554:	e0833002 	add	r3, r3, r2
 c104558:	e1a03283 	lsl	r3, r3, #5
 c10455c:	e0811003 	add	r1, r1, r3
 c104560:	e15b31ba 	ldrh	r3, [fp, #-26]	; 0xffffffe6
 c104564:	e1a030a3 	lsr	r3, r3, #1
 c104568:	e1a03803 	lsl	r3, r3, #16
 c10456c:	e1a03823 	lsr	r3, r3, #16
 c104570:	e1a00003 	mov	r0, r3
 c104574:	e15b20be 	ldrh	r2, [fp, #-14]
 c104578:	e1a03002 	mov	r3, r2
 c10457c:	e1a03103 	lsl	r3, r3, #2
 c104580:	e0833002 	add	r3, r3, r2
 c104584:	e1a03283 	lsl	r3, r3, #5
 c104588:	e0803003 	add	r3, r0, r3
 c10458c:	e59f20c4 	ldr	r2, [pc, #196]	; c104658 <lcd_draw_vline+0x154>
 c104590:	e7d23003 	ldrb	r3, [r2, r3]
 c104594:	e20320ff 	and	r2, r3, #255	; 0xff
 c104598:	e15b31ba 	ldrh	r3, [fp, #-26]	; 0xffffffe6
 c10459c:	e2033001 	and	r3, r3, #1
 c1045a0:	e1a03103 	lsl	r3, r3, #2
 c1045a4:	e3a000f0 	mov	r0, #240	; 0xf0
 c1045a8:	e1a03350 	asr	r3, r0, r3
 c1045ac:	e20330ff 	and	r3, r3, #255	; 0xff
 c1045b0:	e1e03003 	mvn	r3, r3
 c1045b4:	e20330ff 	and	r3, r3, #255	; 0xff
 c1045b8:	e0023003 	and	r3, r2, r3
 c1045bc:	e20320ff 	and	r2, r3, #255	; 0xff
 c1045c0:	e55b001b 	ldrb	r0, [fp, #-27]	; 0xffffffe5
 c1045c4:	e15b31ba 	ldrh	r3, [fp, #-26]	; 0xffffffe6
 c1045c8:	e2033001 	and	r3, r3, #1
 c1045cc:	e3530000 	cmp	r3, #0
 c1045d0:	1a000001 	bne	c1045dc <lcd_draw_vline+0xd8>
 c1045d4:	e3a03004 	mov	r3, #4
 c1045d8:	ea000000 	b	c1045e0 <lcd_draw_vline+0xdc>
 c1045dc:	e3a03000 	mov	r3, #0
 c1045e0:	e1a03310 	lsl	r3, r0, r3
 c1045e4:	e20330ff 	and	r3, r3, #255	; 0xff
 c1045e8:	e1823003 	orr	r3, r2, r3
 c1045ec:	e20330ff 	and	r3, r3, #255	; 0xff
 c1045f0:	e20320ff 	and	r2, r3, #255	; 0xff
 c1045f4:	e59f305c 	ldr	r3, [pc, #92]	; c104658 <lcd_draw_vline+0x154>
 c1045f8:	e7c32001 	strb	r2, [r3, r1]
 c1045fc:	e15b30be 	ldrh	r3, [fp, #-14]
 c104600:	e2833001 	add	r3, r3, #1
 c104604:	e14b30be 	strh	r3, [fp, #-14]
 c104608:	e15b20be 	ldrh	r2, [fp, #-14]
 c10460c:	e15b31b8 	ldrh	r3, [fp, #-24]	; 0xffffffe8
 c104610:	e1520003 	cmp	r2, r3
 c104614:	9affffc6 	bls	c104534 <lcd_draw_vline+0x30>
 c104618:	e15b31ba 	ldrh	r3, [fp, #-26]	; 0xffffffe6
 c10461c:	e2833001 	add	r3, r3, #1
 c104620:	e14b31ba 	strh	r3, [fp, #-26]	; 0xffffffe6
 c104624:	e1db30b4 	ldrh	r3, [fp, #4]
 c104628:	e3530000 	cmp	r3, #0
 c10462c:	03a03000 	moveq	r3, #0
 c104630:	13a03001 	movne	r3, #1
 c104634:	e20330ff 	and	r3, r3, #255	; 0xff
 c104638:	e1db20b4 	ldrh	r2, [fp, #4]
 c10463c:	e2422001 	sub	r2, r2, #1
 c104640:	e1cb20b4 	strh	r2, [fp, #4]
 c104644:	e3530000 	cmp	r3, #0
 c104648:	1affffb6 	bne	c104528 <lcd_draw_vline+0x24>
 c10464c:	e24bd00c 	sub	sp, fp, #12
 c104650:	e89d6800 	ldm	sp, {fp, sp, lr}
 c104654:	e12fff1e 	bx	lr
 c104658:	0c10c0cc 	.word	0x0c10c0cc

0c10465c <lcd_draw_box>:
 c10465c:	e1a0c00d 	mov	ip, sp
 c104660:	e92dd800 	push	{fp, ip, lr, pc}
 c104664:	e24cb004 	sub	fp, ip, #4
 c104668:	e24dd010 	sub	sp, sp, #16
 c10466c:	e14b00be 	strh	r0, [fp, #-14]
 c104670:	e14b11b0 	strh	r1, [fp, #-16]
 c104674:	e14b21b2 	strh	r2, [fp, #-18]	; 0xffffffee
 c104678:	e14b31b4 	strh	r3, [fp, #-20]	; 0xffffffec
 c10467c:	ea000027 	b	c104720 <lcd_draw_box+0xc4>
 c104680:	e15b00be 	ldrh	r0, [fp, #-14]
 c104684:	e15b11b2 	ldrh	r1, [fp, #-18]	; 0xffffffee
 c104688:	e15b21b0 	ldrh	r2, [fp, #-16]
 c10468c:	e5db3004 	ldrb	r3, [fp, #4]
 c104690:	e3a0c001 	mov	ip, #1
 c104694:	e58dc000 	str	ip, [sp]
 c104698:	ebffff43 	bl	c1043ac <lcd_draw_hline>
 c10469c:	e15b00be 	ldrh	r0, [fp, #-14]
 c1046a0:	e15b11b2 	ldrh	r1, [fp, #-18]	; 0xffffffee
 c1046a4:	e15b21b4 	ldrh	r2, [fp, #-20]	; 0xffffffec
 c1046a8:	e5db3004 	ldrb	r3, [fp, #4]
 c1046ac:	e3a0c001 	mov	ip, #1
 c1046b0:	e58dc000 	str	ip, [sp]
 c1046b4:	ebffff3c 	bl	c1043ac <lcd_draw_hline>
 c1046b8:	e15b01b0 	ldrh	r0, [fp, #-16]
 c1046bc:	e15b11b4 	ldrh	r1, [fp, #-20]	; 0xffffffec
 c1046c0:	e15b20be 	ldrh	r2, [fp, #-14]
 c1046c4:	e5db3004 	ldrb	r3, [fp, #4]
 c1046c8:	e3a0c001 	mov	ip, #1
 c1046cc:	e58dc000 	str	ip, [sp]
 c1046d0:	ebffff8b 	bl	c104504 <lcd_draw_vline>
 c1046d4:	e15b01b0 	ldrh	r0, [fp, #-16]
 c1046d8:	e15b11b4 	ldrh	r1, [fp, #-20]	; 0xffffffec
 c1046dc:	e15b21b2 	ldrh	r2, [fp, #-18]	; 0xffffffee
 c1046e0:	e5db3004 	ldrb	r3, [fp, #4]
 c1046e4:	e3a0c001 	mov	ip, #1
 c1046e8:	e58dc000 	str	ip, [sp]
 c1046ec:	ebffff84 	bl	c104504 <lcd_draw_vline>
 c1046f0:	e15b30be 	ldrh	r3, [fp, #-14]
 c1046f4:	e2833001 	add	r3, r3, #1
 c1046f8:	e14b30be 	strh	r3, [fp, #-14]
 c1046fc:	e15b31b2 	ldrh	r3, [fp, #-18]	; 0xffffffee
 c104700:	e2433001 	sub	r3, r3, #1
 c104704:	e14b31b2 	strh	r3, [fp, #-18]	; 0xffffffee
 c104708:	e15b31b0 	ldrh	r3, [fp, #-16]
 c10470c:	e2833001 	add	r3, r3, #1
 c104710:	e14b31b0 	strh	r3, [fp, #-16]
 c104714:	e15b31b4 	ldrh	r3, [fp, #-20]	; 0xffffffec
 c104718:	e2433001 	sub	r3, r3, #1
 c10471c:	e14b31b4 	strh	r3, [fp, #-20]	; 0xffffffec
 c104720:	e1db30b8 	ldrh	r3, [fp, #8]
 c104724:	e3530000 	cmp	r3, #0
 c104728:	03a03000 	moveq	r3, #0
 c10472c:	13a03001 	movne	r3, #1
 c104730:	e20330ff 	and	r3, r3, #255	; 0xff
 c104734:	e1db20b8 	ldrh	r2, [fp, #8]
 c104738:	e2422001 	sub	r2, r2, #1
 c10473c:	e1cb20b8 	strh	r2, [fp, #8]
 c104740:	e3530000 	cmp	r3, #0
 c104744:	1affffcd 	bne	c104680 <lcd_draw_box+0x24>
 c104748:	e24bd00c 	sub	sp, fp, #12
 c10474c:	e89d6800 	ldm	sp, {fp, sp, lr}
 c104750:	e12fff1e 	bx	lr

0c104754 <lcd_putchar>:
 c104754:	e1a0c00d 	mov	ip, sp
 c104758:	e92dd800 	push	{fp, ip, lr, pc}
 c10475c:	e24cb004 	sub	fp, ip, #4
 c104760:	e24dd010 	sub	sp, sp, #16
 c104764:	e14b01b6 	strh	r0, [fp, #-22]	; 0xffffffea
 c104768:	e14b11b8 	strh	r1, [fp, #-24]	; 0xffffffe8
 c10476c:	e54b2019 	strb	r2, [fp, #-25]	; 0xffffffe7
 c104770:	e54b301a 	strb	r3, [fp, #-26]	; 0xffffffe6
 c104774:	e55b301a 	ldrb	r3, [fp, #-26]	; 0xffffffe6
 c104778:	e1a03203 	lsl	r3, r3, #4
 c10477c:	e1a02003 	mov	r2, r3
 c104780:	e59f3240 	ldr	r3, [pc, #576]	; c1049c8 <lcd_putchar+0x274>
 c104784:	e0823003 	add	r3, r2, r3
 c104788:	e50b3014 	str	r3, [fp, #-20]	; 0xffffffec
 c10478c:	e3a03000 	mov	r3, #0
 c104790:	e54b300d 	strb	r3, [fp, #-13]
 c104794:	ea000085 	b	c1049b0 <lcd_putchar+0x25c>
 c104798:	e3a03000 	mov	r3, #0
 c10479c:	e54b300e 	strb	r3, [fp, #-14]
 c1047a0:	ea00007c 	b	c104998 <lcd_putchar+0x244>
 c1047a4:	e55b300d 	ldrb	r3, [fp, #-13]
 c1047a8:	e51b2014 	ldr	r2, [fp, #-20]	; 0xffffffec
 c1047ac:	e0823003 	add	r3, r2, r3
 c1047b0:	e5d33000 	ldrb	r3, [r3]
 c1047b4:	e1a02003 	mov	r2, r3
 c1047b8:	e55b300e 	ldrb	r3, [fp, #-14]
 c1047bc:	e3a01080 	mov	r1, #128	; 0x80
 c1047c0:	e1a03351 	asr	r3, r1, r3
 c1047c4:	e0023003 	and	r3, r2, r3
 c1047c8:	e3530000 	cmp	r3, #0
 c1047cc:	0a00003e 	beq	c1048cc <lcd_putchar+0x178>
 c1047d0:	e15b21b6 	ldrh	r2, [fp, #-22]	; 0xffffffea
 c1047d4:	e55b300e 	ldrb	r3, [fp, #-14]
 c1047d8:	e0823003 	add	r3, r2, r3
 c1047dc:	e1a02fa3 	lsr	r2, r3, #31
 c1047e0:	e0823003 	add	r3, r2, r3
 c1047e4:	e1a030c3 	asr	r3, r3, #1
 c1047e8:	e1a01003 	mov	r1, r3
 c1047ec:	e15b21b8 	ldrh	r2, [fp, #-24]	; 0xffffffe8
 c1047f0:	e55b300d 	ldrb	r3, [fp, #-13]
 c1047f4:	e0822003 	add	r2, r2, r3
 c1047f8:	e1a03002 	mov	r3, r2
 c1047fc:	e1a03103 	lsl	r3, r3, #2
 c104800:	e0833002 	add	r3, r3, r2
 c104804:	e1a03283 	lsl	r3, r3, #5
 c104808:	e0811003 	add	r1, r1, r3
 c10480c:	e15b21b6 	ldrh	r2, [fp, #-22]	; 0xffffffea
 c104810:	e55b300e 	ldrb	r3, [fp, #-14]
 c104814:	e0823003 	add	r3, r2, r3
 c104818:	e1a02fa3 	lsr	r2, r3, #31
 c10481c:	e0823003 	add	r3, r2, r3
 c104820:	e1a030c3 	asr	r3, r3, #1
 c104824:	e1a00003 	mov	r0, r3
 c104828:	e15b21b8 	ldrh	r2, [fp, #-24]	; 0xffffffe8
 c10482c:	e55b300d 	ldrb	r3, [fp, #-13]
 c104830:	e0822003 	add	r2, r2, r3
 c104834:	e1a03002 	mov	r3, r2
 c104838:	e1a03103 	lsl	r3, r3, #2
 c10483c:	e0833002 	add	r3, r3, r2
 c104840:	e1a03283 	lsl	r3, r3, #5
 c104844:	e0803003 	add	r3, r0, r3
 c104848:	e59f217c 	ldr	r2, [pc, #380]	; c1049cc <lcd_putchar+0x278>
 c10484c:	e7d23003 	ldrb	r3, [r2, r3]
 c104850:	e20320ff 	and	r2, r3, #255	; 0xff
 c104854:	e15b01b6 	ldrh	r0, [fp, #-22]	; 0xffffffea
 c104858:	e55b300e 	ldrb	r3, [fp, #-14]
 c10485c:	e0803003 	add	r3, r0, r3
 c104860:	e2033001 	and	r3, r3, #1
 c104864:	e1a03103 	lsl	r3, r3, #2
 c104868:	e3a000f0 	mov	r0, #240	; 0xf0
 c10486c:	e1a03350 	asr	r3, r0, r3
 c104870:	e20330ff 	and	r3, r3, #255	; 0xff
 c104874:	e1e03003 	mvn	r3, r3
 c104878:	e20330ff 	and	r3, r3, #255	; 0xff
 c10487c:	e0023003 	and	r3, r2, r3
 c104880:	e20320ff 	and	r2, r3, #255	; 0xff
 c104884:	e55b0019 	ldrb	r0, [fp, #-25]	; 0xffffffe7
 c104888:	e15bc1b6 	ldrh	ip, [fp, #-22]	; 0xffffffea
 c10488c:	e55b300e 	ldrb	r3, [fp, #-14]
 c104890:	e08c3003 	add	r3, ip, r3
 c104894:	e2033001 	and	r3, r3, #1
 c104898:	e3530000 	cmp	r3, #0
 c10489c:	1a000001 	bne	c1048a8 <lcd_putchar+0x154>
 c1048a0:	e3a03004 	mov	r3, #4
 c1048a4:	ea000000 	b	c1048ac <lcd_putchar+0x158>
 c1048a8:	e3a03000 	mov	r3, #0
 c1048ac:	e1a03310 	lsl	r3, r0, r3
 c1048b0:	e20330ff 	and	r3, r3, #255	; 0xff
 c1048b4:	e1823003 	orr	r3, r2, r3
 c1048b8:	e20330ff 	and	r3, r3, #255	; 0xff
 c1048bc:	e20320ff 	and	r2, r3, #255	; 0xff
 c1048c0:	e59f3104 	ldr	r3, [pc, #260]	; c1049cc <lcd_putchar+0x278>
 c1048c4:	e7c32001 	strb	r2, [r3, r1]
 c1048c8:	ea00002f 	b	c10498c <lcd_putchar+0x238>
 c1048cc:	e15b21b6 	ldrh	r2, [fp, #-22]	; 0xffffffea
 c1048d0:	e55b300e 	ldrb	r3, [fp, #-14]
 c1048d4:	e0823003 	add	r3, r2, r3
 c1048d8:	e1a02fa3 	lsr	r2, r3, #31
 c1048dc:	e0823003 	add	r3, r2, r3
 c1048e0:	e1a030c3 	asr	r3, r3, #1
 c1048e4:	e1a01003 	mov	r1, r3
 c1048e8:	e15b21b8 	ldrh	r2, [fp, #-24]	; 0xffffffe8
 c1048ec:	e55b300d 	ldrb	r3, [fp, #-13]
 c1048f0:	e0822003 	add	r2, r2, r3
 c1048f4:	e1a03002 	mov	r3, r2
 c1048f8:	e1a03103 	lsl	r3, r3, #2
 c1048fc:	e0833002 	add	r3, r3, r2
 c104900:	e1a03283 	lsl	r3, r3, #5
 c104904:	e0811003 	add	r1, r1, r3
 c104908:	e15b21b6 	ldrh	r2, [fp, #-22]	; 0xffffffea
 c10490c:	e55b300e 	ldrb	r3, [fp, #-14]
 c104910:	e0823003 	add	r3, r2, r3
 c104914:	e1a02fa3 	lsr	r2, r3, #31
 c104918:	e0823003 	add	r3, r2, r3
 c10491c:	e1a030c3 	asr	r3, r3, #1
 c104920:	e1a00003 	mov	r0, r3
 c104924:	e15b21b8 	ldrh	r2, [fp, #-24]	; 0xffffffe8
 c104928:	e55b300d 	ldrb	r3, [fp, #-13]
 c10492c:	e0822003 	add	r2, r2, r3
 c104930:	e1a03002 	mov	r3, r2
 c104934:	e1a03103 	lsl	r3, r3, #2
 c104938:	e0833002 	add	r3, r3, r2
 c10493c:	e1a03283 	lsl	r3, r3, #5
 c104940:	e0803003 	add	r3, r0, r3
 c104944:	e59f2080 	ldr	r2, [pc, #128]	; c1049cc <lcd_putchar+0x278>
 c104948:	e7d23003 	ldrb	r3, [r2, r3]
 c10494c:	e20320ff 	and	r2, r3, #255	; 0xff
 c104950:	e15b01b6 	ldrh	r0, [fp, #-22]	; 0xffffffea
 c104954:	e55b300e 	ldrb	r3, [fp, #-14]
 c104958:	e0803003 	add	r3, r0, r3
 c10495c:	e2033001 	and	r3, r3, #1
 c104960:	e1a03103 	lsl	r3, r3, #2
 c104964:	e3a000f0 	mov	r0, #240	; 0xf0
 c104968:	e1a03350 	asr	r3, r0, r3
 c10496c:	e20330ff 	and	r3, r3, #255	; 0xff
 c104970:	e1e03003 	mvn	r3, r3
 c104974:	e20330ff 	and	r3, r3, #255	; 0xff
 c104978:	e0023003 	and	r3, r2, r3
 c10497c:	e20330ff 	and	r3, r3, #255	; 0xff
 c104980:	e20320ff 	and	r2, r3, #255	; 0xff
 c104984:	e59f3040 	ldr	r3, [pc, #64]	; c1049cc <lcd_putchar+0x278>
 c104988:	e7c32001 	strb	r2, [r3, r1]
 c10498c:	e55b300e 	ldrb	r3, [fp, #-14]
 c104990:	e2833001 	add	r3, r3, #1
 c104994:	e54b300e 	strb	r3, [fp, #-14]
 c104998:	e55b300e 	ldrb	r3, [fp, #-14]
 c10499c:	e3530007 	cmp	r3, #7
 c1049a0:	9affff7f 	bls	c1047a4 <lcd_putchar+0x50>
 c1049a4:	e55b300d 	ldrb	r3, [fp, #-13]
 c1049a8:	e2833001 	add	r3, r3, #1
 c1049ac:	e54b300d 	strb	r3, [fp, #-13]
 c1049b0:	e55b300d 	ldrb	r3, [fp, #-13]
 c1049b4:	e353000f 	cmp	r3, #15
 c1049b8:	9affff76 	bls	c104798 <lcd_putchar+0x44>
 c1049bc:	e24bd00c 	sub	sp, fp, #12
 c1049c0:	e89d6800 	ldm	sp, {fp, sp, lr}
 c1049c4:	e12fff1e 	bx	lr
 c1049c8:	0c10b0b0 	.word	0x0c10b0b0
 c1049cc:	0c10c0cc 	.word	0x0c10c0cc

0c1049d0 <lcd_puts>:
 c1049d0:	e1a0c00d 	mov	ip, sp
 c1049d4:	e92dd800 	push	{fp, ip, lr, pc}
 c1049d8:	e24cb004 	sub	fp, ip, #4
 c1049dc:	e24dd010 	sub	sp, sp, #16
 c1049e0:	e50b3018 	str	r3, [fp, #-24]	; 0xffffffe8
 c1049e4:	e14b00be 	strh	r0, [fp, #-14]
 c1049e8:	e14b11b0 	strh	r1, [fp, #-16]
 c1049ec:	e1a03002 	mov	r3, r2
 c1049f0:	e54b3011 	strb	r3, [fp, #-17]	; 0xffffffef
 c1049f4:	ea00000b 	b	c104a28 <lcd_puts+0x58>
 c1049f8:	e51b3018 	ldr	r3, [fp, #-24]	; 0xffffffe8
 c1049fc:	e5d33000 	ldrb	r3, [r3]
 c104a00:	e15b00be 	ldrh	r0, [fp, #-14]
 c104a04:	e15b11b0 	ldrh	r1, [fp, #-16]
 c104a08:	e55b2011 	ldrb	r2, [fp, #-17]	; 0xffffffef
 c104a0c:	ebffff50 	bl	c104754 <lcd_putchar>
 c104a10:	e51b3018 	ldr	r3, [fp, #-24]	; 0xffffffe8
 c104a14:	e2833001 	add	r3, r3, #1
 c104a18:	e50b3018 	str	r3, [fp, #-24]	; 0xffffffe8
 c104a1c:	e15b30be 	ldrh	r3, [fp, #-14]
 c104a20:	e2833008 	add	r3, r3, #8
 c104a24:	e14b30be 	strh	r3, [fp, #-14]
 c104a28:	e51b3018 	ldr	r3, [fp, #-24]	; 0xffffffe8
 c104a2c:	e5d33000 	ldrb	r3, [r3]
 c104a30:	e3530000 	cmp	r3, #0
 c104a34:	1affffef 	bne	c1049f8 <lcd_puts+0x28>
 c104a38:	e24bd00c 	sub	sp, fp, #12
 c104a3c:	e89d6800 	ldm	sp, {fp, sp, lr}
 c104a40:	e12fff1e 	bx	lr

0c104a44 <lcd_putint>:
 c104a44:	e1a0c00d 	mov	ip, sp
 c104a48:	e92dd800 	push	{fp, ip, lr, pc}
 c104a4c:	e24cb004 	sub	fp, ip, #4
 c104a50:	e24dd018 	sub	sp, sp, #24
 c104a54:	e50b3020 	str	r3, [fp, #-32]	; 0xffffffe0
 c104a58:	e14b01b6 	strh	r0, [fp, #-22]	; 0xffffffea
 c104a5c:	e14b11b8 	strh	r1, [fp, #-24]	; 0xffffffe8
 c104a60:	e1a03002 	mov	r3, r2
 c104a64:	e54b3019 	strb	r3, [fp, #-25]	; 0xffffffe7
 c104a68:	e59f3148 	ldr	r3, [pc, #328]	; c104bb8 <lcd_putint+0x174>
 c104a6c:	e50b3010 	str	r3, [fp, #-16]
 c104a70:	e51b3010 	ldr	r3, [fp, #-16]
 c104a74:	e3a02000 	mov	r2, #0
 c104a78:	e5c32000 	strb	r2, [r3]
 c104a7c:	e51b3020 	ldr	r3, [fp, #-32]	; 0xffffffe0
 c104a80:	e3530000 	cmp	r3, #0
 c104a84:	ba00001d 	blt	c104b00 <lcd_putint+0xbc>
 c104a88:	e51b3010 	ldr	r3, [fp, #-16]
 c104a8c:	e2433001 	sub	r3, r3, #1
 c104a90:	e50b3010 	str	r3, [fp, #-16]
 c104a94:	e51b1020 	ldr	r1, [fp, #-32]	; 0xffffffe0
 c104a98:	e59f311c 	ldr	r3, [pc, #284]	; c104bbc <lcd_putint+0x178>
 c104a9c:	e0c32391 	smull	r2, r3, r1, r3
 c104aa0:	e1a02143 	asr	r2, r3, #2
 c104aa4:	e1a03fc1 	asr	r3, r1, #31
 c104aa8:	e0632002 	rsb	r2, r3, r2
 c104aac:	e1a03002 	mov	r3, r2
 c104ab0:	e1a03103 	lsl	r3, r3, #2
 c104ab4:	e0833002 	add	r3, r3, r2
 c104ab8:	e1a03083 	lsl	r3, r3, #1
 c104abc:	e0632001 	rsb	r2, r3, r1
 c104ac0:	e20230ff 	and	r3, r2, #255	; 0xff
 c104ac4:	e2833030 	add	r3, r3, #48	; 0x30
 c104ac8:	e20320ff 	and	r2, r3, #255	; 0xff
 c104acc:	e51b3010 	ldr	r3, [fp, #-16]
 c104ad0:	e5c32000 	strb	r2, [r3]
 c104ad4:	e51b3020 	ldr	r3, [fp, #-32]	; 0xffffffe0
 c104ad8:	e59f20dc 	ldr	r2, [pc, #220]	; c104bbc <lcd_putint+0x178>
 c104adc:	e0c21293 	smull	r1, r2, r3, r2
 c104ae0:	e1a02142 	asr	r2, r2, #2
 c104ae4:	e1a03fc3 	asr	r3, r3, #31
 c104ae8:	e0633002 	rsb	r3, r3, r2
 c104aec:	e50b3020 	str	r3, [fp, #-32]	; 0xffffffe0
 c104af0:	e51b3020 	ldr	r3, [fp, #-32]	; 0xffffffe0
 c104af4:	e3530000 	cmp	r3, #0
 c104af8:	1affffe2 	bne	c104a88 <lcd_putint+0x44>
 c104afc:	ea000022 	b	c104b8c <lcd_putint+0x148>
 c104b00:	e51b3010 	ldr	r3, [fp, #-16]
 c104b04:	e2433001 	sub	r3, r3, #1
 c104b08:	e50b3010 	str	r3, [fp, #-16]
 c104b0c:	e51b1020 	ldr	r1, [fp, #-32]	; 0xffffffe0
 c104b10:	e59f30a4 	ldr	r3, [pc, #164]	; c104bbc <lcd_putint+0x178>
 c104b14:	e0c32391 	smull	r2, r3, r1, r3
 c104b18:	e1a02143 	asr	r2, r3, #2
 c104b1c:	e1a03fc1 	asr	r3, r1, #31
 c104b20:	e0632002 	rsb	r2, r3, r2
 c104b24:	e1a03002 	mov	r3, r2
 c104b28:	e1a03103 	lsl	r3, r3, #2
 c104b2c:	e0833002 	add	r3, r3, r2
 c104b30:	e1a03083 	lsl	r3, r3, #1
 c104b34:	e0632001 	rsb	r2, r3, r1
 c104b38:	e20230ff 	and	r3, r2, #255	; 0xff
 c104b3c:	e2633030 	rsb	r3, r3, #48	; 0x30
 c104b40:	e20320ff 	and	r2, r3, #255	; 0xff
 c104b44:	e51b3010 	ldr	r3, [fp, #-16]
 c104b48:	e5c32000 	strb	r2, [r3]
 c104b4c:	e51b3020 	ldr	r3, [fp, #-32]	; 0xffffffe0
 c104b50:	e59f2064 	ldr	r2, [pc, #100]	; c104bbc <lcd_putint+0x178>
 c104b54:	e0c21293 	smull	r1, r2, r3, r2
 c104b58:	e1a02142 	asr	r2, r2, #2
 c104b5c:	e1a03fc3 	asr	r3, r3, #31
 c104b60:	e0633002 	rsb	r3, r3, r2
 c104b64:	e50b3020 	str	r3, [fp, #-32]	; 0xffffffe0
 c104b68:	e51b3020 	ldr	r3, [fp, #-32]	; 0xffffffe0
 c104b6c:	e3530000 	cmp	r3, #0
 c104b70:	1affffe2 	bne	c104b00 <lcd_putint+0xbc>
 c104b74:	e51b3010 	ldr	r3, [fp, #-16]
 c104b78:	e2433001 	sub	r3, r3, #1
 c104b7c:	e50b3010 	str	r3, [fp, #-16]
 c104b80:	e51b3010 	ldr	r3, [fp, #-16]
 c104b84:	e3a0202d 	mov	r2, #45	; 0x2d
 c104b88:	e5c32000 	strb	r2, [r3]
 c104b8c:	e15b11b6 	ldrh	r1, [fp, #-22]	; 0xffffffea
 c104b90:	e15b21b8 	ldrh	r2, [fp, #-24]	; 0xffffffe8
 c104b94:	e55b3019 	ldrb	r3, [fp, #-25]	; 0xffffffe7
 c104b98:	e1a00001 	mov	r0, r1
 c104b9c:	e1a01002 	mov	r1, r2
 c104ba0:	e1a02003 	mov	r2, r3
 c104ba4:	e51b3010 	ldr	r3, [fp, #-16]
 c104ba8:	ebffff88 	bl	c1049d0 <lcd_puts>
 c104bac:	e24bd00c 	sub	sp, fp, #12
 c104bb0:	e89d6800 	ldm	sp, {fp, sp, lr}
 c104bb4:	e12fff1e 	bx	lr
 c104bb8:	0c1157ef 	.word	0x0c1157ef
 c104bbc:	66666667 	.word	0x66666667

0c104bc0 <lcd_puthex>:
 c104bc0:	e1a0c00d 	mov	ip, sp
 c104bc4:	e92dd800 	push	{fp, ip, lr, pc}
 c104bc8:	e24cb004 	sub	fp, ip, #4
 c104bcc:	e24dd018 	sub	sp, sp, #24
 c104bd0:	e50b3020 	str	r3, [fp, #-32]	; 0xffffffe0
 c104bd4:	e14b01b6 	strh	r0, [fp, #-22]	; 0xffffffea
 c104bd8:	e14b11b8 	strh	r1, [fp, #-24]	; 0xffffffe8
 c104bdc:	e1a03002 	mov	r3, r2
 c104be0:	e54b3019 	strb	r3, [fp, #-25]	; 0xffffffe7
 c104be4:	e59f30b0 	ldr	r3, [pc, #176]	; c104c9c <lcd_puthex+0xdc>
 c104be8:	e50b3010 	str	r3, [fp, #-16]
 c104bec:	e51b3010 	ldr	r3, [fp, #-16]
 c104bf0:	e3a02000 	mov	r2, #0
 c104bf4:	e5c32000 	strb	r2, [r3]
 c104bf8:	e51b3020 	ldr	r3, [fp, #-32]	; 0xffffffe0
 c104bfc:	e20330ff 	and	r3, r3, #255	; 0xff
 c104c00:	e203300f 	and	r3, r3, #15
 c104c04:	e54b3011 	strb	r3, [fp, #-17]	; 0xffffffef
 c104c08:	e55b3011 	ldrb	r3, [fp, #-17]	; 0xffffffef
 c104c0c:	e3530009 	cmp	r3, #9
 c104c10:	8a000008 	bhi	c104c38 <lcd_puthex+0x78>
 c104c14:	e51b3010 	ldr	r3, [fp, #-16]
 c104c18:	e2433001 	sub	r3, r3, #1
 c104c1c:	e50b3010 	str	r3, [fp, #-16]
 c104c20:	e55b3011 	ldrb	r3, [fp, #-17]	; 0xffffffef
 c104c24:	e2833030 	add	r3, r3, #48	; 0x30
 c104c28:	e20320ff 	and	r2, r3, #255	; 0xff
 c104c2c:	e51b3010 	ldr	r3, [fp, #-16]
 c104c30:	e5c32000 	strb	r2, [r3]
 c104c34:	ea000007 	b	c104c58 <lcd_puthex+0x98>
 c104c38:	e51b3010 	ldr	r3, [fp, #-16]
 c104c3c:	e2433001 	sub	r3, r3, #1
 c104c40:	e50b3010 	str	r3, [fp, #-16]
 c104c44:	e55b3011 	ldrb	r3, [fp, #-17]	; 0xffffffef
 c104c48:	e2833057 	add	r3, r3, #87	; 0x57
 c104c4c:	e20320ff 	and	r2, r3, #255	; 0xff
 c104c50:	e51b3010 	ldr	r3, [fp, #-16]
 c104c54:	e5c32000 	strb	r2, [r3]
 c104c58:	e51b3020 	ldr	r3, [fp, #-32]	; 0xffffffe0
 c104c5c:	e1a03223 	lsr	r3, r3, #4
 c104c60:	e50b3020 	str	r3, [fp, #-32]	; 0xffffffe0
 c104c64:	e51b3020 	ldr	r3, [fp, #-32]	; 0xffffffe0
 c104c68:	e3530000 	cmp	r3, #0
 c104c6c:	1affffe1 	bne	c104bf8 <lcd_puthex+0x38>
 c104c70:	e15b11b6 	ldrh	r1, [fp, #-22]	; 0xffffffea
 c104c74:	e15b21b8 	ldrh	r2, [fp, #-24]	; 0xffffffe8
 c104c78:	e55b3019 	ldrb	r3, [fp, #-25]	; 0xffffffe7
 c104c7c:	e1a00001 	mov	r0, r1
 c104c80:	e1a01002 	mov	r1, r2
 c104c84:	e1a02003 	mov	r2, r3
 c104c88:	e51b3010 	ldr	r3, [fp, #-16]
 c104c8c:	ebffff4f 	bl	c1049d0 <lcd_puts>
 c104c90:	e24bd00c 	sub	sp, fp, #12
 c104c94:	e89d6800 	ldm	sp, {fp, sp, lr}
 c104c98:	e12fff1e 	bx	lr
 c104c9c:	0c1157e0 	.word	0x0c1157e0

0c104ca0 <lcd_putchar_x2>:
 c104ca0:	e1a0c00d 	mov	ip, sp
 c104ca4:	e92dd800 	push	{fp, ip, lr, pc}
 c104ca8:	e24cb004 	sub	fp, ip, #4
 c104cac:	e24dd010 	sub	sp, sp, #16
 c104cb0:	e14b01b6 	strh	r0, [fp, #-22]	; 0xffffffea
 c104cb4:	e14b11b8 	strh	r1, [fp, #-24]	; 0xffffffe8
 c104cb8:	e54b2019 	strb	r2, [fp, #-25]	; 0xffffffe7
 c104cbc:	e54b301a 	strb	r3, [fp, #-26]	; 0xffffffe6
 c104cc0:	e55b301a 	ldrb	r3, [fp, #-26]	; 0xffffffe6
 c104cc4:	e1a03203 	lsl	r3, r3, #4
 c104cc8:	e1a02003 	mov	r2, r3
 c104ccc:	e59f3250 	ldr	r3, [pc, #592]	; c104f24 <lcd_putchar_x2+0x284>
 c104cd0:	e0823003 	add	r3, r2, r3
 c104cd4:	e50b3014 	str	r3, [fp, #-20]	; 0xffffffec
 c104cd8:	e3a03000 	mov	r3, #0
 c104cdc:	e54b300d 	strb	r3, [fp, #-13]
 c104ce0:	ea000089 	b	c104f0c <lcd_putchar_x2+0x26c>
 c104ce4:	e3a03000 	mov	r3, #0
 c104ce8:	e54b300e 	strb	r3, [fp, #-14]
 c104cec:	ea000080 	b	c104ef4 <lcd_putchar_x2+0x254>
 c104cf0:	e55b300d 	ldrb	r3, [fp, #-13]
 c104cf4:	e1a030a3 	lsr	r3, r3, #1
 c104cf8:	e20330ff 	and	r3, r3, #255	; 0xff
 c104cfc:	e51b2014 	ldr	r2, [fp, #-20]	; 0xffffffec
 c104d00:	e0823003 	add	r3, r2, r3
 c104d04:	e5d33000 	ldrb	r3, [r3]
 c104d08:	e1a02003 	mov	r2, r3
 c104d0c:	e55b300e 	ldrb	r3, [fp, #-14]
 c104d10:	e1a030a3 	lsr	r3, r3, #1
 c104d14:	e20330ff 	and	r3, r3, #255	; 0xff
 c104d18:	e3a01080 	mov	r1, #128	; 0x80
 c104d1c:	e1a03351 	asr	r3, r1, r3
 c104d20:	e0023003 	and	r3, r2, r3
 c104d24:	e3530000 	cmp	r3, #0
 c104d28:	0a00003e 	beq	c104e28 <lcd_putchar_x2+0x188>
 c104d2c:	e15b21b6 	ldrh	r2, [fp, #-22]	; 0xffffffea
 c104d30:	e55b300e 	ldrb	r3, [fp, #-14]
 c104d34:	e0823003 	add	r3, r2, r3
 c104d38:	e1a02fa3 	lsr	r2, r3, #31
 c104d3c:	e0823003 	add	r3, r2, r3
 c104d40:	e1a030c3 	asr	r3, r3, #1
 c104d44:	e1a01003 	mov	r1, r3
 c104d48:	e15b21b8 	ldrh	r2, [fp, #-24]	; 0xffffffe8
 c104d4c:	e55b300d 	ldrb	r3, [fp, #-13]
 c104d50:	e0822003 	add	r2, r2, r3
 c104d54:	e1a03002 	mov	r3, r2
 c104d58:	e1a03103 	lsl	r3, r3, #2
 c104d5c:	e0833002 	add	r3, r3, r2
 c104d60:	e1a03283 	lsl	r3, r3, #5
 c104d64:	e0811003 	add	r1, r1, r3
 c104d68:	e15b21b6 	ldrh	r2, [fp, #-22]	; 0xffffffea
 c104d6c:	e55b300e 	ldrb	r3, [fp, #-14]
 c104d70:	e0823003 	add	r3, r2, r3
 c104d74:	e1a02fa3 	lsr	r2, r3, #31
 c104d78:	e0823003 	add	r3, r2, r3
 c104d7c:	e1a030c3 	asr	r3, r3, #1
 c104d80:	e1a00003 	mov	r0, r3
 c104d84:	e15b21b8 	ldrh	r2, [fp, #-24]	; 0xffffffe8
 c104d88:	e55b300d 	ldrb	r3, [fp, #-13]
 c104d8c:	e0822003 	add	r2, r2, r3
 c104d90:	e1a03002 	mov	r3, r2
 c104d94:	e1a03103 	lsl	r3, r3, #2
 c104d98:	e0833002 	add	r3, r3, r2
 c104d9c:	e1a03283 	lsl	r3, r3, #5
 c104da0:	e0803003 	add	r3, r0, r3
 c104da4:	e59f217c 	ldr	r2, [pc, #380]	; c104f28 <lcd_putchar_x2+0x288>
 c104da8:	e7d23003 	ldrb	r3, [r2, r3]
 c104dac:	e20320ff 	and	r2, r3, #255	; 0xff
 c104db0:	e15b01b6 	ldrh	r0, [fp, #-22]	; 0xffffffea
 c104db4:	e55b300e 	ldrb	r3, [fp, #-14]
 c104db8:	e0803003 	add	r3, r0, r3
 c104dbc:	e2033001 	and	r3, r3, #1
 c104dc0:	e1a03103 	lsl	r3, r3, #2
 c104dc4:	e3a000f0 	mov	r0, #240	; 0xf0
 c104dc8:	e1a03350 	asr	r3, r0, r3
 c104dcc:	e20330ff 	and	r3, r3, #255	; 0xff
 c104dd0:	e1e03003 	mvn	r3, r3
 c104dd4:	e20330ff 	and	r3, r3, #255	; 0xff
 c104dd8:	e0023003 	and	r3, r2, r3
 c104ddc:	e20320ff 	and	r2, r3, #255	; 0xff
 c104de0:	e55b0019 	ldrb	r0, [fp, #-25]	; 0xffffffe7
 c104de4:	e15bc1b6 	ldrh	ip, [fp, #-22]	; 0xffffffea
 c104de8:	e55b300e 	ldrb	r3, [fp, #-14]
 c104dec:	e08c3003 	add	r3, ip, r3
 c104df0:	e2033001 	and	r3, r3, #1
 c104df4:	e3530000 	cmp	r3, #0
 c104df8:	1a000001 	bne	c104e04 <lcd_putchar_x2+0x164>
 c104dfc:	e3a03004 	mov	r3, #4
 c104e00:	ea000000 	b	c104e08 <lcd_putchar_x2+0x168>
 c104e04:	e3a03000 	mov	r3, #0
 c104e08:	e1a03310 	lsl	r3, r0, r3
 c104e0c:	e20330ff 	and	r3, r3, #255	; 0xff
 c104e10:	e1823003 	orr	r3, r2, r3
 c104e14:	e20330ff 	and	r3, r3, #255	; 0xff
 c104e18:	e20320ff 	and	r2, r3, #255	; 0xff
 c104e1c:	e59f3104 	ldr	r3, [pc, #260]	; c104f28 <lcd_putchar_x2+0x288>
 c104e20:	e7c32001 	strb	r2, [r3, r1]
 c104e24:	ea00002f 	b	c104ee8 <lcd_putchar_x2+0x248>
 c104e28:	e15b21b6 	ldrh	r2, [fp, #-22]	; 0xffffffea
 c104e2c:	e55b300e 	ldrb	r3, [fp, #-14]
 c104e30:	e0823003 	add	r3, r2, r3
 c104e34:	e1a02fa3 	lsr	r2, r3, #31
 c104e38:	e0823003 	add	r3, r2, r3
 c104e3c:	e1a030c3 	asr	r3, r3, #1
 c104e40:	e1a01003 	mov	r1, r3
 c104e44:	e15b21b8 	ldrh	r2, [fp, #-24]	; 0xffffffe8
 c104e48:	e55b300d 	ldrb	r3, [fp, #-13]
 c104e4c:	e0822003 	add	r2, r2, r3
 c104e50:	e1a03002 	mov	r3, r2
 c104e54:	e1a03103 	lsl	r3, r3, #2
 c104e58:	e0833002 	add	r3, r3, r2
 c104e5c:	e1a03283 	lsl	r3, r3, #5
 c104e60:	e0811003 	add	r1, r1, r3
 c104e64:	e15b21b6 	ldrh	r2, [fp, #-22]	; 0xffffffea
 c104e68:	e55b300e 	ldrb	r3, [fp, #-14]
 c104e6c:	e0823003 	add	r3, r2, r3
 c104e70:	e1a02fa3 	lsr	r2, r3, #31
 c104e74:	e0823003 	add	r3, r2, r3
 c104e78:	e1a030c3 	asr	r3, r3, #1
 c104e7c:	e1a00003 	mov	r0, r3
 c104e80:	e15b21b8 	ldrh	r2, [fp, #-24]	; 0xffffffe8
 c104e84:	e55b300d 	ldrb	r3, [fp, #-13]
 c104e88:	e0822003 	add	r2, r2, r3
 c104e8c:	e1a03002 	mov	r3, r2
 c104e90:	e1a03103 	lsl	r3, r3, #2
 c104e94:	e0833002 	add	r3, r3, r2
 c104e98:	e1a03283 	lsl	r3, r3, #5
 c104e9c:	e0803003 	add	r3, r0, r3
 c104ea0:	e59f2080 	ldr	r2, [pc, #128]	; c104f28 <lcd_putchar_x2+0x288>
 c104ea4:	e7d23003 	ldrb	r3, [r2, r3]
 c104ea8:	e20320ff 	and	r2, r3, #255	; 0xff
 c104eac:	e15b01b6 	ldrh	r0, [fp, #-22]	; 0xffffffea
 c104eb0:	e55b300e 	ldrb	r3, [fp, #-14]
 c104eb4:	e0803003 	add	r3, r0, r3
 c104eb8:	e2033001 	and	r3, r3, #1
 c104ebc:	e1a03103 	lsl	r3, r3, #2
 c104ec0:	e3a000f0 	mov	r0, #240	; 0xf0
 c104ec4:	e1a03350 	asr	r3, r0, r3
 c104ec8:	e20330ff 	and	r3, r3, #255	; 0xff
 c104ecc:	e1e03003 	mvn	r3, r3
 c104ed0:	e20330ff 	and	r3, r3, #255	; 0xff
 c104ed4:	e0023003 	and	r3, r2, r3
 c104ed8:	e20330ff 	and	r3, r3, #255	; 0xff
 c104edc:	e20320ff 	and	r2, r3, #255	; 0xff
 c104ee0:	e59f3040 	ldr	r3, [pc, #64]	; c104f28 <lcd_putchar_x2+0x288>
 c104ee4:	e7c32001 	strb	r2, [r3, r1]
 c104ee8:	e55b300e 	ldrb	r3, [fp, #-14]
 c104eec:	e2833001 	add	r3, r3, #1
 c104ef0:	e54b300e 	strb	r3, [fp, #-14]
 c104ef4:	e55b300e 	ldrb	r3, [fp, #-14]
 c104ef8:	e353000f 	cmp	r3, #15
 c104efc:	9affff7b 	bls	c104cf0 <lcd_putchar_x2+0x50>
 c104f00:	e55b300d 	ldrb	r3, [fp, #-13]
 c104f04:	e2833001 	add	r3, r3, #1
 c104f08:	e54b300d 	strb	r3, [fp, #-13]
 c104f0c:	e55b300d 	ldrb	r3, [fp, #-13]
 c104f10:	e353001f 	cmp	r3, #31
 c104f14:	9affff72 	bls	c104ce4 <lcd_putchar_x2+0x44>
 c104f18:	e24bd00c 	sub	sp, fp, #12
 c104f1c:	e89d6800 	ldm	sp, {fp, sp, lr}
 c104f20:	e12fff1e 	bx	lr
 c104f24:	0c10b0b0 	.word	0x0c10b0b0
 c104f28:	0c10c0cc 	.word	0x0c10c0cc

0c104f2c <lcd_puts_x2>:
 c104f2c:	e1a0c00d 	mov	ip, sp
 c104f30:	e92dd800 	push	{fp, ip, lr, pc}
 c104f34:	e24cb004 	sub	fp, ip, #4
 c104f38:	e24dd010 	sub	sp, sp, #16
 c104f3c:	e50b3018 	str	r3, [fp, #-24]	; 0xffffffe8
 c104f40:	e14b00be 	strh	r0, [fp, #-14]
 c104f44:	e14b11b0 	strh	r1, [fp, #-16]
 c104f48:	e1a03002 	mov	r3, r2
 c104f4c:	e54b3011 	strb	r3, [fp, #-17]	; 0xffffffef
 c104f50:	ea00000b 	b	c104f84 <lcd_puts_x2+0x58>
 c104f54:	e51b3018 	ldr	r3, [fp, #-24]	; 0xffffffe8
 c104f58:	e5d33000 	ldrb	r3, [r3]
 c104f5c:	e15b00be 	ldrh	r0, [fp, #-14]
 c104f60:	e15b11b0 	ldrh	r1, [fp, #-16]
 c104f64:	e55b2011 	ldrb	r2, [fp, #-17]	; 0xffffffef
 c104f68:	ebffff4c 	bl	c104ca0 <lcd_putchar_x2>
 c104f6c:	e51b3018 	ldr	r3, [fp, #-24]	; 0xffffffe8
 c104f70:	e2833001 	add	r3, r3, #1
 c104f74:	e50b3018 	str	r3, [fp, #-24]	; 0xffffffe8
 c104f78:	e15b30be 	ldrh	r3, [fp, #-14]
 c104f7c:	e2833010 	add	r3, r3, #16
 c104f80:	e14b30be 	strh	r3, [fp, #-14]
 c104f84:	e51b3018 	ldr	r3, [fp, #-24]	; 0xffffffe8
 c104f88:	e5d33000 	ldrb	r3, [r3]
 c104f8c:	e3530000 	cmp	r3, #0
 c104f90:	1affffef 	bne	c104f54 <lcd_puts_x2+0x28>
 c104f94:	e24bd00c 	sub	sp, fp, #12
 c104f98:	e89d6800 	ldm	sp, {fp, sp, lr}
 c104f9c:	e12fff1e 	bx	lr

0c104fa0 <lcd_putint_x2>:
 c104fa0:	e1a0c00d 	mov	ip, sp
 c104fa4:	e92dd800 	push	{fp, ip, lr, pc}
 c104fa8:	e24cb004 	sub	fp, ip, #4
 c104fac:	e24dd018 	sub	sp, sp, #24
 c104fb0:	e50b3020 	str	r3, [fp, #-32]	; 0xffffffe0
 c104fb4:	e14b01b6 	strh	r0, [fp, #-22]	; 0xffffffea
 c104fb8:	e14b11b8 	strh	r1, [fp, #-24]	; 0xffffffe8
 c104fbc:	e1a03002 	mov	r3, r2
 c104fc0:	e54b3019 	strb	r3, [fp, #-25]	; 0xffffffe7
 c104fc4:	e59f3148 	ldr	r3, [pc, #328]	; c105114 <lcd_putint_x2+0x174>
 c104fc8:	e50b3010 	str	r3, [fp, #-16]
 c104fcc:	e51b3010 	ldr	r3, [fp, #-16]
 c104fd0:	e3a02000 	mov	r2, #0
 c104fd4:	e5c32000 	strb	r2, [r3]
 c104fd8:	e51b3020 	ldr	r3, [fp, #-32]	; 0xffffffe0
 c104fdc:	e3530000 	cmp	r3, #0
 c104fe0:	ba00001d 	blt	c10505c <lcd_putint_x2+0xbc>
 c104fe4:	e51b3010 	ldr	r3, [fp, #-16]
 c104fe8:	e2433001 	sub	r3, r3, #1
 c104fec:	e50b3010 	str	r3, [fp, #-16]
 c104ff0:	e51b1020 	ldr	r1, [fp, #-32]	; 0xffffffe0
 c104ff4:	e59f311c 	ldr	r3, [pc, #284]	; c105118 <lcd_putint_x2+0x178>
 c104ff8:	e0c32391 	smull	r2, r3, r1, r3
 c104ffc:	e1a02143 	asr	r2, r3, #2
 c105000:	e1a03fc1 	asr	r3, r1, #31
 c105004:	e0632002 	rsb	r2, r3, r2
 c105008:	e1a03002 	mov	r3, r2
 c10500c:	e1a03103 	lsl	r3, r3, #2
 c105010:	e0833002 	add	r3, r3, r2
 c105014:	e1a03083 	lsl	r3, r3, #1
 c105018:	e0632001 	rsb	r2, r3, r1
 c10501c:	e20230ff 	and	r3, r2, #255	; 0xff
 c105020:	e2833030 	add	r3, r3, #48	; 0x30
 c105024:	e20320ff 	and	r2, r3, #255	; 0xff
 c105028:	e51b3010 	ldr	r3, [fp, #-16]
 c10502c:	e5c32000 	strb	r2, [r3]
 c105030:	e51b3020 	ldr	r3, [fp, #-32]	; 0xffffffe0
 c105034:	e59f20dc 	ldr	r2, [pc, #220]	; c105118 <lcd_putint_x2+0x178>
 c105038:	e0c21293 	smull	r1, r2, r3, r2
 c10503c:	e1a02142 	asr	r2, r2, #2
 c105040:	e1a03fc3 	asr	r3, r3, #31
 c105044:	e0633002 	rsb	r3, r3, r2
 c105048:	e50b3020 	str	r3, [fp, #-32]	; 0xffffffe0
 c10504c:	e51b3020 	ldr	r3, [fp, #-32]	; 0xffffffe0
 c105050:	e3530000 	cmp	r3, #0
 c105054:	1affffe2 	bne	c104fe4 <lcd_putint_x2+0x44>
 c105058:	ea000022 	b	c1050e8 <lcd_putint_x2+0x148>
 c10505c:	e51b3010 	ldr	r3, [fp, #-16]
 c105060:	e2433001 	sub	r3, r3, #1
 c105064:	e50b3010 	str	r3, [fp, #-16]
 c105068:	e51b1020 	ldr	r1, [fp, #-32]	; 0xffffffe0
 c10506c:	e59f30a4 	ldr	r3, [pc, #164]	; c105118 <lcd_putint_x2+0x178>
 c105070:	e0c32391 	smull	r2, r3, r1, r3
 c105074:	e1a02143 	asr	r2, r3, #2
 c105078:	e1a03fc1 	asr	r3, r1, #31
 c10507c:	e0632002 	rsb	r2, r3, r2
 c105080:	e1a03002 	mov	r3, r2
 c105084:	e1a03103 	lsl	r3, r3, #2
 c105088:	e0833002 	add	r3, r3, r2
 c10508c:	e1a03083 	lsl	r3, r3, #1
 c105090:	e0632001 	rsb	r2, r3, r1
 c105094:	e20230ff 	and	r3, r2, #255	; 0xff
 c105098:	e2633030 	rsb	r3, r3, #48	; 0x30
 c10509c:	e20320ff 	and	r2, r3, #255	; 0xff
 c1050a0:	e51b3010 	ldr	r3, [fp, #-16]
 c1050a4:	e5c32000 	strb	r2, [r3]
 c1050a8:	e51b3020 	ldr	r3, [fp, #-32]	; 0xffffffe0
 c1050ac:	e59f2064 	ldr	r2, [pc, #100]	; c105118 <lcd_putint_x2+0x178>
 c1050b0:	e0c21293 	smull	r1, r2, r3, r2
 c1050b4:	e1a02142 	asr	r2, r2, #2
 c1050b8:	e1a03fc3 	asr	r3, r3, #31
 c1050bc:	e0633002 	rsb	r3, r3, r2
 c1050c0:	e50b3020 	str	r3, [fp, #-32]	; 0xffffffe0
 c1050c4:	e51b3020 	ldr	r3, [fp, #-32]	; 0xffffffe0
 c1050c8:	e3530000 	cmp	r3, #0
 c1050cc:	1affffe2 	bne	c10505c <lcd_putint_x2+0xbc>
 c1050d0:	e51b3010 	ldr	r3, [fp, #-16]
 c1050d4:	e2433001 	sub	r3, r3, #1
 c1050d8:	e50b3010 	str	r3, [fp, #-16]
 c1050dc:	e51b3010 	ldr	r3, [fp, #-16]
 c1050e0:	e3a0202d 	mov	r2, #45	; 0x2d
 c1050e4:	e5c32000 	strb	r2, [r3]
 c1050e8:	e15b11b6 	ldrh	r1, [fp, #-22]	; 0xffffffea
 c1050ec:	e15b21b8 	ldrh	r2, [fp, #-24]	; 0xffffffe8
 c1050f0:	e55b3019 	ldrb	r3, [fp, #-25]	; 0xffffffe7
 c1050f4:	e1a00001 	mov	r0, r1
 c1050f8:	e1a01002 	mov	r1, r2
 c1050fc:	e1a02003 	mov	r2, r3
 c105100:	e51b3010 	ldr	r3, [fp, #-16]
 c105104:	ebffff88 	bl	c104f2c <lcd_puts_x2>
 c105108:	e24bd00c 	sub	sp, fp, #12
 c10510c:	e89d6800 	ldm	sp, {fp, sp, lr}
 c105110:	e12fff1e 	bx	lr
 c105114:	0c1157d7 	.word	0x0c1157d7
 c105118:	66666667 	.word	0x66666667

0c10511c <lcd_puthex_x2>:
 c10511c:	e1a0c00d 	mov	ip, sp
 c105120:	e92dd800 	push	{fp, ip, lr, pc}
 c105124:	e24cb004 	sub	fp, ip, #4
 c105128:	e24dd018 	sub	sp, sp, #24
 c10512c:	e50b3020 	str	r3, [fp, #-32]	; 0xffffffe0
 c105130:	e14b01b6 	strh	r0, [fp, #-22]	; 0xffffffea
 c105134:	e14b11b8 	strh	r1, [fp, #-24]	; 0xffffffe8
 c105138:	e1a03002 	mov	r3, r2
 c10513c:	e54b3019 	strb	r3, [fp, #-25]	; 0xffffffe7
 c105140:	e59f30b0 	ldr	r3, [pc, #176]	; c1051f8 <lcd_puthex_x2+0xdc>
 c105144:	e50b3010 	str	r3, [fp, #-16]
 c105148:	e51b3010 	ldr	r3, [fp, #-16]
 c10514c:	e3a02000 	mov	r2, #0
 c105150:	e5c32000 	strb	r2, [r3]
 c105154:	e51b3020 	ldr	r3, [fp, #-32]	; 0xffffffe0
 c105158:	e20330ff 	and	r3, r3, #255	; 0xff
 c10515c:	e203300f 	and	r3, r3, #15
 c105160:	e54b3011 	strb	r3, [fp, #-17]	; 0xffffffef
 c105164:	e55b3011 	ldrb	r3, [fp, #-17]	; 0xffffffef
 c105168:	e3530009 	cmp	r3, #9
 c10516c:	8a000008 	bhi	c105194 <lcd_puthex_x2+0x78>
 c105170:	e51b3010 	ldr	r3, [fp, #-16]
 c105174:	e2433001 	sub	r3, r3, #1
 c105178:	e50b3010 	str	r3, [fp, #-16]
 c10517c:	e55b3011 	ldrb	r3, [fp, #-17]	; 0xffffffef
 c105180:	e2833030 	add	r3, r3, #48	; 0x30
 c105184:	e20320ff 	and	r2, r3, #255	; 0xff
 c105188:	e51b3010 	ldr	r3, [fp, #-16]
 c10518c:	e5c32000 	strb	r2, [r3]
 c105190:	ea000007 	b	c1051b4 <lcd_puthex_x2+0x98>
 c105194:	e51b3010 	ldr	r3, [fp, #-16]
 c105198:	e2433001 	sub	r3, r3, #1
 c10519c:	e50b3010 	str	r3, [fp, #-16]
 c1051a0:	e55b3011 	ldrb	r3, [fp, #-17]	; 0xffffffef
 c1051a4:	e2833057 	add	r3, r3, #87	; 0x57
 c1051a8:	e20320ff 	and	r2, r3, #255	; 0xff
 c1051ac:	e51b3010 	ldr	r3, [fp, #-16]
 c1051b0:	e5c32000 	strb	r2, [r3]
 c1051b4:	e51b3020 	ldr	r3, [fp, #-32]	; 0xffffffe0
 c1051b8:	e1a03223 	lsr	r3, r3, #4
 c1051bc:	e50b3020 	str	r3, [fp, #-32]	; 0xffffffe0
 c1051c0:	e51b3020 	ldr	r3, [fp, #-32]	; 0xffffffe0
 c1051c4:	e3530000 	cmp	r3, #0
 c1051c8:	1affffe1 	bne	c105154 <lcd_puthex_x2+0x38>
 c1051cc:	e15b11b6 	ldrh	r1, [fp, #-22]	; 0xffffffea
 c1051d0:	e15b21b8 	ldrh	r2, [fp, #-24]	; 0xffffffe8
 c1051d4:	e55b3019 	ldrb	r3, [fp, #-25]	; 0xffffffe7
 c1051d8:	e1a00001 	mov	r0, r1
 c1051dc:	e1a01002 	mov	r1, r2
 c1051e0:	e1a02003 	mov	r2, r3
 c1051e4:	e51b3010 	ldr	r3, [fp, #-16]
 c1051e8:	ebffff4f 	bl	c104f2c <lcd_puts_x2>
 c1051ec:	e24bd00c 	sub	sp, fp, #12
 c1051f0:	e89d6800 	ldm	sp, {fp, sp, lr}
 c1051f4:	e12fff1e 	bx	lr
 c1051f8:	0c1157c8 	.word	0x0c1157c8

0c1051fc <lcd_putWallpaper>:
 c1051fc:	e1a0c00d 	mov	ip, sp
 c105200:	e92dd800 	push	{fp, ip, lr, pc}
 c105204:	e24cb004 	sub	fp, ip, #4
 c105208:	e24dd018 	sub	sp, sp, #24
 c10520c:	e50b0020 	str	r0, [fp, #-32]	; 0xffffffe0
 c105210:	e51b3020 	ldr	r3, [fp, #-32]	; 0xffffffe0
 c105214:	e283300a 	add	r3, r3, #10
 c105218:	e5d33000 	ldrb	r3, [r3]
 c10521c:	e1a02003 	mov	r2, r3
 c105220:	e51b3020 	ldr	r3, [fp, #-32]	; 0xffffffe0
 c105224:	e283300b 	add	r3, r3, #11
 c105228:	e5d33000 	ldrb	r3, [r3]
 c10522c:	e1a03403 	lsl	r3, r3, #8
 c105230:	e0822003 	add	r2, r2, r3
 c105234:	e51b3020 	ldr	r3, [fp, #-32]	; 0xffffffe0
 c105238:	e283300c 	add	r3, r3, #12
 c10523c:	e5d33000 	ldrb	r3, [r3]
 c105240:	e1a03803 	lsl	r3, r3, #16
 c105244:	e0822003 	add	r2, r2, r3
 c105248:	e51b3020 	ldr	r3, [fp, #-32]	; 0xffffffe0
 c10524c:	e283300d 	add	r3, r3, #13
 c105250:	e5d33000 	ldrb	r3, [r3]
 c105254:	e1a03c03 	lsl	r3, r3, #24
 c105258:	e0823003 	add	r3, r2, r3
 c10525c:	e50b3018 	str	r3, [fp, #-24]	; 0xffffffe8
 c105260:	e51b2020 	ldr	r2, [fp, #-32]	; 0xffffffe0
 c105264:	e51b3018 	ldr	r3, [fp, #-24]	; 0xffffffe8
 c105268:	e0823003 	add	r3, r2, r3
 c10526c:	e50b3020 	str	r3, [fp, #-32]	; 0xffffffe0
 c105270:	e3a03000 	mov	r3, #0
 c105274:	e14b31b0 	strh	r3, [fp, #-16]
 c105278:	e3a030ef 	mov	r3, #239	; 0xef
 c10527c:	e14b31b2 	strh	r3, [fp, #-18]	; 0xffffffee
 c105280:	ea00002d 	b	c10533c <lcd_putWallpaper+0x140>
 c105284:	e15b21b2 	ldrh	r2, [fp, #-18]	; 0xffffffee
 c105288:	e1a03002 	mov	r3, r2
 c10528c:	e1a03103 	lsl	r3, r3, #2
 c105290:	e0833002 	add	r3, r3, r2
 c105294:	e1a03303 	lsl	r3, r3, #6
 c105298:	e1a02fa3 	lsr	r2, r3, #31
 c10529c:	e0823003 	add	r3, r2, r3
 c1052a0:	e1a030c3 	asr	r3, r3, #1
 c1052a4:	e14b31ba 	strh	r3, [fp, #-26]	; 0xffffffe6
 c1052a8:	e15b21b0 	ldrh	r2, [fp, #-16]
 c1052ac:	e1a03002 	mov	r3, r2
 c1052b0:	e1a03103 	lsl	r3, r3, #2
 c1052b4:	e0833002 	add	r3, r3, r2
 c1052b8:	e1a03303 	lsl	r3, r3, #6
 c1052bc:	e1a02fa3 	lsr	r2, r3, #31
 c1052c0:	e0823003 	add	r3, r2, r3
 c1052c4:	e1a030c3 	asr	r3, r3, #1
 c1052c8:	e14b31bc 	strh	r3, [fp, #-28]	; 0xffffffe4
 c1052cc:	e3a03000 	mov	r3, #0
 c1052d0:	e14b30be 	strh	r3, [fp, #-14]
 c1052d4:	ea00000f 	b	c105318 <lcd_putWallpaper+0x11c>
 c1052d8:	e15b21ba 	ldrh	r2, [fp, #-26]	; 0xffffffe6
 c1052dc:	e15b30be 	ldrh	r3, [fp, #-14]
 c1052e0:	e0823003 	add	r3, r2, r3
 c1052e4:	e15b11bc 	ldrh	r1, [fp, #-28]	; 0xffffffe4
 c1052e8:	e15b20be 	ldrh	r2, [fp, #-14]
 c1052ec:	e0812002 	add	r2, r1, r2
 c1052f0:	e51b1020 	ldr	r1, [fp, #-32]	; 0xffffffe0
 c1052f4:	e0812002 	add	r2, r1, r2
 c1052f8:	e5d22000 	ldrb	r2, [r2]
 c1052fc:	e1e02002 	mvn	r2, r2
 c105300:	e20210ff 	and	r1, r2, #255	; 0xff
 c105304:	e59f2048 	ldr	r2, [pc, #72]	; c105354 <lcd_putWallpaper+0x158>
 c105308:	e7c21003 	strb	r1, [r2, r3]
 c10530c:	e15b30be 	ldrh	r3, [fp, #-14]
 c105310:	e2833001 	add	r3, r3, #1
 c105314:	e14b30be 	strh	r3, [fp, #-14]
 c105318:	e15b30be 	ldrh	r3, [fp, #-14]
 c10531c:	e353009f 	cmp	r3, #159	; 0x9f
 c105320:	9affffec 	bls	c1052d8 <lcd_putWallpaper+0xdc>
 c105324:	e15b31b0 	ldrh	r3, [fp, #-16]
 c105328:	e2833001 	add	r3, r3, #1
 c10532c:	e14b31b0 	strh	r3, [fp, #-16]
 c105330:	e15b31b2 	ldrh	r3, [fp, #-18]	; 0xffffffee
 c105334:	e2433001 	sub	r3, r3, #1
 c105338:	e14b31b2 	strh	r3, [fp, #-18]	; 0xffffffee
 c10533c:	e15b31b0 	ldrh	r3, [fp, #-16]
 c105340:	e35300ef 	cmp	r3, #239	; 0xef
 c105344:	9affffce 	bls	c105284 <lcd_putWallpaper+0x88>
 c105348:	e24bd00c 	sub	sp, fp, #12
 c10534c:	e89d6800 	ldm	sp, {fp, sp, lr}
 c105350:	e12fff1e 	bx	lr
 c105354:	0c10c0cc 	.word	0x0c10c0cc

0c105358 <leds_init>:
 c105358:	e1a0c00d 	mov	ip, sp
 c10535c:	e92dd800 	push	{fp, ip, lr, pc}
 c105360:	e24cb004 	sub	fp, ip, #4
 c105364:	e3a0000a 	mov	r0, #10
 c105368:	eb000054 	bl	c1054c0 <power_on>
 c10536c:	e59f3028 	ldr	r3, [pc, #40]	; c10539c <leds_init+0x44>
 c105370:	e59f2024 	ldr	r2, [pc, #36]	; c10539c <leds_init+0x44>
 c105374:	e5922000 	ldr	r2, [r2]
 c105378:	e3c22c06 	bic	r2, r2, #1536	; 0x600
 c10537c:	e5832000 	str	r2, [r3]
 c105380:	e3a00002 	mov	r0, #2
 c105384:	eb000017 	bl	c1053e8 <led_off>
 c105388:	e3a00001 	mov	r0, #1
 c10538c:	eb000015 	bl	c1053e8 <led_off>
 c105390:	e24bd00c 	sub	sp, fp, #12
 c105394:	e89d6800 	ldm	sp, {fp, sp, lr}
 c105398:	e12fff1e 	bx	lr
 c10539c:	01d20008 	.word	0x01d20008

0c1053a0 <led_on>:
 c1053a0:	e1a0c00d 	mov	ip, sp
 c1053a4:	e92dd800 	push	{fp, ip, lr, pc}
 c1053a8:	e24cb004 	sub	fp, ip, #4
 c1053ac:	e24dd008 	sub	sp, sp, #8
 c1053b0:	e1a03000 	mov	r3, r0
 c1053b4:	e54b300d 	strb	r3, [fp, #-13]
 c1053b8:	e59f3024 	ldr	r3, [pc, #36]	; c1053e4 <led_on+0x44>
 c1053bc:	e59f2020 	ldr	r2, [pc, #32]	; c1053e4 <led_on+0x44>
 c1053c0:	e5921000 	ldr	r1, [r2]
 c1053c4:	e55b200d 	ldrb	r2, [fp, #-13]
 c1053c8:	e1a02482 	lsl	r2, r2, #9
 c1053cc:	e1e02002 	mvn	r2, r2
 c1053d0:	e0012002 	and	r2, r1, r2
 c1053d4:	e5832000 	str	r2, [r3]
 c1053d8:	e24bd00c 	sub	sp, fp, #12
 c1053dc:	e89d6800 	ldm	sp, {fp, sp, lr}
 c1053e0:	e12fff1e 	bx	lr
 c1053e4:	01d2000c 	.word	0x01d2000c

0c1053e8 <led_off>:
 c1053e8:	e1a0c00d 	mov	ip, sp
 c1053ec:	e92dd800 	push	{fp, ip, lr, pc}
 c1053f0:	e24cb004 	sub	fp, ip, #4
 c1053f4:	e24dd008 	sub	sp, sp, #8
 c1053f8:	e1a03000 	mov	r3, r0
 c1053fc:	e54b300d 	strb	r3, [fp, #-13]
 c105400:	e59f3020 	ldr	r3, [pc, #32]	; c105428 <led_off+0x40>
 c105404:	e59f201c 	ldr	r2, [pc, #28]	; c105428 <led_off+0x40>
 c105408:	e5921000 	ldr	r1, [r2]
 c10540c:	e55b200d 	ldrb	r2, [fp, #-13]
 c105410:	e1a02482 	lsl	r2, r2, #9
 c105414:	e1812002 	orr	r2, r1, r2
 c105418:	e5832000 	str	r2, [r3]
 c10541c:	e24bd00c 	sub	sp, fp, #12
 c105420:	e89d6800 	ldm	sp, {fp, sp, lr}
 c105424:	e12fff1e 	bx	lr
 c105428:	01d2000c 	.word	0x01d2000c

0c10542c <led_toggle>:
 c10542c:	e1a0c00d 	mov	ip, sp
 c105430:	e92dd800 	push	{fp, ip, lr, pc}
 c105434:	e24cb004 	sub	fp, ip, #4
 c105438:	e24dd008 	sub	sp, sp, #8
 c10543c:	e1a03000 	mov	r3, r0
 c105440:	e54b300d 	strb	r3, [fp, #-13]
 c105444:	e59f3020 	ldr	r3, [pc, #32]	; c10546c <led_toggle+0x40>
 c105448:	e59f201c 	ldr	r2, [pc, #28]	; c10546c <led_toggle+0x40>
 c10544c:	e5921000 	ldr	r1, [r2]
 c105450:	e55b200d 	ldrb	r2, [fp, #-13]
 c105454:	e1a02482 	lsl	r2, r2, #9
 c105458:	e0212002 	eor	r2, r1, r2
 c10545c:	e5832000 	str	r2, [r3]
 c105460:	e24bd00c 	sub	sp, fp, #12
 c105464:	e89d6800 	ldm	sp, {fp, sp, lr}
 c105468:	e12fff1e 	bx	lr
 c10546c:	01d2000c 	.word	0x01d2000c

0c105470 <led_status>:
 c105470:	e1a0c00d 	mov	ip, sp
 c105474:	e92dd800 	push	{fp, ip, lr, pc}
 c105478:	e24cb004 	sub	fp, ip, #4
 c10547c:	e24dd008 	sub	sp, sp, #8
 c105480:	e1a03000 	mov	r3, r0
 c105484:	e54b300d 	strb	r3, [fp, #-13]
 c105488:	e59f302c 	ldr	r3, [pc, #44]	; c1054bc <led_status+0x4c>
 c10548c:	e5932000 	ldr	r2, [r3]
 c105490:	e55b300d 	ldrb	r3, [fp, #-13]
 c105494:	e1a03483 	lsl	r3, r3, #9
 c105498:	e0023003 	and	r3, r2, r3
 c10549c:	e3530000 	cmp	r3, #0
 c1054a0:	13a03000 	movne	r3, #0
 c1054a4:	03a03001 	moveq	r3, #1
 c1054a8:	e20330ff 	and	r3, r3, #255	; 0xff
 c1054ac:	e1a00003 	mov	r0, r3
 c1054b0:	e24bd00c 	sub	sp, fp, #12
 c1054b4:	e89d6800 	ldm	sp, {fp, sp, lr}
 c1054b8:	e12fff1e 	bx	lr
 c1054bc:	01d2000c 	.word	0x01d2000c

0c1054c0 <power_on>:
 c1054c0:	e1a0c00d 	mov	ip, sp
 c1054c4:	e92dd800 	push	{fp, ip, lr, pc}
 c1054c8:	e24cb004 	sub	fp, ip, #4
 c1054cc:	e24dd008 	sub	sp, sp, #8
 c1054d0:	e1a03000 	mov	r3, r0
 c1054d4:	e54b300d 	strb	r3, [fp, #-13]
 c1054d8:	e55b300d 	ldrb	r3, [fp, #-13]
 c1054dc:	e353000e 	cmp	r3, #14
 c1054e0:	8a000029 	bhi	c10558c <power_on+0xcc>
 c1054e4:	e59f20ac 	ldr	r2, [pc, #172]	; c105598 <power_on+0xd8>
 c1054e8:	e1a02312 	lsl	r2, r2, r3
 c1054ec:	e3520000 	cmp	r2, #0
 c1054f0:	ba000008 	blt	c105518 <power_on+0x58>
 c1054f4:	e3a02409 	mov	r2, #150994944	; 0x9000000
 c1054f8:	e1a02312 	lsl	r2, r2, r3
 c1054fc:	e3520000 	cmp	r2, #0
 c105500:	ba000018 	blt	c105568 <power_on+0xa8>
 c105504:	e3a02603 	mov	r2, #3145728	; 0x300000
 c105508:	e1a03312 	lsl	r3, r2, r3
 c10550c:	e3530000 	cmp	r3, #0
 c105510:	aa00001d 	bge	c10558c <power_on+0xcc>
 c105514:	ea000009 	b	c105540 <power_on+0x80>
 c105518:	e59f307c 	ldr	r3, [pc, #124]	; c10559c <power_on+0xdc>
 c10551c:	e59f2078 	ldr	r2, [pc, #120]	; c10559c <power_on+0xdc>
 c105520:	e5921000 	ldr	r1, [r2]
 c105524:	e55b200d 	ldrb	r2, [fp, #-13]
 c105528:	e3a00001 	mov	r0, #1
 c10552c:	e1a02210 	lsl	r2, r0, r2
 c105530:	e1812002 	orr	r2, r1, r2
 c105534:	e3822d12 	orr	r2, r2, #1152	; 0x480
 c105538:	e5832000 	str	r2, [r3]
 c10553c:	ea000012 	b	c10558c <power_on+0xcc>
 c105540:	e59f3054 	ldr	r3, [pc, #84]	; c10559c <power_on+0xdc>
 c105544:	e59f2050 	ldr	r2, [pc, #80]	; c10559c <power_on+0xdc>
 c105548:	e5921000 	ldr	r1, [r2]
 c10554c:	e55b200d 	ldrb	r2, [fp, #-13]
 c105550:	e3a00001 	mov	r0, #1
 c105554:	e1a02210 	lsl	r2, r0, r2
 c105558:	e1812002 	orr	r2, r1, r2
 c10555c:	e3822080 	orr	r2, r2, #128	; 0x80
 c105560:	e5832000 	str	r2, [r3]
 c105564:	ea000008 	b	c10558c <power_on+0xcc>
 c105568:	e59f302c 	ldr	r3, [pc, #44]	; c10559c <power_on+0xdc>
 c10556c:	e59f2028 	ldr	r2, [pc, #40]	; c10559c <power_on+0xdc>
 c105570:	e5921000 	ldr	r1, [r2]
 c105574:	e55b200d 	ldrb	r2, [fp, #-13]
 c105578:	e3a00001 	mov	r0, #1
 c10557c:	e1a02210 	lsl	r2, r0, r2
 c105580:	e1812002 	orr	r2, r1, r2
 c105584:	e5832000 	str	r2, [r3]
 c105588:	e1a00000 	nop			; (mov r0, r0)
 c10558c:	e24bd00c 	sub	sp, fp, #12
 c105590:	e89d6800 	ldm	sp, {fp, sp, lr}
 c105594:	e12fff1e 	bx	lr
 c105598:	16ce0000 	.word	0x16ce0000
 c10559c:	01d80004 	.word	0x01d80004

0c1055a0 <power_off>:
 c1055a0:	e1a0c00d 	mov	ip, sp
 c1055a4:	e92dd800 	push	{fp, ip, lr, pc}
 c1055a8:	e24cb004 	sub	fp, ip, #4
 c1055ac:	e24dd008 	sub	sp, sp, #8
 c1055b0:	e1a03000 	mov	r3, r0
 c1055b4:	e54b300d 	strb	r3, [fp, #-13]
 c1055b8:	e55b300d 	ldrb	r3, [fp, #-13]
 c1055bc:	e353000e 	cmp	r3, #14
 c1055c0:	8a000029 	bhi	c10566c <power_off+0xcc>
 c1055c4:	e59f20ac 	ldr	r2, [pc, #172]	; c105678 <power_off+0xd8>
 c1055c8:	e1a02312 	lsl	r2, r2, r3
 c1055cc:	e3520000 	cmp	r2, #0
 c1055d0:	ba000004 	blt	c1055e8 <power_off+0x48>
 c1055d4:	e3a02409 	mov	r2, #150994944	; 0x9000000
 c1055d8:	e1a03312 	lsl	r3, r2, r3
 c1055dc:	e3530000 	cmp	r3, #0
 c1055e0:	aa000021 	bge	c10566c <power_off+0xcc>
 c1055e4:	ea000014 	b	c10563c <power_off+0x9c>
 c1055e8:	e59f308c 	ldr	r3, [pc, #140]	; c10567c <power_off+0xdc>
 c1055ec:	e59f2088 	ldr	r2, [pc, #136]	; c10567c <power_off+0xdc>
 c1055f0:	e5921000 	ldr	r1, [r2]
 c1055f4:	e55b200d 	ldrb	r2, [fp, #-13]
 c1055f8:	e3a00001 	mov	r0, #1
 c1055fc:	e1a02210 	lsl	r2, r0, r2
 c105600:	e1e02002 	mvn	r2, r2
 c105604:	e0012002 	and	r2, r1, r2
 c105608:	e5832000 	str	r2, [r3]
 c10560c:	e59f3068 	ldr	r3, [pc, #104]	; c10567c <power_off+0xdc>
 c105610:	e5932000 	ldr	r2, [r3]
 c105614:	e59f3064 	ldr	r3, [pc, #100]	; c105680 <power_off+0xe0>
 c105618:	e0023003 	and	r3, r2, r3
 c10561c:	e3530000 	cmp	r3, #0
 c105620:	1a000010 	bne	c105668 <power_off+0xc8>
 c105624:	e59f3050 	ldr	r3, [pc, #80]	; c10567c <power_off+0xdc>
 c105628:	e59f204c 	ldr	r2, [pc, #76]	; c10567c <power_off+0xdc>
 c10562c:	e5922000 	ldr	r2, [r2]
 c105630:	e3c22080 	bic	r2, r2, #128	; 0x80
 c105634:	e5832000 	str	r2, [r3]
 c105638:	ea00000b 	b	c10566c <power_off+0xcc>
 c10563c:	e59f3038 	ldr	r3, [pc, #56]	; c10567c <power_off+0xdc>
 c105640:	e59f2034 	ldr	r2, [pc, #52]	; c10567c <power_off+0xdc>
 c105644:	e5921000 	ldr	r1, [r2]
 c105648:	e55b200d 	ldrb	r2, [fp, #-13]
 c10564c:	e3a00001 	mov	r0, #1
 c105650:	e1a02210 	lsl	r2, r0, r2
 c105654:	e1e02002 	mvn	r2, r2
 c105658:	e0012002 	and	r2, r1, r2
 c10565c:	e5832000 	str	r2, [r3]
 c105660:	e1a00000 	nop			; (mov r0, r0)
 c105664:	ea000000 	b	c10566c <power_off+0xcc>
 c105668:	e1a00000 	nop			; (mov r0, r0)
 c10566c:	e24bd00c 	sub	sp, fp, #12
 c105670:	e89d6800 	ldm	sp, {fp, sp, lr}
 c105674:	e12fff1e 	bx	lr
 c105678:	16fe0000 	.word	0x16fe0000
 c10567c:	01d80004 	.word	0x01d80004
 c105680:	00007f68 	.word	0x00007f68

0c105684 <power_status>:
 c105684:	e1a0c00d 	mov	ip, sp
 c105688:	e92dd800 	push	{fp, ip, lr, pc}
 c10568c:	e24cb004 	sub	fp, ip, #4
 c105690:	e24dd008 	sub	sp, sp, #8
 c105694:	e1a03000 	mov	r3, r0
 c105698:	e54b300d 	strb	r3, [fp, #-13]
 c10569c:	e59f302c 	ldr	r3, [pc, #44]	; c1056d0 <power_status+0x4c>
 c1056a0:	e5932000 	ldr	r2, [r3]
 c1056a4:	e55b300d 	ldrb	r3, [fp, #-13]
 c1056a8:	e3a01001 	mov	r1, #1
 c1056ac:	e1a03311 	lsl	r3, r1, r3
 c1056b0:	e0022003 	and	r2, r2, r3
 c1056b4:	e55b300d 	ldrb	r3, [fp, #-13]
 c1056b8:	e1a03332 	lsr	r3, r2, r3
 c1056bc:	e20330ff 	and	r3, r3, #255	; 0xff
 c1056c0:	e1a00003 	mov	r0, r3
 c1056c4:	e24bd00c 	sub	sp, fp, #12
 c1056c8:	e89d6800 	ldm	sp, {fp, sp, lr}
 c1056cc:	e12fff1e 	bx	lr
 c1056d0:	01d80004 	.word	0x01d80004

0c1056d4 <rtc_init>:
 c1056d4:	e1a0c00d 	mov	ip, sp
 c1056d8:	e92dd800 	push	{fp, ip, lr, pc}
 c1056dc:	e24cb004 	sub	fp, ip, #4
 c1056e0:	e3a0000b 	mov	r0, #11
 c1056e4:	ebffff75 	bl	c1054c0 <power_on>
 c1056e8:	e59f30e4 	ldr	r3, [pc, #228]	; c1057d4 <rtc_init+0x100>
 c1056ec:	e3a02000 	mov	r2, #0
 c1056f0:	e5832000 	str	r2, [r3]
 c1056f4:	e59f30dc 	ldr	r3, [pc, #220]	; c1057d8 <rtc_init+0x104>
 c1056f8:	e3a02000 	mov	r2, #0
 c1056fc:	e5832000 	str	r2, [r3]
 c105700:	e59f30d4 	ldr	r3, [pc, #212]	; c1057dc <rtc_init+0x108>
 c105704:	e3a02000 	mov	r2, #0
 c105708:	e5832000 	str	r2, [r3]
 c10570c:	e59f30cc 	ldr	r3, [pc, #204]	; c1057e0 <rtc_init+0x10c>
 c105710:	e3a02001 	mov	r2, #1
 c105714:	e5832000 	str	r2, [r3]
 c105718:	e59f30c4 	ldr	r3, [pc, #196]	; c1057e4 <rtc_init+0x110>
 c10571c:	e3a02013 	mov	r2, #19
 c105720:	e5832000 	str	r2, [r3]
 c105724:	e59f30bc 	ldr	r3, [pc, #188]	; c1057e8 <rtc_init+0x114>
 c105728:	e3a02001 	mov	r2, #1
 c10572c:	e5832000 	str	r2, [r3]
 c105730:	e59f30b4 	ldr	r3, [pc, #180]	; c1057ec <rtc_init+0x118>
 c105734:	e3a02001 	mov	r2, #1
 c105738:	e5832000 	str	r2, [r3]
 c10573c:	e59f30ac 	ldr	r3, [pc, #172]	; c1057f0 <rtc_init+0x11c>
 c105740:	e3a02003 	mov	r2, #3
 c105744:	e5832000 	str	r2, [r3]
 c105748:	e59f30a4 	ldr	r3, [pc, #164]	; c1057f4 <rtc_init+0x120>
 c10574c:	e3a02000 	mov	r2, #0
 c105750:	e5832000 	str	r2, [r3]
 c105754:	e59f309c 	ldr	r3, [pc, #156]	; c1057f8 <rtc_init+0x124>
 c105758:	e3a02000 	mov	r2, #0
 c10575c:	e5832000 	str	r2, [r3]
 c105760:	e59f3094 	ldr	r3, [pc, #148]	; c1057fc <rtc_init+0x128>
 c105764:	e3a02000 	mov	r2, #0
 c105768:	e5832000 	str	r2, [r3]
 c10576c:	e59f308c 	ldr	r3, [pc, #140]	; c105800 <rtc_init+0x12c>
 c105770:	e3a02000 	mov	r2, #0
 c105774:	e5832000 	str	r2, [r3]
 c105778:	e59f3084 	ldr	r3, [pc, #132]	; c105804 <rtc_init+0x130>
 c10577c:	e3a02000 	mov	r2, #0
 c105780:	e5832000 	str	r2, [r3]
 c105784:	e59f307c 	ldr	r3, [pc, #124]	; c105808 <rtc_init+0x134>
 c105788:	e3a02000 	mov	r2, #0
 c10578c:	e5832000 	str	r2, [r3]
 c105790:	e59f3074 	ldr	r3, [pc, #116]	; c10580c <rtc_init+0x138>
 c105794:	e3a02000 	mov	r2, #0
 c105798:	e5832000 	str	r2, [r3]
 c10579c:	e59f306c 	ldr	r3, [pc, #108]	; c105810 <rtc_init+0x13c>
 c1057a0:	e3a02000 	mov	r2, #0
 c1057a4:	e5832000 	str	r2, [r3]
 c1057a8:	e59f3064 	ldr	r3, [pc, #100]	; c105814 <rtc_init+0x140>
 c1057ac:	e3a02000 	mov	r2, #0
 c1057b0:	e5832000 	str	r2, [r3]
 c1057b4:	e59f3024 	ldr	r3, [pc, #36]	; c1057e0 <rtc_init+0x10c>
 c1057b8:	e59f2020 	ldr	r2, [pc, #32]	; c1057e0 <rtc_init+0x10c>
 c1057bc:	e5922000 	ldr	r2, [r2]
 c1057c0:	e3c22001 	bic	r2, r2, #1
 c1057c4:	e5832000 	str	r2, [r3]
 c1057c8:	e24bd00c 	sub	sp, fp, #12
 c1057cc:	e89d6800 	ldm	sp, {fp, sp, lr}
 c1057d0:	e12fff1e 	bx	lr
 c1057d4:	01d7008c 	.word	0x01d7008c
 c1057d8:	01d70050 	.word	0x01d70050
 c1057dc:	01d7006c 	.word	0x01d7006c
 c1057e0:	01d70040 	.word	0x01d70040
 c1057e4:	01d70088 	.word	0x01d70088
 c1057e8:	01d70084 	.word	0x01d70084
 c1057ec:	01d7007c 	.word	0x01d7007c
 c1057f0:	01d70080 	.word	0x01d70080
 c1057f4:	01d70078 	.word	0x01d70078
 c1057f8:	01d70074 	.word	0x01d70074
 c1057fc:	01d70070 	.word	0x01d70070
 c105800:	01d70068 	.word	0x01d70068
 c105804:	01d70064 	.word	0x01d70064
 c105808:	01d70060 	.word	0x01d70060
 c10580c:	01d7005c 	.word	0x01d7005c
 c105810:	01d70058 	.word	0x01d70058
 c105814:	01d70054 	.word	0x01d70054

0c105818 <rtc_puttime>:
 c105818:	e1a0c00d 	mov	ip, sp
 c10581c:	e92dd800 	push	{fp, ip, lr, pc}
 c105820:	e24cb004 	sub	fp, ip, #4
 c105824:	e24dd008 	sub	sp, sp, #8
 c105828:	e50b0010 	str	r0, [fp, #-16]
 c10582c:	e59f3278 	ldr	r3, [pc, #632]	; c105aac <rtc_puttime+0x294>
 c105830:	e59f2274 	ldr	r2, [pc, #628]	; c105aac <rtc_puttime+0x294>
 c105834:	e5922000 	ldr	r2, [r2]
 c105838:	e3822001 	orr	r2, r2, #1
 c10583c:	e5832000 	str	r2, [r3]
 c105840:	e59f0268 	ldr	r0, [pc, #616]	; c105ab0 <rtc_puttime+0x298>
 c105844:	e51b3010 	ldr	r3, [fp, #-16]
 c105848:	e5d32006 	ldrb	r2, [r3, #6]
 c10584c:	e59f3260 	ldr	r3, [pc, #608]	; c105ab4 <rtc_puttime+0x29c>
 c105850:	e0831392 	umull	r1, r3, r2, r3
 c105854:	e1a031a3 	lsr	r3, r3, #3
 c105858:	e20330ff 	and	r3, r3, #255	; 0xff
 c10585c:	e1a0c203 	lsl	ip, r3, #4
 c105860:	e51b3010 	ldr	r3, [fp, #-16]
 c105864:	e5d32006 	ldrb	r2, [r3, #6]
 c105868:	e59f3244 	ldr	r3, [pc, #580]	; c105ab4 <rtc_puttime+0x29c>
 c10586c:	e0831392 	umull	r1, r3, r2, r3
 c105870:	e1a011a3 	lsr	r1, r3, #3
 c105874:	e1a03001 	mov	r3, r1
 c105878:	e1a03103 	lsl	r3, r3, #2
 c10587c:	e0833001 	add	r3, r3, r1
 c105880:	e1a03083 	lsl	r3, r3, #1
 c105884:	e0633002 	rsb	r3, r3, r2
 c105888:	e20330ff 	and	r3, r3, #255	; 0xff
 c10588c:	e08c3003 	add	r3, ip, r3
 c105890:	e5803000 	str	r3, [r0]
 c105894:	e59f021c 	ldr	r0, [pc, #540]	; c105ab8 <rtc_puttime+0x2a0>
 c105898:	e51b3010 	ldr	r3, [fp, #-16]
 c10589c:	e5d32005 	ldrb	r2, [r3, #5]
 c1058a0:	e59f320c 	ldr	r3, [pc, #524]	; c105ab4 <rtc_puttime+0x29c>
 c1058a4:	e0831392 	umull	r1, r3, r2, r3
 c1058a8:	e1a031a3 	lsr	r3, r3, #3
 c1058ac:	e20330ff 	and	r3, r3, #255	; 0xff
 c1058b0:	e1a0c203 	lsl	ip, r3, #4
 c1058b4:	e51b3010 	ldr	r3, [fp, #-16]
 c1058b8:	e5d32005 	ldrb	r2, [r3, #5]
 c1058bc:	e59f31f0 	ldr	r3, [pc, #496]	; c105ab4 <rtc_puttime+0x29c>
 c1058c0:	e0831392 	umull	r1, r3, r2, r3
 c1058c4:	e1a011a3 	lsr	r1, r3, #3
 c1058c8:	e1a03001 	mov	r3, r1
 c1058cc:	e1a03103 	lsl	r3, r3, #2
 c1058d0:	e0833001 	add	r3, r3, r1
 c1058d4:	e1a03083 	lsl	r3, r3, #1
 c1058d8:	e0633002 	rsb	r3, r3, r2
 c1058dc:	e20330ff 	and	r3, r3, #255	; 0xff
 c1058e0:	e08c3003 	add	r3, ip, r3
 c1058e4:	e5803000 	str	r3, [r0]
 c1058e8:	e59f01cc 	ldr	r0, [pc, #460]	; c105abc <rtc_puttime+0x2a4>
 c1058ec:	e51b3010 	ldr	r3, [fp, #-16]
 c1058f0:	e5d32003 	ldrb	r2, [r3, #3]
 c1058f4:	e59f31b8 	ldr	r3, [pc, #440]	; c105ab4 <rtc_puttime+0x29c>
 c1058f8:	e0831392 	umull	r1, r3, r2, r3
 c1058fc:	e1a031a3 	lsr	r3, r3, #3
 c105900:	e20330ff 	and	r3, r3, #255	; 0xff
 c105904:	e1a0c203 	lsl	ip, r3, #4
 c105908:	e51b3010 	ldr	r3, [fp, #-16]
 c10590c:	e5d32003 	ldrb	r2, [r3, #3]
 c105910:	e59f319c 	ldr	r3, [pc, #412]	; c105ab4 <rtc_puttime+0x29c>
 c105914:	e0831392 	umull	r1, r3, r2, r3
 c105918:	e1a011a3 	lsr	r1, r3, #3
 c10591c:	e1a03001 	mov	r3, r1
 c105920:	e1a03103 	lsl	r3, r3, #2
 c105924:	e0833001 	add	r3, r3, r1
 c105928:	e1a03083 	lsl	r3, r3, #1
 c10592c:	e0633002 	rsb	r3, r3, r2
 c105930:	e20330ff 	and	r3, r3, #255	; 0xff
 c105934:	e08c3003 	add	r3, ip, r3
 c105938:	e5803000 	str	r3, [r0]
 c10593c:	e59f017c 	ldr	r0, [pc, #380]	; c105ac0 <rtc_puttime+0x2a8>
 c105940:	e51b3010 	ldr	r3, [fp, #-16]
 c105944:	e5d32004 	ldrb	r2, [r3, #4]
 c105948:	e59f3164 	ldr	r3, [pc, #356]	; c105ab4 <rtc_puttime+0x29c>
 c10594c:	e0831392 	umull	r1, r3, r2, r3
 c105950:	e1a031a3 	lsr	r3, r3, #3
 c105954:	e20330ff 	and	r3, r3, #255	; 0xff
 c105958:	e1a0c203 	lsl	ip, r3, #4
 c10595c:	e51b3010 	ldr	r3, [fp, #-16]
 c105960:	e5d32004 	ldrb	r2, [r3, #4]
 c105964:	e59f3148 	ldr	r3, [pc, #328]	; c105ab4 <rtc_puttime+0x29c>
 c105968:	e0831392 	umull	r1, r3, r2, r3
 c10596c:	e1a011a3 	lsr	r1, r3, #3
 c105970:	e1a03001 	mov	r3, r1
 c105974:	e1a03103 	lsl	r3, r3, #2
 c105978:	e0833001 	add	r3, r3, r1
 c10597c:	e1a03083 	lsl	r3, r3, #1
 c105980:	e0633002 	rsb	r3, r3, r2
 c105984:	e20330ff 	and	r3, r3, #255	; 0xff
 c105988:	e08c3003 	add	r3, ip, r3
 c10598c:	e5803000 	str	r3, [r0]
 c105990:	e59f012c 	ldr	r0, [pc, #300]	; c105ac4 <rtc_puttime+0x2ac>
 c105994:	e51b3010 	ldr	r3, [fp, #-16]
 c105998:	e5d32002 	ldrb	r2, [r3, #2]
 c10599c:	e59f3110 	ldr	r3, [pc, #272]	; c105ab4 <rtc_puttime+0x29c>
 c1059a0:	e0831392 	umull	r1, r3, r2, r3
 c1059a4:	e1a031a3 	lsr	r3, r3, #3
 c1059a8:	e20330ff 	and	r3, r3, #255	; 0xff
 c1059ac:	e1a0c203 	lsl	ip, r3, #4
 c1059b0:	e51b3010 	ldr	r3, [fp, #-16]
 c1059b4:	e5d32002 	ldrb	r2, [r3, #2]
 c1059b8:	e59f30f4 	ldr	r3, [pc, #244]	; c105ab4 <rtc_puttime+0x29c>
 c1059bc:	e0831392 	umull	r1, r3, r2, r3
 c1059c0:	e1a011a3 	lsr	r1, r3, #3
 c1059c4:	e1a03001 	mov	r3, r1
 c1059c8:	e1a03103 	lsl	r3, r3, #2
 c1059cc:	e0833001 	add	r3, r3, r1
 c1059d0:	e1a03083 	lsl	r3, r3, #1
 c1059d4:	e0633002 	rsb	r3, r3, r2
 c1059d8:	e20330ff 	and	r3, r3, #255	; 0xff
 c1059dc:	e08c3003 	add	r3, ip, r3
 c1059e0:	e5803000 	str	r3, [r0]
 c1059e4:	e59f00dc 	ldr	r0, [pc, #220]	; c105ac8 <rtc_puttime+0x2b0>
 c1059e8:	e51b3010 	ldr	r3, [fp, #-16]
 c1059ec:	e5d32001 	ldrb	r2, [r3, #1]
 c1059f0:	e59f30bc 	ldr	r3, [pc, #188]	; c105ab4 <rtc_puttime+0x29c>
 c1059f4:	e0831392 	umull	r1, r3, r2, r3
 c1059f8:	e1a031a3 	lsr	r3, r3, #3
 c1059fc:	e20330ff 	and	r3, r3, #255	; 0xff
 c105a00:	e1a0c203 	lsl	ip, r3, #4
 c105a04:	e51b3010 	ldr	r3, [fp, #-16]
 c105a08:	e5d32001 	ldrb	r2, [r3, #1]
 c105a0c:	e59f30a0 	ldr	r3, [pc, #160]	; c105ab4 <rtc_puttime+0x29c>
 c105a10:	e0831392 	umull	r1, r3, r2, r3
 c105a14:	e1a011a3 	lsr	r1, r3, #3
 c105a18:	e1a03001 	mov	r3, r1
 c105a1c:	e1a03103 	lsl	r3, r3, #2
 c105a20:	e0833001 	add	r3, r3, r1
 c105a24:	e1a03083 	lsl	r3, r3, #1
 c105a28:	e0633002 	rsb	r3, r3, r2
 c105a2c:	e20330ff 	and	r3, r3, #255	; 0xff
 c105a30:	e08c3003 	add	r3, ip, r3
 c105a34:	e5803000 	str	r3, [r0]
 c105a38:	e59f008c 	ldr	r0, [pc, #140]	; c105acc <rtc_puttime+0x2b4>
 c105a3c:	e51b3010 	ldr	r3, [fp, #-16]
 c105a40:	e5d32000 	ldrb	r2, [r3]
 c105a44:	e59f3068 	ldr	r3, [pc, #104]	; c105ab4 <rtc_puttime+0x29c>
 c105a48:	e0831392 	umull	r1, r3, r2, r3
 c105a4c:	e1a031a3 	lsr	r3, r3, #3
 c105a50:	e20330ff 	and	r3, r3, #255	; 0xff
 c105a54:	e1a0c203 	lsl	ip, r3, #4
 c105a58:	e51b3010 	ldr	r3, [fp, #-16]
 c105a5c:	e5d32000 	ldrb	r2, [r3]
 c105a60:	e59f304c 	ldr	r3, [pc, #76]	; c105ab4 <rtc_puttime+0x29c>
 c105a64:	e0831392 	umull	r1, r3, r2, r3
 c105a68:	e1a011a3 	lsr	r1, r3, #3
 c105a6c:	e1a03001 	mov	r3, r1
 c105a70:	e1a03103 	lsl	r3, r3, #2
 c105a74:	e0833001 	add	r3, r3, r1
 c105a78:	e1a03083 	lsl	r3, r3, #1
 c105a7c:	e0633002 	rsb	r3, r3, r2
 c105a80:	e20330ff 	and	r3, r3, #255	; 0xff
 c105a84:	e08c3003 	add	r3, ip, r3
 c105a88:	e5803000 	str	r3, [r0]
 c105a8c:	e59f3018 	ldr	r3, [pc, #24]	; c105aac <rtc_puttime+0x294>
 c105a90:	e59f2014 	ldr	r2, [pc, #20]	; c105aac <rtc_puttime+0x294>
 c105a94:	e5922000 	ldr	r2, [r2]
 c105a98:	e3c22001 	bic	r2, r2, #1
 c105a9c:	e5832000 	str	r2, [r3]
 c105aa0:	e24bd00c 	sub	sp, fp, #12
 c105aa4:	e89d6800 	ldm	sp, {fp, sp, lr}
 c105aa8:	e12fff1e 	bx	lr
 c105aac:	01d70040 	.word	0x01d70040
 c105ab0:	01d70088 	.word	0x01d70088
 c105ab4:	cccccccd 	.word	0xcccccccd
 c105ab8:	01d70084 	.word	0x01d70084
 c105abc:	01d7007c 	.word	0x01d7007c
 c105ac0:	01d70080 	.word	0x01d70080
 c105ac4:	01d70078 	.word	0x01d70078
 c105ac8:	01d70074 	.word	0x01d70074
 c105acc:	01d70070 	.word	0x01d70070

0c105ad0 <rtc_gettime>:
 c105ad0:	e1a0c00d 	mov	ip, sp
 c105ad4:	e92dd800 	push	{fp, ip, lr, pc}
 c105ad8:	e24cb004 	sub	fp, ip, #4
 c105adc:	e24dd008 	sub	sp, sp, #8
 c105ae0:	e50b0010 	str	r0, [fp, #-16]
 c105ae4:	e59f342c 	ldr	r3, [pc, #1068]	; c105f18 <rtc_gettime+0x448>
 c105ae8:	e59f2428 	ldr	r2, [pc, #1064]	; c105f18 <rtc_gettime+0x448>
 c105aec:	e5922000 	ldr	r2, [r2]
 c105af0:	e3822001 	orr	r2, r2, #1
 c105af4:	e5832000 	str	r2, [r3]
 c105af8:	e59f341c 	ldr	r3, [pc, #1052]	; c105f1c <rtc_gettime+0x44c>
 c105afc:	e5933000 	ldr	r3, [r3]
 c105b00:	e1a03223 	lsr	r3, r3, #4
 c105b04:	e20330ff 	and	r3, r3, #255	; 0xff
 c105b08:	e1a02003 	mov	r2, r3
 c105b0c:	e1a02102 	lsl	r2, r2, #2
 c105b10:	e0823003 	add	r3, r2, r3
 c105b14:	e1a03083 	lsl	r3, r3, #1
 c105b18:	e20320ff 	and	r2, r3, #255	; 0xff
 c105b1c:	e59f33f8 	ldr	r3, [pc, #1016]	; c105f1c <rtc_gettime+0x44c>
 c105b20:	e5933000 	ldr	r3, [r3]
 c105b24:	e20330ff 	and	r3, r3, #255	; 0xff
 c105b28:	e203300f 	and	r3, r3, #15
 c105b2c:	e20330ff 	and	r3, r3, #255	; 0xff
 c105b30:	e0823003 	add	r3, r2, r3
 c105b34:	e20320ff 	and	r2, r3, #255	; 0xff
 c105b38:	e51b3010 	ldr	r3, [fp, #-16]
 c105b3c:	e5c32006 	strb	r2, [r3, #6]
 c105b40:	e59f33d8 	ldr	r3, [pc, #984]	; c105f20 <rtc_gettime+0x450>
 c105b44:	e5933000 	ldr	r3, [r3]
 c105b48:	e1a03223 	lsr	r3, r3, #4
 c105b4c:	e20330ff 	and	r3, r3, #255	; 0xff
 c105b50:	e1a02003 	mov	r2, r3
 c105b54:	e1a02102 	lsl	r2, r2, #2
 c105b58:	e0823003 	add	r3, r2, r3
 c105b5c:	e1a03083 	lsl	r3, r3, #1
 c105b60:	e20320ff 	and	r2, r3, #255	; 0xff
 c105b64:	e59f33b4 	ldr	r3, [pc, #948]	; c105f20 <rtc_gettime+0x450>
 c105b68:	e5933000 	ldr	r3, [r3]
 c105b6c:	e20330ff 	and	r3, r3, #255	; 0xff
 c105b70:	e203300f 	and	r3, r3, #15
 c105b74:	e20330ff 	and	r3, r3, #255	; 0xff
 c105b78:	e0823003 	add	r3, r2, r3
 c105b7c:	e20320ff 	and	r2, r3, #255	; 0xff
 c105b80:	e51b3010 	ldr	r3, [fp, #-16]
 c105b84:	e5c32005 	strb	r2, [r3, #5]
 c105b88:	e59f3394 	ldr	r3, [pc, #916]	; c105f24 <rtc_gettime+0x454>
 c105b8c:	e5933000 	ldr	r3, [r3]
 c105b90:	e1a03223 	lsr	r3, r3, #4
 c105b94:	e20330ff 	and	r3, r3, #255	; 0xff
 c105b98:	e1a02003 	mov	r2, r3
 c105b9c:	e1a02102 	lsl	r2, r2, #2
 c105ba0:	e0823003 	add	r3, r2, r3
 c105ba4:	e1a03083 	lsl	r3, r3, #1
 c105ba8:	e20320ff 	and	r2, r3, #255	; 0xff
 c105bac:	e59f3370 	ldr	r3, [pc, #880]	; c105f24 <rtc_gettime+0x454>
 c105bb0:	e5933000 	ldr	r3, [r3]
 c105bb4:	e20330ff 	and	r3, r3, #255	; 0xff
 c105bb8:	e203300f 	and	r3, r3, #15
 c105bbc:	e20330ff 	and	r3, r3, #255	; 0xff
 c105bc0:	e0823003 	add	r3, r2, r3
 c105bc4:	e20320ff 	and	r2, r3, #255	; 0xff
 c105bc8:	e51b3010 	ldr	r3, [fp, #-16]
 c105bcc:	e5c32003 	strb	r2, [r3, #3]
 c105bd0:	e59f3350 	ldr	r3, [pc, #848]	; c105f28 <rtc_gettime+0x458>
 c105bd4:	e5933000 	ldr	r3, [r3]
 c105bd8:	e1a03223 	lsr	r3, r3, #4
 c105bdc:	e20330ff 	and	r3, r3, #255	; 0xff
 c105be0:	e1a02003 	mov	r2, r3
 c105be4:	e1a02102 	lsl	r2, r2, #2
 c105be8:	e0823003 	add	r3, r2, r3
 c105bec:	e1a03083 	lsl	r3, r3, #1
 c105bf0:	e20320ff 	and	r2, r3, #255	; 0xff
 c105bf4:	e59f332c 	ldr	r3, [pc, #812]	; c105f28 <rtc_gettime+0x458>
 c105bf8:	e5933000 	ldr	r3, [r3]
 c105bfc:	e20330ff 	and	r3, r3, #255	; 0xff
 c105c00:	e203300f 	and	r3, r3, #15
 c105c04:	e20330ff 	and	r3, r3, #255	; 0xff
 c105c08:	e0823003 	add	r3, r2, r3
 c105c0c:	e20320ff 	and	r2, r3, #255	; 0xff
 c105c10:	e51b3010 	ldr	r3, [fp, #-16]
 c105c14:	e5c32004 	strb	r2, [r3, #4]
 c105c18:	e59f330c 	ldr	r3, [pc, #780]	; c105f2c <rtc_gettime+0x45c>
 c105c1c:	e5933000 	ldr	r3, [r3]
 c105c20:	e1a03223 	lsr	r3, r3, #4
 c105c24:	e20330ff 	and	r3, r3, #255	; 0xff
 c105c28:	e1a02003 	mov	r2, r3
 c105c2c:	e1a02102 	lsl	r2, r2, #2
 c105c30:	e0823003 	add	r3, r2, r3
 c105c34:	e1a03083 	lsl	r3, r3, #1
 c105c38:	e20320ff 	and	r2, r3, #255	; 0xff
 c105c3c:	e59f32e8 	ldr	r3, [pc, #744]	; c105f2c <rtc_gettime+0x45c>
 c105c40:	e5933000 	ldr	r3, [r3]
 c105c44:	e20330ff 	and	r3, r3, #255	; 0xff
 c105c48:	e203300f 	and	r3, r3, #15
 c105c4c:	e20330ff 	and	r3, r3, #255	; 0xff
 c105c50:	e0823003 	add	r3, r2, r3
 c105c54:	e20320ff 	and	r2, r3, #255	; 0xff
 c105c58:	e51b3010 	ldr	r3, [fp, #-16]
 c105c5c:	e5c32002 	strb	r2, [r3, #2]
 c105c60:	e59f32c8 	ldr	r3, [pc, #712]	; c105f30 <rtc_gettime+0x460>
 c105c64:	e5933000 	ldr	r3, [r3]
 c105c68:	e1a03223 	lsr	r3, r3, #4
 c105c6c:	e20330ff 	and	r3, r3, #255	; 0xff
 c105c70:	e1a02003 	mov	r2, r3
 c105c74:	e1a02102 	lsl	r2, r2, #2
 c105c78:	e0823003 	add	r3, r2, r3
 c105c7c:	e1a03083 	lsl	r3, r3, #1
 c105c80:	e20320ff 	and	r2, r3, #255	; 0xff
 c105c84:	e59f32a4 	ldr	r3, [pc, #676]	; c105f30 <rtc_gettime+0x460>
 c105c88:	e5933000 	ldr	r3, [r3]
 c105c8c:	e20330ff 	and	r3, r3, #255	; 0xff
 c105c90:	e203300f 	and	r3, r3, #15
 c105c94:	e20330ff 	and	r3, r3, #255	; 0xff
 c105c98:	e0823003 	add	r3, r2, r3
 c105c9c:	e20320ff 	and	r2, r3, #255	; 0xff
 c105ca0:	e51b3010 	ldr	r3, [fp, #-16]
 c105ca4:	e5c32001 	strb	r2, [r3, #1]
 c105ca8:	e59f3284 	ldr	r3, [pc, #644]	; c105f34 <rtc_gettime+0x464>
 c105cac:	e5933000 	ldr	r3, [r3]
 c105cb0:	e1a03223 	lsr	r3, r3, #4
 c105cb4:	e20330ff 	and	r3, r3, #255	; 0xff
 c105cb8:	e1a02003 	mov	r2, r3
 c105cbc:	e1a02102 	lsl	r2, r2, #2
 c105cc0:	e0823003 	add	r3, r2, r3
 c105cc4:	e1a03083 	lsl	r3, r3, #1
 c105cc8:	e20320ff 	and	r2, r3, #255	; 0xff
 c105ccc:	e59f3260 	ldr	r3, [pc, #608]	; c105f34 <rtc_gettime+0x464>
 c105cd0:	e5933000 	ldr	r3, [r3]
 c105cd4:	e20330ff 	and	r3, r3, #255	; 0xff
 c105cd8:	e203300f 	and	r3, r3, #15
 c105cdc:	e20330ff 	and	r3, r3, #255	; 0xff
 c105ce0:	e0823003 	add	r3, r2, r3
 c105ce4:	e20320ff 	and	r2, r3, #255	; 0xff
 c105ce8:	e51b3010 	ldr	r3, [fp, #-16]
 c105cec:	e5c32000 	strb	r2, [r3]
 c105cf0:	e51b3010 	ldr	r3, [fp, #-16]
 c105cf4:	e5d33000 	ldrb	r3, [r3]
 c105cf8:	e3530000 	cmp	r3, #0
 c105cfc:	1a00007d 	bne	c105ef8 <rtc_gettime+0x428>
 c105d00:	e59f3214 	ldr	r3, [pc, #532]	; c105f1c <rtc_gettime+0x44c>
 c105d04:	e5933000 	ldr	r3, [r3]
 c105d08:	e1a03223 	lsr	r3, r3, #4
 c105d0c:	e20330ff 	and	r3, r3, #255	; 0xff
 c105d10:	e1a02003 	mov	r2, r3
 c105d14:	e1a02102 	lsl	r2, r2, #2
 c105d18:	e0823003 	add	r3, r2, r3
 c105d1c:	e1a03083 	lsl	r3, r3, #1
 c105d20:	e20320ff 	and	r2, r3, #255	; 0xff
 c105d24:	e59f31f0 	ldr	r3, [pc, #496]	; c105f1c <rtc_gettime+0x44c>
 c105d28:	e5933000 	ldr	r3, [r3]
 c105d2c:	e20330ff 	and	r3, r3, #255	; 0xff
 c105d30:	e203300f 	and	r3, r3, #15
 c105d34:	e20330ff 	and	r3, r3, #255	; 0xff
 c105d38:	e0823003 	add	r3, r2, r3
 c105d3c:	e20320ff 	and	r2, r3, #255	; 0xff
 c105d40:	e51b3010 	ldr	r3, [fp, #-16]
 c105d44:	e5c32006 	strb	r2, [r3, #6]
 c105d48:	e59f31d0 	ldr	r3, [pc, #464]	; c105f20 <rtc_gettime+0x450>
 c105d4c:	e5933000 	ldr	r3, [r3]
 c105d50:	e1a03223 	lsr	r3, r3, #4
 c105d54:	e20330ff 	and	r3, r3, #255	; 0xff
 c105d58:	e1a02003 	mov	r2, r3
 c105d5c:	e1a02102 	lsl	r2, r2, #2
 c105d60:	e0823003 	add	r3, r2, r3
 c105d64:	e1a03083 	lsl	r3, r3, #1
 c105d68:	e20320ff 	and	r2, r3, #255	; 0xff
 c105d6c:	e59f31ac 	ldr	r3, [pc, #428]	; c105f20 <rtc_gettime+0x450>
 c105d70:	e5933000 	ldr	r3, [r3]
 c105d74:	e20330ff 	and	r3, r3, #255	; 0xff
 c105d78:	e203300f 	and	r3, r3, #15
 c105d7c:	e20330ff 	and	r3, r3, #255	; 0xff
 c105d80:	e0823003 	add	r3, r2, r3
 c105d84:	e20320ff 	and	r2, r3, #255	; 0xff
 c105d88:	e51b3010 	ldr	r3, [fp, #-16]
 c105d8c:	e5c32005 	strb	r2, [r3, #5]
 c105d90:	e59f318c 	ldr	r3, [pc, #396]	; c105f24 <rtc_gettime+0x454>
 c105d94:	e5933000 	ldr	r3, [r3]
 c105d98:	e1a03223 	lsr	r3, r3, #4
 c105d9c:	e20330ff 	and	r3, r3, #255	; 0xff
 c105da0:	e1a02003 	mov	r2, r3
 c105da4:	e1a02102 	lsl	r2, r2, #2
 c105da8:	e0823003 	add	r3, r2, r3
 c105dac:	e1a03083 	lsl	r3, r3, #1
 c105db0:	e20320ff 	and	r2, r3, #255	; 0xff
 c105db4:	e59f3168 	ldr	r3, [pc, #360]	; c105f24 <rtc_gettime+0x454>
 c105db8:	e5933000 	ldr	r3, [r3]
 c105dbc:	e20330ff 	and	r3, r3, #255	; 0xff
 c105dc0:	e203300f 	and	r3, r3, #15
 c105dc4:	e20330ff 	and	r3, r3, #255	; 0xff
 c105dc8:	e0823003 	add	r3, r2, r3
 c105dcc:	e20320ff 	and	r2, r3, #255	; 0xff
 c105dd0:	e51b3010 	ldr	r3, [fp, #-16]
 c105dd4:	e5c32003 	strb	r2, [r3, #3]
 c105dd8:	e59f3148 	ldr	r3, [pc, #328]	; c105f28 <rtc_gettime+0x458>
 c105ddc:	e5933000 	ldr	r3, [r3]
 c105de0:	e1a03223 	lsr	r3, r3, #4
 c105de4:	e20330ff 	and	r3, r3, #255	; 0xff
 c105de8:	e1a02003 	mov	r2, r3
 c105dec:	e1a02102 	lsl	r2, r2, #2
 c105df0:	e0823003 	add	r3, r2, r3
 c105df4:	e1a03083 	lsl	r3, r3, #1
 c105df8:	e20320ff 	and	r2, r3, #255	; 0xff
 c105dfc:	e59f3124 	ldr	r3, [pc, #292]	; c105f28 <rtc_gettime+0x458>
 c105e00:	e5933000 	ldr	r3, [r3]
 c105e04:	e20330ff 	and	r3, r3, #255	; 0xff
 c105e08:	e203300f 	and	r3, r3, #15
 c105e0c:	e20330ff 	and	r3, r3, #255	; 0xff
 c105e10:	e0823003 	add	r3, r2, r3
 c105e14:	e20320ff 	and	r2, r3, #255	; 0xff
 c105e18:	e51b3010 	ldr	r3, [fp, #-16]
 c105e1c:	e5c32004 	strb	r2, [r3, #4]
 c105e20:	e59f3104 	ldr	r3, [pc, #260]	; c105f2c <rtc_gettime+0x45c>
 c105e24:	e5933000 	ldr	r3, [r3]
 c105e28:	e1a03223 	lsr	r3, r3, #4
 c105e2c:	e20330ff 	and	r3, r3, #255	; 0xff
 c105e30:	e1a02003 	mov	r2, r3
 c105e34:	e1a02102 	lsl	r2, r2, #2
 c105e38:	e0823003 	add	r3, r2, r3
 c105e3c:	e1a03083 	lsl	r3, r3, #1
 c105e40:	e20320ff 	and	r2, r3, #255	; 0xff
 c105e44:	e59f30e0 	ldr	r3, [pc, #224]	; c105f2c <rtc_gettime+0x45c>
 c105e48:	e5933000 	ldr	r3, [r3]
 c105e4c:	e20330ff 	and	r3, r3, #255	; 0xff
 c105e50:	e203300f 	and	r3, r3, #15
 c105e54:	e20330ff 	and	r3, r3, #255	; 0xff
 c105e58:	e0823003 	add	r3, r2, r3
 c105e5c:	e20320ff 	and	r2, r3, #255	; 0xff
 c105e60:	e51b3010 	ldr	r3, [fp, #-16]
 c105e64:	e5c32002 	strb	r2, [r3, #2]
 c105e68:	e59f30c0 	ldr	r3, [pc, #192]	; c105f30 <rtc_gettime+0x460>
 c105e6c:	e5933000 	ldr	r3, [r3]
 c105e70:	e1a03223 	lsr	r3, r3, #4
 c105e74:	e20330ff 	and	r3, r3, #255	; 0xff
 c105e78:	e1a02003 	mov	r2, r3
 c105e7c:	e1a02102 	lsl	r2, r2, #2
 c105e80:	e0823003 	add	r3, r2, r3
 c105e84:	e1a03083 	lsl	r3, r3, #1
 c105e88:	e20320ff 	and	r2, r3, #255	; 0xff
 c105e8c:	e59f309c 	ldr	r3, [pc, #156]	; c105f30 <rtc_gettime+0x460>
 c105e90:	e5933000 	ldr	r3, [r3]
 c105e94:	e20330ff 	and	r3, r3, #255	; 0xff
 c105e98:	e203300f 	and	r3, r3, #15
 c105e9c:	e20330ff 	and	r3, r3, #255	; 0xff
 c105ea0:	e0823003 	add	r3, r2, r3
 c105ea4:	e20320ff 	and	r2, r3, #255	; 0xff
 c105ea8:	e51b3010 	ldr	r3, [fp, #-16]
 c105eac:	e5c32001 	strb	r2, [r3, #1]
 c105eb0:	e59f307c 	ldr	r3, [pc, #124]	; c105f34 <rtc_gettime+0x464>
 c105eb4:	e5933000 	ldr	r3, [r3]
 c105eb8:	e1a03223 	lsr	r3, r3, #4
 c105ebc:	e20330ff 	and	r3, r3, #255	; 0xff
 c105ec0:	e1a02003 	mov	r2, r3
 c105ec4:	e1a02102 	lsl	r2, r2, #2
 c105ec8:	e0823003 	add	r3, r2, r3
 c105ecc:	e1a03083 	lsl	r3, r3, #1
 c105ed0:	e20320ff 	and	r2, r3, #255	; 0xff
 c105ed4:	e59f3058 	ldr	r3, [pc, #88]	; c105f34 <rtc_gettime+0x464>
 c105ed8:	e5933000 	ldr	r3, [r3]
 c105edc:	e20330ff 	and	r3, r3, #255	; 0xff
 c105ee0:	e203300f 	and	r3, r3, #15
 c105ee4:	e20330ff 	and	r3, r3, #255	; 0xff
 c105ee8:	e0823003 	add	r3, r2, r3
 c105eec:	e20320ff 	and	r2, r3, #255	; 0xff
 c105ef0:	e51b3010 	ldr	r3, [fp, #-16]
 c105ef4:	e5c32000 	strb	r2, [r3]
 c105ef8:	e59f3018 	ldr	r3, [pc, #24]	; c105f18 <rtc_gettime+0x448>
 c105efc:	e59f2014 	ldr	r2, [pc, #20]	; c105f18 <rtc_gettime+0x448>
 c105f00:	e5922000 	ldr	r2, [r2]
 c105f04:	e3c22001 	bic	r2, r2, #1
 c105f08:	e5832000 	str	r2, [r3]
 c105f0c:	e24bd00c 	sub	sp, fp, #12
 c105f10:	e89d6800 	ldm	sp, {fp, sp, lr}
 c105f14:	e12fff1e 	bx	lr
 c105f18:	01d70040 	.word	0x01d70040
 c105f1c:	01d70088 	.word	0x01d70088
 c105f20:	01d70084 	.word	0x01d70084
 c105f24:	01d7007c 	.word	0x01d7007c
 c105f28:	01d70080 	.word	0x01d70080
 c105f2c:	01d70078 	.word	0x01d70078
 c105f30:	01d70074 	.word	0x01d70074
 c105f34:	01d70070 	.word	0x01d70070

0c105f38 <rtc_open>:
 c105f38:	e1a0c00d 	mov	ip, sp
 c105f3c:	e92dd800 	push	{fp, ip, lr, pc}
 c105f40:	e24cb004 	sub	fp, ip, #4
 c105f44:	e24dd008 	sub	sp, sp, #8
 c105f48:	e50b0010 	str	r0, [fp, #-16]
 c105f4c:	e1a03001 	mov	r3, r1
 c105f50:	e54b3011 	strb	r3, [fp, #-17]	; 0xffffffef
 c105f54:	e59f3040 	ldr	r3, [pc, #64]	; c105f9c <rtc_open+0x64>
 c105f58:	e51b2010 	ldr	r2, [fp, #-16]
 c105f5c:	e5832000 	str	r2, [r3]
 c105f60:	e59f3038 	ldr	r3, [pc, #56]	; c105fa0 <rtc_open+0x68>
 c105f64:	e3a02601 	mov	r2, #1048576	; 0x100000
 c105f68:	e5832000 	str	r2, [r3]
 c105f6c:	e59f3030 	ldr	r3, [pc, #48]	; c105fa4 <rtc_open+0x6c>
 c105f70:	e59f202c 	ldr	r2, [pc, #44]	; c105fa4 <rtc_open+0x6c>
 c105f74:	e5922000 	ldr	r2, [r2]
 c105f78:	e3c22641 	bic	r2, r2, #68157440	; 0x4100000
 c105f7c:	e5832000 	str	r2, [r3]
 c105f80:	e59f3020 	ldr	r3, [pc, #32]	; c105fa8 <rtc_open+0x70>
 c105f84:	e55b2011 	ldrb	r2, [fp, #-17]	; 0xffffffef
 c105f88:	e3822080 	orr	r2, r2, #128	; 0x80
 c105f8c:	e5832000 	str	r2, [r3]
 c105f90:	e24bd00c 	sub	sp, fp, #12
 c105f94:	e89d6800 	ldm	sp, {fp, sp, lr}
 c105f98:	e12fff1e 	bx	lr
 c105f9c:	0c7fff70 	.word	0x0c7fff70
 c105fa0:	01e00024 	.word	0x01e00024
 c105fa4:	01e0000c 	.word	0x01e0000c
 c105fa8:	01d7008c 	.word	0x01d7008c

0c105fac <rtc_close>:
 c105fac:	e1a0c00d 	mov	ip, sp
 c105fb0:	e92dd800 	push	{fp, ip, lr, pc}
 c105fb4:	e24cb004 	sub	fp, ip, #4
 c105fb8:	e59f3030 	ldr	r3, [pc, #48]	; c105ff0 <rtc_close+0x44>
 c105fbc:	e3a02000 	mov	r2, #0
 c105fc0:	e5832000 	str	r2, [r3]
 c105fc4:	e59f3028 	ldr	r3, [pc, #40]	; c105ff4 <rtc_close+0x48>
 c105fc8:	e59f2024 	ldr	r2, [pc, #36]	; c105ff4 <rtc_close+0x48>
 c105fcc:	e5922000 	ldr	r2, [r2]
 c105fd0:	e3822601 	orr	r2, r2, #1048576	; 0x100000
 c105fd4:	e5832000 	str	r2, [r3]
 c105fd8:	e59f3018 	ldr	r3, [pc, #24]	; c105ff8 <rtc_close+0x4c>
 c105fdc:	e59f2018 	ldr	r2, [pc, #24]	; c105ffc <rtc_close+0x50>
 c105fe0:	e5832000 	str	r2, [r3]
 c105fe4:	e24bd00c 	sub	sp, fp, #12
 c105fe8:	e89d6800 	ldm	sp, {fp, sp, lr}
 c105fec:	e12fff1e 	bx	lr
 c105ff0:	01d7008c 	.word	0x01d7008c
 c105ff4:	01e0000c 	.word	0x01e0000c
 c105ff8:	0c7fff70 	.word	0x0c7fff70
 c105ffc:	0c107110 	.word	0x0c107110

0c106000 <segs_init>:
 c106000:	e1a0c00d 	mov	ip, sp
 c106004:	e92dd800 	push	{fp, ip, lr, pc}
 c106008:	e24cb004 	sub	fp, ip, #4
 c10600c:	e3a0000a 	mov	r0, #10
 c106010:	ebfffd2a 	bl	c1054c0 <power_on>
 c106014:	e59f301c 	ldr	r3, [pc, #28]	; c106038 <segs_init+0x38>
 c106018:	e59f2018 	ldr	r2, [pc, #24]	; c106038 <segs_init+0x38>
 c10601c:	e5922000 	ldr	r2, [r2]
 c106020:	e3822040 	orr	r2, r2, #64	; 0x40
 c106024:	e5832000 	str	r2, [r3]
 c106028:	eb000003 	bl	c10603c <segs_off>
 c10602c:	e24bd00c 	sub	sp, fp, #12
 c106030:	e89d6800 	ldm	sp, {fp, sp, lr}
 c106034:	e12fff1e 	bx	lr
 c106038:	01d20008 	.word	0x01d20008

0c10603c <segs_off>:
 c10603c:	e1a0c00d 	mov	ip, sp
 c106040:	e92dd800 	push	{fp, ip, lr, pc}
 c106044:	e24cb004 	sub	fp, ip, #4
 c106048:	e59f3020 	ldr	r3, [pc, #32]	; c106070 <segs_off+0x34>
 c10604c:	e3e02000 	mvn	r2, #0
 c106050:	e5c32000 	strb	r2, [r3]
 c106054:	e3a03785 	mov	r3, #34865152	; 0x2140000
 c106058:	e59f2010 	ldr	r2, [pc, #16]	; c106070 <segs_off+0x34>
 c10605c:	e5d22000 	ldrb	r2, [r2]
 c106060:	e5c32000 	strb	r2, [r3]
 c106064:	e24bd00c 	sub	sp, fp, #12
 c106068:	e89d6800 	ldm	sp, {fp, sp, lr}
 c10606c:	e12fff1e 	bx	lr
 c106070:	0c1157f0 	.word	0x0c1157f0

0c106074 <segs_putchar>:
 c106074:	e1a0c00d 	mov	ip, sp
 c106078:	e92dd800 	push	{fp, ip, lr, pc}
 c10607c:	e24cb004 	sub	fp, ip, #4
 c106080:	e24dd008 	sub	sp, sp, #8
 c106084:	e1a03000 	mov	r3, r0
 c106088:	e54b300d 	strb	r3, [fp, #-13]
 c10608c:	e55b300d 	ldrb	r3, [fp, #-13]
 c106090:	e203300f 	and	r3, r3, #15
 c106094:	e20320ff 	and	r2, r3, #255	; 0xff
 c106098:	e59f3024 	ldr	r3, [pc, #36]	; c1060c4 <segs_putchar+0x50>
 c10609c:	e5c32000 	strb	r2, [r3]
 c1060a0:	e3a03785 	mov	r3, #34865152	; 0x2140000
 c1060a4:	e59f2018 	ldr	r2, [pc, #24]	; c1060c4 <segs_putchar+0x50>
 c1060a8:	e5d22000 	ldrb	r2, [r2]
 c1060ac:	e59f1014 	ldr	r1, [pc, #20]	; c1060c8 <segs_putchar+0x54>
 c1060b0:	e7d12002 	ldrb	r2, [r1, r2]
 c1060b4:	e5c32000 	strb	r2, [r3]
 c1060b8:	e24bd00c 	sub	sp, fp, #12
 c1060bc:	e89d6800 	ldm	sp, {fp, sp, lr}
 c1060c0:	e12fff1e 	bx	lr
 c1060c4:	0c1157f0 	.word	0x0c1157f0
 c1060c8:	0c10a918 	.word	0x0c10a918

0c1060cc <segs_status>:
 c1060cc:	e1a0c00d 	mov	ip, sp
 c1060d0:	e92dd800 	push	{fp, ip, lr, pc}
 c1060d4:	e24cb004 	sub	fp, ip, #4
 c1060d8:	e59f3010 	ldr	r3, [pc, #16]	; c1060f0 <segs_status+0x24>
 c1060dc:	e5d33000 	ldrb	r3, [r3]
 c1060e0:	e1a00003 	mov	r0, r3
 c1060e4:	e24bd00c 	sub	sp, fp, #12
 c1060e8:	e89d6800 	ldm	sp, {fp, sp, lr}
 c1060ec:	e12fff1e 	bx	lr
 c1060f0:	0c1157f0 	.word	0x0c1157f0

0c1060f4 <sys_init>:
 c1060f4:	e1a0c00d 	mov	ip, sp
 c1060f8:	e92dd800 	push	{fp, ip, lr, pc}
 c1060fc:	e24cb004 	sub	fp, ip, #4
 c106100:	e24dd008 	sub	sp, sp, #8
 c106104:	e59f3124 	ldr	r3, [pc, #292]	; c106230 <sys_init+0x13c>
 c106108:	e3a02000 	mov	r2, #0
 c10610c:	e5832000 	str	r2, [r3]
 c106110:	e59f311c 	ldr	r3, [pc, #284]	; c106234 <sys_init+0x140>
 c106114:	e3e02000 	mvn	r2, #0
 c106118:	e5832000 	str	r2, [r3]
 c10611c:	e10f0000 	mrs	r0, CPSR
 c106120:	e200001f 	and	r0, r0, #31
 c106124:	e54b000d 	strb	r0, [fp, #-13]
 c106128:	e55b300d 	ldrb	r3, [fp, #-13]
 c10612c:	e3530013 	cmp	r3, #19
 c106130:	0a000000 	beq	c106138 <sys_init+0x44>
 c106134:	eb000051 	bl	c106280 <sys_recovery>
 c106138:	e59f30f8 	ldr	r3, [pc, #248]	; c106238 <sys_init+0x144>
 c10613c:	e59f20f8 	ldr	r2, [pc, #248]	; c10623c <sys_init+0x148>
 c106140:	e5832000 	str	r2, [r3]
 c106144:	e3a03776 	mov	r3, #30932992	; 0x1d80000
 c106148:	e59f20f0 	ldr	r2, [pc, #240]	; c106240 <sys_init+0x14c>
 c10614c:	e5832000 	str	r2, [r3]
 c106150:	e59f30ec 	ldr	r3, [pc, #236]	; c106244 <sys_init+0x150>
 c106154:	e59f20ec 	ldr	r2, [pc, #236]	; c106248 <sys_init+0x154>
 c106158:	e5832000 	str	r2, [r3]
 c10615c:	e59f30e8 	ldr	r3, [pc, #232]	; c10624c <sys_init+0x158>
 c106160:	e3a02008 	mov	r2, #8
 c106164:	e5832000 	str	r2, [r3]
 c106168:	e59f30e0 	ldr	r3, [pc, #224]	; c106250 <sys_init+0x15c>
 c10616c:	e59f20e0 	ldr	r2, [pc, #224]	; c106254 <sys_init+0x160>
 c106170:	e5832000 	str	r2, [r3]
 c106174:	e59f30dc 	ldr	r3, [pc, #220]	; c106258 <sys_init+0x164>
 c106178:	e59f20dc 	ldr	r2, [pc, #220]	; c10625c <sys_init+0x168>
 c10617c:	e5832000 	str	r2, [r3]
 c106180:	e59f30bc 	ldr	r3, [pc, #188]	; c106244 <sys_init+0x150>
 c106184:	e5932000 	ldr	r2, [r3]
 c106188:	e59f30d0 	ldr	r3, [pc, #208]	; c106260 <sys_init+0x16c>
 c10618c:	e5832000 	str	r2, [r3]
 c106190:	e3a03771 	mov	r3, #29622272	; 0x1c40000
 c106194:	e3a0216e 	mov	r2, #-2147483621	; 0x8000001b
 c106198:	e5832000 	str	r2, [r3]
 c10619c:	e3a03507 	mov	r3, #29360128	; 0x1c00000
 c1061a0:	e3a02000 	mov	r2, #0
 c1061a4:	e5832000 	str	r2, [r3]
 c1061a8:	e59f30b4 	ldr	r3, [pc, #180]	; c106264 <sys_init+0x170>
 c1061ac:	e59f20b4 	ldr	r2, [pc, #180]	; c106268 <sys_init+0x174>
 c1061b0:	e5832000 	str	r2, [r3]
 c1061b4:	e59f30b0 	ldr	r3, [pc, #176]	; c10626c <sys_init+0x178>
 c1061b8:	e59f20b0 	ldr	r2, [pc, #176]	; c106270 <sys_init+0x17c>
 c1061bc:	e5832000 	str	r2, [r3]
 c1061c0:	e59f30ac 	ldr	r3, [pc, #172]	; c106274 <sys_init+0x180>
 c1061c4:	e3a02000 	mov	r2, #0
 c1061c8:	e5832000 	str	r2, [r3]
 c1061cc:	eb000159 	bl	c106738 <install_dummy_isr>
 c1061d0:	e59f30a0 	ldr	r3, [pc, #160]	; c106278 <sys_init+0x184>
 c1061d4:	e3e02000 	mvn	r2, #0
 c1061d8:	e5832000 	str	r2, [r3]
 c1061dc:	e59f3098 	ldr	r3, [pc, #152]	; c10627c <sys_init+0x188>
 c1061e0:	e3e02000 	mvn	r2, #0
 c1061e4:	e5832000 	str	r2, [r3]
 c1061e8:	e3a0361e 	mov	r3, #31457280	; 0x1e00000
 c1061ec:	e3a02001 	mov	r2, #1
 c1061f0:	e5832000 	str	r2, [r3]
 c1061f4:	e10f0000 	mrs	r0, CPSR
 c1061f8:	e3c00080 	bic	r0, r0, #128	; 0x80
 c1061fc:	e3800000 	orr	r0, r0, #0
 c106200:	e121f000 	msr	CPSR_c, r0
 c106204:	e10f0000 	mrs	r0, CPSR
 c106208:	e3c00040 	bic	r0, r0, #64	; 0x40
 c10620c:	e3800040 	orr	r0, r0, #64	; 0x40
 c106210:	e121f000 	msr	CPSR_c, r0
 c106214:	eb0000a1 	bl	c1064a0 <port_init>
 c106218:	ebffff78 	bl	c106000 <segs_init>
 c10621c:	eb000b1d 	bl	c108e98 <uart0_init>
 c106220:	eb000426 	bl	c1072c0 <show_sys_info>
 c106224:	e24bd00c 	sub	sp, fp, #12
 c106228:	e89d6800 	ldm	sp, {fp, sp, lr}
 c10622c:	e12fff1e 	bx	lr
 c106230:	01d30000 	.word	0x01d30000
 c106234:	01e0000c 	.word	0x01e0000c
 c106238:	01d8000c 	.word	0x01d8000c
 c10623c:	00000fff 	.word	0x00000fff
 c106240:	00038021 	.word	0x00038021
 c106244:	0c10c0bc 	.word	0x0c10c0bc
 c106248:	03d09000 	.word	0x03d09000
 c10624c:	01d80008 	.word	0x01d80008
 c106250:	0c10c0c0 	.word	0x0c10c0c0
 c106254:	0007a120 	.word	0x0007a120
 c106258:	01d80004 	.word	0x01d80004
 c10625c:	00007ff8 	.word	0x00007ff8
 c106260:	0c10c0c4 	.word	0x0c10c0c4
 c106264:	01e00014 	.word	0x01e00014
 c106268:	00001f1b 	.word	0x00001f1b
 c10626c:	01e00010 	.word	0x01e00010
 c106270:	1b1b1b1b 	.word	0x1b1b1b1b
 c106274:	01e00008 	.word	0x01e00008
 c106278:	01d20054 	.word	0x01d20054
 c10627c:	01e00024 	.word	0x01e00024

0c106280 <sys_recovery>:
 c106280:	e1a0c00d 	mov	ip, sp
 c106284:	e92dd800 	push	{fp, ip, lr, pc}
 c106288:	e24cb004 	sub	fp, ip, #4
 c10628c:	e24dd018 	sub	sp, sp, #24
 c106290:	e50bd01c 	str	sp, [fp, #-28]	; 0xffffffe4
 c106294:	e50bb020 	str	fp, [fp, #-32]	; 0xffffffe0
 c106298:	e10f0000 	mrs	r0, CPSR
 c10629c:	e200001f 	and	r0, r0, #31
 c1062a0:	e54b0015 	strb	r0, [fp, #-21]	; 0xffffffeb
 c1062a4:	e55b3015 	ldrb	r3, [fp, #-21]	; 0xffffffeb
 c1062a8:	e2433011 	sub	r3, r3, #17
 c1062ac:	e353000a 	cmp	r3, #10
 c1062b0:	979ff103 	ldrls	pc, [pc, r3, lsl #2]
 c1062b4:	ea00001e 	b	c106334 <sys_recovery+0xb4>
 c1062b8:	0c1062f8 	.word	0x0c1062f8
 c1062bc:	0c1062e4 	.word	0x0c1062e4
 c1062c0:	0c106334 	.word	0x0c106334
 c1062c4:	0c106334 	.word	0x0c106334
 c1062c8:	0c106334 	.word	0x0c106334
 c1062cc:	0c106334 	.word	0x0c106334
 c1062d0:	0c10630c 	.word	0x0c10630c
 c1062d4:	0c106334 	.word	0x0c106334
 c1062d8:	0c106334 	.word	0x0c106334
 c1062dc:	0c106334 	.word	0x0c106334
 c1062e0:	0c106320 	.word	0x0c106320
 c1062e4:	e3a03c03 	mov	r3, #768	; 0x300
 c1062e8:	e50b3014 	str	r3, [fp, #-20]	; 0xffffffec
 c1062ec:	e59f3198 	ldr	r3, [pc, #408]	; c10648c <sys_recovery+0x20c>
 c1062f0:	e50b3024 	str	r3, [fp, #-36]	; 0xffffffdc
 c1062f4:	ea00000f 	b	c106338 <sys_recovery+0xb8>
 c1062f8:	e3a03b01 	mov	r3, #1024	; 0x400
 c1062fc:	e50b3014 	str	r3, [fp, #-20]	; 0xffffffec
 c106300:	e59f3188 	ldr	r3, [pc, #392]	; c106490 <sys_recovery+0x210>
 c106304:	e50b3024 	str	r3, [fp, #-36]	; 0xffffffdc
 c106308:	ea00000a 	b	c106338 <sys_recovery+0xb8>
 c10630c:	e3a03c02 	mov	r3, #512	; 0x200
 c106310:	e50b3014 	str	r3, [fp, #-20]	; 0xffffffec
 c106314:	e59f3178 	ldr	r3, [pc, #376]	; c106494 <sys_recovery+0x214>
 c106318:	e50b3024 	str	r3, [fp, #-36]	; 0xffffffdc
 c10631c:	ea000005 	b	c106338 <sys_recovery+0xb8>
 c106320:	e3a03c01 	mov	r3, #256	; 0x100
 c106324:	e50b3014 	str	r3, [fp, #-20]	; 0xffffffec
 c106328:	e59f3168 	ldr	r3, [pc, #360]	; c106498 <sys_recovery+0x218>
 c10632c:	e50b3024 	str	r3, [fp, #-36]	; 0xffffffdc
 c106330:	ea000000 	b	c106338 <sys_recovery+0xb8>
 c106334:	eafffffe 	b	c106334 <sys_recovery+0xb4>
 c106338:	e51bd024 	ldr	sp, [fp, #-36]	; 0xffffffdc
 c10633c:	e59f3158 	ldr	r3, [pc, #344]	; c10649c <sys_recovery+0x21c>
 c106340:	e50b3010 	str	r3, [fp, #-16]
 c106344:	ea000009 	b	c106370 <sys_recovery+0xf0>
 c106348:	e51b3010 	ldr	r3, [fp, #-16]
 c10634c:	e2433004 	sub	r3, r3, #4
 c106350:	e50b3010 	str	r3, [fp, #-16]
 c106354:	e51b3024 	ldr	r3, [fp, #-36]	; 0xffffffdc
 c106358:	e2433004 	sub	r3, r3, #4
 c10635c:	e50b3024 	str	r3, [fp, #-36]	; 0xffffffdc
 c106360:	e51b3024 	ldr	r3, [fp, #-36]	; 0xffffffdc
 c106364:	e5932000 	ldr	r2, [r3]
 c106368:	e51b3010 	ldr	r3, [fp, #-16]
 c10636c:	e5832000 	str	r2, [r3]
 c106370:	e51b301c 	ldr	r3, [fp, #-28]	; 0xffffffe4
 c106374:	e1a02003 	mov	r2, r3
 c106378:	e51b3024 	ldr	r3, [fp, #-36]	; 0xffffffdc
 c10637c:	e1520003 	cmp	r2, r3
 c106380:	3afffff0 	bcc	c106348 <sys_recovery+0xc8>
 c106384:	e51b2020 	ldr	r2, [fp, #-32]	; 0xffffffe0
 c106388:	e51b3014 	ldr	r3, [fp, #-20]	; 0xffffffec
 c10638c:	e0633002 	rsb	r3, r3, r2
 c106390:	e50b3010 	str	r3, [fp, #-16]
 c106394:	e51b3010 	ldr	r3, [fp, #-16]
 c106398:	e2433004 	sub	r3, r3, #4
 c10639c:	e50b3010 	str	r3, [fp, #-16]
 c1063a0:	e51b3010 	ldr	r3, [fp, #-16]
 c1063a4:	e2433004 	sub	r3, r3, #4
 c1063a8:	e50b3010 	str	r3, [fp, #-16]
 c1063ac:	e51b3010 	ldr	r3, [fp, #-16]
 c1063b0:	e5932000 	ldr	r2, [r3]
 c1063b4:	e51b3014 	ldr	r3, [fp, #-20]	; 0xffffffec
 c1063b8:	e0632002 	rsb	r2, r3, r2
 c1063bc:	e51b3010 	ldr	r3, [fp, #-16]
 c1063c0:	e5832000 	str	r2, [r3]
 c1063c4:	e51b3010 	ldr	r3, [fp, #-16]
 c1063c8:	e2433004 	sub	r3, r3, #4
 c1063cc:	e50b3010 	str	r3, [fp, #-16]
 c1063d0:	e51b3010 	ldr	r3, [fp, #-16]
 c1063d4:	e5932000 	ldr	r2, [r3]
 c1063d8:	e51b3014 	ldr	r3, [fp, #-20]	; 0xffffffec
 c1063dc:	e0632002 	rsb	r2, r3, r2
 c1063e0:	e51b3010 	ldr	r3, [fp, #-16]
 c1063e4:	e5832000 	str	r2, [r3]
 c1063e8:	e51b3010 	ldr	r3, [fp, #-16]
 c1063ec:	e5933000 	ldr	r3, [r3]
 c1063f0:	e50b3010 	str	r3, [fp, #-16]
 c1063f4:	e51b3010 	ldr	r3, [fp, #-16]
 c1063f8:	e2433004 	sub	r3, r3, #4
 c1063fc:	e50b3010 	str	r3, [fp, #-16]
 c106400:	e51b3010 	ldr	r3, [fp, #-16]
 c106404:	e2433004 	sub	r3, r3, #4
 c106408:	e50b3010 	str	r3, [fp, #-16]
 c10640c:	e51b3010 	ldr	r3, [fp, #-16]
 c106410:	e5932000 	ldr	r2, [r3]
 c106414:	e51b3014 	ldr	r3, [fp, #-20]	; 0xffffffec
 c106418:	e0632002 	rsb	r2, r3, r2
 c10641c:	e51b3010 	ldr	r3, [fp, #-16]
 c106420:	e5832000 	str	r2, [r3]
 c106424:	e51b3010 	ldr	r3, [fp, #-16]
 c106428:	e2433004 	sub	r3, r3, #4
 c10642c:	e50b3010 	str	r3, [fp, #-16]
 c106430:	e51b3010 	ldr	r3, [fp, #-16]
 c106434:	e5932000 	ldr	r2, [r3]
 c106438:	e51b3014 	ldr	r3, [fp, #-20]	; 0xffffffec
 c10643c:	e0632002 	rsb	r2, r3, r2
 c106440:	e51b3010 	ldr	r3, [fp, #-16]
 c106444:	e5832000 	str	r2, [r3]
 c106448:	e10f0000 	mrs	r0, CPSR
 c10644c:	e3c0001f 	bic	r0, r0, #31
 c106450:	e3800013 	orr	r0, r0, #19
 c106454:	e121f000 	msr	CPSR_c, r0
 c106458:	e51b201c 	ldr	r2, [fp, #-28]	; 0xffffffe4
 c10645c:	e51b3014 	ldr	r3, [fp, #-20]	; 0xffffffec
 c106460:	e0633002 	rsb	r3, r3, r2
 c106464:	e50b301c 	str	r3, [fp, #-28]	; 0xffffffe4
 c106468:	e51bd01c 	ldr	sp, [fp, #-28]	; 0xffffffe4
 c10646c:	e51b2020 	ldr	r2, [fp, #-32]	; 0xffffffe0
 c106470:	e51b3014 	ldr	r3, [fp, #-20]	; 0xffffffec
 c106474:	e0633002 	rsb	r3, r3, r2
 c106478:	e50b3020 	str	r3, [fp, #-32]	; 0xffffffe0
 c10647c:	e51bb020 	ldr	fp, [fp, #-32]	; 0xffffffe0
 c106480:	e24bd00c 	sub	sp, fp, #12
 c106484:	e89d6800 	ldm	sp, {fp, sp, lr}
 c106488:	e12fff1e 	bx	lr
 c10648c:	0c7ff400 	.word	0x0c7ff400
 c106490:	0c7ff500 	.word	0x0c7ff500
 c106494:	0c7ff300 	.word	0x0c7ff300
 c106498:	0c7ff200 	.word	0x0c7ff200
 c10649c:	0c7ff100 	.word	0x0c7ff100

0c1064a0 <port_init>:
 c1064a0:	e1a0c00d 	mov	ip, sp
 c1064a4:	e92dd800 	push	{fp, ip, lr, pc}
 c1064a8:	e24cb004 	sub	fp, ip, #4
 c1064ac:	e59f31fc 	ldr	r3, [pc, #508]	; c1066b0 <port_init+0x210>
 c1064b0:	e3e02000 	mvn	r2, #0
 c1064b4:	e5832000 	str	r2, [r3]
 c1064b8:	e59f31f4 	ldr	r3, [pc, #500]	; c1066b4 <port_init+0x214>
 c1064bc:	e3a020fe 	mov	r2, #254	; 0xfe
 c1064c0:	e5832000 	str	r2, [r3]
 c1064c4:	e59f31ec 	ldr	r3, [pc, #492]	; c1066b8 <port_init+0x218>
 c1064c8:	e3e02000 	mvn	r2, #0
 c1064cc:	e5832000 	str	r2, [r3]
 c1064d0:	e59f31e4 	ldr	r3, [pc, #484]	; c1066bc <port_init+0x21c>
 c1064d4:	e59f21e4 	ldr	r2, [pc, #484]	; c1066c0 <port_init+0x220>
 c1064d8:	e5832000 	str	r2, [r3]
 c1064dc:	e59f31e0 	ldr	r3, [pc, #480]	; c1066c4 <port_init+0x224>
 c1064e0:	e3e02000 	mvn	r2, #0
 c1064e4:	e5832000 	str	r2, [r3]
 c1064e8:	e59f31d8 	ldr	r3, [pc, #472]	; c1066c8 <port_init+0x228>
 c1064ec:	e59f21d8 	ldr	r2, [pc, #472]	; c1066cc <port_init+0x22c>
 c1064f0:	e5832000 	str	r2, [r3]
 c1064f4:	e59f31d4 	ldr	r3, [pc, #468]	; c1066d0 <port_init+0x230>
 c1064f8:	e3e02000 	mvn	r2, #0
 c1064fc:	e5832000 	str	r2, [r3]
 c106500:	e59f31cc 	ldr	r3, [pc, #460]	; c1066d4 <port_init+0x234>
 c106504:	e3e02000 	mvn	r2, #0
 c106508:	e5832000 	str	r2, [r3]
 c10650c:	e59f31c4 	ldr	r3, [pc, #452]	; c1066d8 <port_init+0x238>
 c106510:	e59f21c4 	ldr	r2, [pc, #452]	; c1066dc <port_init+0x23c>
 c106514:	e5832000 	str	r2, [r3]
 c106518:	e59f31c0 	ldr	r3, [pc, #448]	; c1066e0 <port_init+0x240>
 c10651c:	e3e02000 	mvn	r2, #0
 c106520:	e5832000 	str	r2, [r3]
 c106524:	e59f31b8 	ldr	r3, [pc, #440]	; c1066e4 <port_init+0x244>
 c106528:	e3e02000 	mvn	r2, #0
 c10652c:	e5832000 	str	r2, [r3]
 c106530:	e59f31b0 	ldr	r3, [pc, #432]	; c1066e8 <port_init+0x248>
 c106534:	e59f21b0 	ldr	r2, [pc, #432]	; c1066ec <port_init+0x24c>
 c106538:	e5832000 	str	r2, [r3]
 c10653c:	e59f31ac 	ldr	r3, [pc, #428]	; c1066f0 <port_init+0x250>
 c106540:	e3e02000 	mvn	r2, #0
 c106544:	e5832000 	str	r2, [r3]
 c106548:	e59f31a4 	ldr	r3, [pc, #420]	; c1066f4 <port_init+0x254>
 c10654c:	e3e02000 	mvn	r2, #0
 c106550:	e5832000 	str	r2, [r3]
 c106554:	e59f319c 	ldr	r3, [pc, #412]	; c1066f8 <port_init+0x258>
 c106558:	e59f219c 	ldr	r2, [pc, #412]	; c1066fc <port_init+0x25c>
 c10655c:	e5832000 	str	r2, [r3]
 c106560:	e59f3198 	ldr	r3, [pc, #408]	; c106700 <port_init+0x260>
 c106564:	e3e02000 	mvn	r2, #0
 c106568:	e5832000 	str	r2, [r3]
 c10656c:	e59f3190 	ldr	r3, [pc, #400]	; c106704 <port_init+0x264>
 c106570:	e3e02000 	mvn	r2, #0
 c106574:	e5832000 	str	r2, [r3]
 c106578:	e59f3188 	ldr	r3, [pc, #392]	; c106708 <port_init+0x268>
 c10657c:	e59f2158 	ldr	r2, [pc, #344]	; c1066dc <port_init+0x23c>
 c106580:	e5832000 	str	r2, [r3]
 c106584:	e59f3180 	ldr	r3, [pc, #384]	; c10670c <port_init+0x26c>
 c106588:	e3e02000 	mvn	r2, #0
 c10658c:	e5832000 	str	r2, [r3]
 c106590:	e59f3178 	ldr	r3, [pc, #376]	; c106710 <port_init+0x270>
 c106594:	e3a02007 	mov	r2, #7
 c106598:	e5832000 	str	r2, [r3]
 c10659c:	e59f3170 	ldr	r3, [pc, #368]	; c106714 <port_init+0x274>
 c1065a0:	e59f2170 	ldr	r2, [pc, #368]	; c106718 <port_init+0x278>
 c1065a4:	e5832000 	str	r2, [r3]
 c1065a8:	e59f3100 	ldr	r3, [pc, #256]	; c1066b0 <port_init+0x210>
 c1065ac:	e3e02000 	mvn	r2, #0
 c1065b0:	e5832000 	str	r2, [r3]
 c1065b4:	e59f30f8 	ldr	r3, [pc, #248]	; c1066b4 <port_init+0x214>
 c1065b8:	e3a020fe 	mov	r2, #254	; 0xfe
 c1065bc:	e5832000 	str	r2, [r3]
 c1065c0:	e59f30f0 	ldr	r3, [pc, #240]	; c1066b8 <port_init+0x218>
 c1065c4:	e3e02000 	mvn	r2, #0
 c1065c8:	e5832000 	str	r2, [r3]
 c1065cc:	e59f30e8 	ldr	r3, [pc, #232]	; c1066bc <port_init+0x21c>
 c1065d0:	e59f20e8 	ldr	r2, [pc, #232]	; c1066c0 <port_init+0x220>
 c1065d4:	e5832000 	str	r2, [r3]
 c1065d8:	e59f30e4 	ldr	r3, [pc, #228]	; c1066c4 <port_init+0x224>
 c1065dc:	e3e02000 	mvn	r2, #0
 c1065e0:	e5832000 	str	r2, [r3]
 c1065e4:	e59f30dc 	ldr	r3, [pc, #220]	; c1066c8 <port_init+0x228>
 c1065e8:	e59f212c 	ldr	r2, [pc, #300]	; c10671c <port_init+0x27c>
 c1065ec:	e5832000 	str	r2, [r3]
 c1065f0:	e59f30d8 	ldr	r3, [pc, #216]	; c1066d0 <port_init+0x230>
 c1065f4:	e59f2124 	ldr	r2, [pc, #292]	; c106720 <port_init+0x280>
 c1065f8:	e5832000 	str	r2, [r3]
 c1065fc:	e59f30d0 	ldr	r3, [pc, #208]	; c1066d4 <port_init+0x234>
 c106600:	e3e02000 	mvn	r2, #0
 c106604:	e5832000 	str	r2, [r3]
 c106608:	e59f30c8 	ldr	r3, [pc, #200]	; c1066d8 <port_init+0x238>
 c10660c:	e59f2110 	ldr	r2, [pc, #272]	; c106724 <port_init+0x284>
 c106610:	e5832000 	str	r2, [r3]
 c106614:	e59f30c4 	ldr	r3, [pc, #196]	; c1066e0 <port_init+0x240>
 c106618:	e3a020ff 	mov	r2, #255	; 0xff
 c10661c:	e5832000 	str	r2, [r3]
 c106620:	e59f30bc 	ldr	r3, [pc, #188]	; c1066e4 <port_init+0x244>
 c106624:	e3e02000 	mvn	r2, #0
 c106628:	e5832000 	str	r2, [r3]
 c10662c:	e59f30b4 	ldr	r3, [pc, #180]	; c1066e8 <port_init+0x248>
 c106630:	e59f20f0 	ldr	r2, [pc, #240]	; c106728 <port_init+0x288>
 c106634:	e5832000 	str	r2, [r3]
 c106638:	e59f30b0 	ldr	r3, [pc, #176]	; c1066f0 <port_init+0x250>
 c10663c:	e3a020fb 	mov	r2, #251	; 0xfb
 c106640:	e5832000 	str	r2, [r3]
 c106644:	e59f30a8 	ldr	r3, [pc, #168]	; c1066f4 <port_init+0x254>
 c106648:	e3e02000 	mvn	r2, #0
 c10664c:	e5832000 	str	r2, [r3]
 c106650:	e59f30a0 	ldr	r3, [pc, #160]	; c1066f8 <port_init+0x258>
 c106654:	e59f20d0 	ldr	r2, [pc, #208]	; c10672c <port_init+0x28c>
 c106658:	e5832000 	str	r2, [r3]
 c10665c:	e59f309c 	ldr	r3, [pc, #156]	; c106700 <port_init+0x260>
 c106660:	e3a02074 	mov	r2, #116	; 0x74
 c106664:	e5832000 	str	r2, [r3]
 c106668:	e59f3094 	ldr	r3, [pc, #148]	; c106704 <port_init+0x264>
 c10666c:	e3e02000 	mvn	r2, #0
 c106670:	e5832000 	str	r2, [r3]
 c106674:	e59f308c 	ldr	r3, [pc, #140]	; c106708 <port_init+0x268>
 c106678:	e59f20b0 	ldr	r2, [pc, #176]	; c106730 <port_init+0x290>
 c10667c:	e5832000 	str	r2, [r3]
 c106680:	e59f3084 	ldr	r3, [pc, #132]	; c10670c <port_init+0x26c>
 c106684:	e3a02030 	mov	r2, #48	; 0x30
 c106688:	e5832000 	str	r2, [r3]
 c10668c:	e59f307c 	ldr	r3, [pc, #124]	; c106710 <port_init+0x270>
 c106690:	e3a02007 	mov	r2, #7
 c106694:	e5832000 	str	r2, [r3]
 c106698:	e59f3074 	ldr	r3, [pc, #116]	; c106714 <port_init+0x274>
 c10669c:	e59f2090 	ldr	r2, [pc, #144]	; c106734 <port_init+0x294>
 c1066a0:	e5832000 	str	r2, [r3]
 c1066a4:	e24bd00c 	sub	sp, fp, #12
 c1066a8:	e89d6800 	ldm	sp, {fp, sp, lr}
 c1066ac:	e12fff1e 	bx	lr
 c1066b0:	01d20004 	.word	0x01d20004
 c1066b4:	01d20000 	.word	0x01d20000
 c1066b8:	01d2000c 	.word	0x01d2000c
 c1066bc:	01d20008 	.word	0x01d20008
 c1066c0:	0000014f 	.word	0x0000014f
 c1066c4:	01d20014 	.word	0x01d20014
 c1066c8:	01d20010 	.word	0x01d20010
 c1066cc:	55555555 	.word	0x55555555
 c1066d0:	01d20018 	.word	0x01d20018
 c1066d4:	01d20020 	.word	0x01d20020
 c1066d8:	01d2001c 	.word	0x01d2001c
 c1066dc:	00005555 	.word	0x00005555
 c1066e0:	01d20024 	.word	0x01d20024
 c1066e4:	01d2002c 	.word	0x01d2002c
 c1066e8:	01d20028 	.word	0x01d20028
 c1066ec:	00015555 	.word	0x00015555
 c1066f0:	01d20030 	.word	0x01d20030
 c1066f4:	01d20038 	.word	0x01d20038
 c1066f8:	01d20034 	.word	0x01d20034
 c1066fc:	00002555 	.word	0x00002555
 c106700:	01d2003c 	.word	0x01d2003c
 c106704:	01d20044 	.word	0x01d20044
 c106708:	01d20040 	.word	0x01d20040
 c10670c:	01d20048 	.word	0x01d20048
 c106710:	01d2004c 	.word	0x01d2004c
 c106714:	01d20050 	.word	0x01d20050
 c106718:	22222222 	.word	0x22222222
 c10671c:	5ff555ff 	.word	0x5ff555ff
 c106720:	000094fb 	.word	0x000094fb
 c106724:	0000aaaa 	.word	0x0000aaaa
 c106728:	000255a9 	.word	0x000255a9
 c10672c:	0000251a 	.word	0x0000251a
 c106730:	0000f5ff 	.word	0x0000f5ff
 c106734:	22000220 	.word	0x22000220

0c106738 <install_dummy_isr>:
 c106738:	e1a0c00d 	mov	ip, sp
 c10673c:	e92dd800 	push	{fp, ip, lr, pc}
 c106740:	e24cb004 	sub	fp, ip, #4
 c106744:	e59f3184 	ldr	r3, [pc, #388]	; c1068d0 <install_dummy_isr+0x198>
 c106748:	e59f2184 	ldr	r2, [pc, #388]	; c1068d4 <install_dummy_isr+0x19c>
 c10674c:	e5832000 	str	r2, [r3]
 c106750:	e59f3180 	ldr	r3, [pc, #384]	; c1068d8 <install_dummy_isr+0x1a0>
 c106754:	e59f2180 	ldr	r2, [pc, #384]	; c1068dc <install_dummy_isr+0x1a4>
 c106758:	e5832000 	str	r2, [r3]
 c10675c:	e59f317c 	ldr	r3, [pc, #380]	; c1068e0 <install_dummy_isr+0x1a8>
 c106760:	e59f217c 	ldr	r2, [pc, #380]	; c1068e4 <install_dummy_isr+0x1ac>
 c106764:	e5832000 	str	r2, [r3]
 c106768:	e59f3178 	ldr	r3, [pc, #376]	; c1068e8 <install_dummy_isr+0x1b0>
 c10676c:	e59f2178 	ldr	r2, [pc, #376]	; c1068ec <install_dummy_isr+0x1b4>
 c106770:	e5832000 	str	r2, [r3]
 c106774:	e59f3174 	ldr	r3, [pc, #372]	; c1068f0 <install_dummy_isr+0x1b8>
 c106778:	e59f2174 	ldr	r2, [pc, #372]	; c1068f4 <install_dummy_isr+0x1bc>
 c10677c:	e5832000 	str	r2, [r3]
 c106780:	e59f3170 	ldr	r3, [pc, #368]	; c1068f8 <install_dummy_isr+0x1c0>
 c106784:	e59f2170 	ldr	r2, [pc, #368]	; c1068fc <install_dummy_isr+0x1c4>
 c106788:	e5832000 	str	r2, [r3]
 c10678c:	e59f316c 	ldr	r3, [pc, #364]	; c106900 <install_dummy_isr+0x1c8>
 c106790:	e59f216c 	ldr	r2, [pc, #364]	; c106904 <install_dummy_isr+0x1cc>
 c106794:	e5832000 	str	r2, [r3]
 c106798:	e59f3168 	ldr	r3, [pc, #360]	; c106908 <install_dummy_isr+0x1d0>
 c10679c:	e59f2168 	ldr	r2, [pc, #360]	; c10690c <install_dummy_isr+0x1d4>
 c1067a0:	e5832000 	str	r2, [r3]
 c1067a4:	e59f3164 	ldr	r3, [pc, #356]	; c106910 <install_dummy_isr+0x1d8>
 c1067a8:	e59f2164 	ldr	r2, [pc, #356]	; c106914 <install_dummy_isr+0x1dc>
 c1067ac:	e5832000 	str	r2, [r3]
 c1067b0:	e59f3160 	ldr	r3, [pc, #352]	; c106918 <install_dummy_isr+0x1e0>
 c1067b4:	e59f2160 	ldr	r2, [pc, #352]	; c10691c <install_dummy_isr+0x1e4>
 c1067b8:	e5832000 	str	r2, [r3]
 c1067bc:	e59f315c 	ldr	r3, [pc, #348]	; c106920 <install_dummy_isr+0x1e8>
 c1067c0:	e59f215c 	ldr	r2, [pc, #348]	; c106924 <install_dummy_isr+0x1ec>
 c1067c4:	e5832000 	str	r2, [r3]
 c1067c8:	e59f3158 	ldr	r3, [pc, #344]	; c106928 <install_dummy_isr+0x1f0>
 c1067cc:	e59f2158 	ldr	r2, [pc, #344]	; c10692c <install_dummy_isr+0x1f4>
 c1067d0:	e5832000 	str	r2, [r3]
 c1067d4:	e59f3154 	ldr	r3, [pc, #340]	; c106930 <install_dummy_isr+0x1f8>
 c1067d8:	e59f2154 	ldr	r2, [pc, #340]	; c106934 <install_dummy_isr+0x1fc>
 c1067dc:	e5832000 	str	r2, [r3]
 c1067e0:	e59f3150 	ldr	r3, [pc, #336]	; c106938 <install_dummy_isr+0x200>
 c1067e4:	e59f2150 	ldr	r2, [pc, #336]	; c10693c <install_dummy_isr+0x204>
 c1067e8:	e5832000 	str	r2, [r3]
 c1067ec:	e59f314c 	ldr	r3, [pc, #332]	; c106940 <install_dummy_isr+0x208>
 c1067f0:	e59f214c 	ldr	r2, [pc, #332]	; c106944 <install_dummy_isr+0x20c>
 c1067f4:	e5832000 	str	r2, [r3]
 c1067f8:	e59f3148 	ldr	r3, [pc, #328]	; c106948 <install_dummy_isr+0x210>
 c1067fc:	e59f2148 	ldr	r2, [pc, #328]	; c10694c <install_dummy_isr+0x214>
 c106800:	e5832000 	str	r2, [r3]
 c106804:	e59f3144 	ldr	r3, [pc, #324]	; c106950 <install_dummy_isr+0x218>
 c106808:	e59f2144 	ldr	r2, [pc, #324]	; c106954 <install_dummy_isr+0x21c>
 c10680c:	e5832000 	str	r2, [r3]
 c106810:	e59f3140 	ldr	r3, [pc, #320]	; c106958 <install_dummy_isr+0x220>
 c106814:	e59f2140 	ldr	r2, [pc, #320]	; c10695c <install_dummy_isr+0x224>
 c106818:	e5832000 	str	r2, [r3]
 c10681c:	e59f313c 	ldr	r3, [pc, #316]	; c106960 <install_dummy_isr+0x228>
 c106820:	e59f213c 	ldr	r2, [pc, #316]	; c106964 <install_dummy_isr+0x22c>
 c106824:	e5832000 	str	r2, [r3]
 c106828:	e59f3138 	ldr	r3, [pc, #312]	; c106968 <install_dummy_isr+0x230>
 c10682c:	e59f2138 	ldr	r2, [pc, #312]	; c10696c <install_dummy_isr+0x234>
 c106830:	e5832000 	str	r2, [r3]
 c106834:	e59f3134 	ldr	r3, [pc, #308]	; c106970 <install_dummy_isr+0x238>
 c106838:	e59f2134 	ldr	r2, [pc, #308]	; c106974 <install_dummy_isr+0x23c>
 c10683c:	e5832000 	str	r2, [r3]
 c106840:	e59f3130 	ldr	r3, [pc, #304]	; c106978 <install_dummy_isr+0x240>
 c106844:	e59f2130 	ldr	r2, [pc, #304]	; c10697c <install_dummy_isr+0x244>
 c106848:	e5832000 	str	r2, [r3]
 c10684c:	e59f312c 	ldr	r3, [pc, #300]	; c106980 <install_dummy_isr+0x248>
 c106850:	e59f212c 	ldr	r2, [pc, #300]	; c106984 <install_dummy_isr+0x24c>
 c106854:	e5832000 	str	r2, [r3]
 c106858:	e59f3128 	ldr	r3, [pc, #296]	; c106988 <install_dummy_isr+0x250>
 c10685c:	e59f2128 	ldr	r2, [pc, #296]	; c10698c <install_dummy_isr+0x254>
 c106860:	e5832000 	str	r2, [r3]
 c106864:	e59f3124 	ldr	r3, [pc, #292]	; c106990 <install_dummy_isr+0x258>
 c106868:	e59f2124 	ldr	r2, [pc, #292]	; c106994 <install_dummy_isr+0x25c>
 c10686c:	e5832000 	str	r2, [r3]
 c106870:	e59f3120 	ldr	r3, [pc, #288]	; c106998 <install_dummy_isr+0x260>
 c106874:	e59f2120 	ldr	r2, [pc, #288]	; c10699c <install_dummy_isr+0x264>
 c106878:	e5832000 	str	r2, [r3]
 c10687c:	e59f311c 	ldr	r3, [pc, #284]	; c1069a0 <install_dummy_isr+0x268>
 c106880:	e59f211c 	ldr	r2, [pc, #284]	; c1069a4 <install_dummy_isr+0x26c>
 c106884:	e5832000 	str	r2, [r3]
 c106888:	e59f3118 	ldr	r3, [pc, #280]	; c1069a8 <install_dummy_isr+0x270>
 c10688c:	e59f2118 	ldr	r2, [pc, #280]	; c1069ac <install_dummy_isr+0x274>
 c106890:	e5832000 	str	r2, [r3]
 c106894:	e59f3114 	ldr	r3, [pc, #276]	; c1069b0 <install_dummy_isr+0x278>
 c106898:	e59f2114 	ldr	r2, [pc, #276]	; c1069b4 <install_dummy_isr+0x27c>
 c10689c:	e5832000 	str	r2, [r3]
 c1068a0:	e59f3110 	ldr	r3, [pc, #272]	; c1069b8 <install_dummy_isr+0x280>
 c1068a4:	e59f2110 	ldr	r2, [pc, #272]	; c1069bc <install_dummy_isr+0x284>
 c1068a8:	e5832000 	str	r2, [r3]
 c1068ac:	e59f310c 	ldr	r3, [pc, #268]	; c1069c0 <install_dummy_isr+0x288>
 c1068b0:	e59f210c 	ldr	r2, [pc, #268]	; c1069c4 <install_dummy_isr+0x28c>
 c1068b4:	e5832000 	str	r2, [r3]
 c1068b8:	e59f3108 	ldr	r3, [pc, #264]	; c1069c8 <install_dummy_isr+0x290>
 c1068bc:	e59f2108 	ldr	r2, [pc, #264]	; c1069cc <install_dummy_isr+0x294>
 c1068c0:	e5832000 	str	r2, [r3]
 c1068c4:	e24bd00c 	sub	sp, fp, #12
 c1068c8:	e89d6800 	ldm	sp, {fp, sp, lr}
 c1068cc:	e12fff1e 	bx	lr
 c1068d0:	0c7fff08 	.word	0x0c7fff08
 c1068d4:	0c1069d0 	.word	0x0c1069d0
 c1068d8:	0c7fff04 	.word	0x0c7fff04
 c1068dc:	0c106a10 	.word	0x0c106a10
 c1068e0:	0c7fff18 	.word	0x0c7fff18
 c1068e4:	0c106a50 	.word	0x0c106a50
 c1068e8:	0c7fff1c 	.word	0x0c7fff1c
 c1068ec:	0c106a98 	.word	0x0c106a98
 c1068f0:	0c7fff0c 	.word	0x0c7fff0c
 c1068f4:	0c106ae0 	.word	0x0c106ae0
 c1068f8:	0c7fff10 	.word	0x0c7fff10
 c1068fc:	0c106b28 	.word	0x0c106b28
 c106900:	0c7fff20 	.word	0x0c7fff20
 c106904:	0c106b70 	.word	0x0c106b70
 c106908:	0c7fff24 	.word	0x0c7fff24
 c10690c:	0c106bb8 	.word	0x0c106bb8
 c106910:	0c7fff28 	.word	0x0c7fff28
 c106914:	0c106c00 	.word	0x0c106c00
 c106918:	0c7fff2c 	.word	0x0c7fff2c
 c10691c:	0c106c48 	.word	0x0c106c48
 c106920:	0c7fff30 	.word	0x0c7fff30
 c106924:	0c106c90 	.word	0x0c106c90
 c106928:	0c7fff34 	.word	0x0c7fff34
 c10692c:	0c106cd8 	.word	0x0c106cd8
 c106930:	0c7fff38 	.word	0x0c7fff38
 c106934:	0c106d20 	.word	0x0c106d20
 c106938:	0c7fff3c 	.word	0x0c7fff3c
 c10693c:	0c106d68 	.word	0x0c106d68
 c106940:	0c7fff40 	.word	0x0c7fff40
 c106944:	0c106db0 	.word	0x0c106db0
 c106948:	0c7fff44 	.word	0x0c7fff44
 c10694c:	0c106df8 	.word	0x0c106df8
 c106950:	0c7fff48 	.word	0x0c7fff48
 c106954:	0c106e40 	.word	0x0c106e40
 c106958:	0c7fff4c 	.word	0x0c7fff4c
 c10695c:	0c106e88 	.word	0x0c106e88
 c106960:	0c7fff50 	.word	0x0c7fff50
 c106964:	0c106ed0 	.word	0x0c106ed0
 c106968:	0c7fff54 	.word	0x0c7fff54
 c10696c:	0c106f18 	.word	0x0c106f18
 c106970:	0c7fff58 	.word	0x0c7fff58
 c106974:	0c106f60 	.word	0x0c106f60
 c106978:	0c7fff5c 	.word	0x0c7fff5c
 c10697c:	0c106fa8 	.word	0x0c106fa8
 c106980:	0c7fff60 	.word	0x0c7fff60
 c106984:	0c106ff0 	.word	0x0c106ff0
 c106988:	0c7fff64 	.word	0x0c7fff64
 c10698c:	0c107038 	.word	0x0c107038
 c106990:	0c7fff68 	.word	0x0c7fff68
 c106994:	0c107080 	.word	0x0c107080
 c106998:	0c7fff6c 	.word	0x0c7fff6c
 c10699c:	0c1070c8 	.word	0x0c1070c8
 c1069a0:	0c7fff70 	.word	0x0c7fff70
 c1069a4:	0c107110 	.word	0x0c107110
 c1069a8:	0c7fff74 	.word	0x0c7fff74
 c1069ac:	0c107158 	.word	0x0c107158
 c1069b0:	0c7fff78 	.word	0x0c7fff78
 c1069b4:	0c1071a0 	.word	0x0c1071a0
 c1069b8:	0c7fff7c 	.word	0x0c7fff7c
 c1069bc:	0c1071e8 	.word	0x0c1071e8
 c1069c0:	0c7fff80 	.word	0x0c7fff80
 c1069c4:	0c107230 	.word	0x0c107230
 c1069c8:	0c7fff84 	.word	0x0c7fff84
 c1069cc:	0c107278 	.word	0x0c107278

0c1069d0 <isr_SWI_dummy>:
 c1069d0:	e52dc004 	push	{ip}		; (str ip, [sp, #-4]!)
 c1069d4:	e1a0c00d 	mov	ip, sp
 c1069d8:	e92dd81f 	push	{r0, r1, r2, r3, r4, fp, ip, lr, pc}
 c1069dc:	e24cb004 	sub	fp, ip, #4
 c1069e0:	e24dd00c 	sub	sp, sp, #12
 c1069e4:	e1a0400e 	mov	r4, lr
 c1069e8:	e50b4028 	str	r4, [fp, #-40]	; 0xffffffd8
 c1069ec:	e3a00000 	mov	r0, #0
 c1069f0:	e59f1014 	ldr	r1, [pc, #20]	; c106a0c <isr_SWI_dummy+0x3c>
 c1069f4:	e51b2028 	ldr	r2, [fp, #-40]	; 0xffffffd8
 c1069f8:	eb000378 	bl	c1077e0 <fatalerror>
 c1069fc:	e24bd020 	sub	sp, fp, #32
 c106a00:	e89d681f 	ldm	sp, {r0, r1, r2, r3, r4, fp, sp, lr}
 c106a04:	e49dc004 	pop	{ip}		; (ldr ip, [sp], #4)
 c106a08:	e1b0f00e 	movs	pc, lr
 c106a0c:	0c10a928 	.word	0x0c10a928

0c106a10 <isr_UNDEF_dummy>:
 c106a10:	e52dc004 	push	{ip}		; (str ip, [sp, #-4]!)
 c106a14:	e1a0c00d 	mov	ip, sp
 c106a18:	e92dd81f 	push	{r0, r1, r2, r3, r4, fp, ip, lr, pc}
 c106a1c:	e24cb004 	sub	fp, ip, #4
 c106a20:	e24dd00c 	sub	sp, sp, #12
 c106a24:	e1a0400e 	mov	r4, lr
 c106a28:	e50b4028 	str	r4, [fp, #-40]	; 0xffffffd8
 c106a2c:	e3a00001 	mov	r0, #1
 c106a30:	e59f1014 	ldr	r1, [pc, #20]	; c106a4c <isr_UNDEF_dummy+0x3c>
 c106a34:	e51b2028 	ldr	r2, [fp, #-40]	; 0xffffffd8
 c106a38:	eb000368 	bl	c1077e0 <fatalerror>
 c106a3c:	e24bd020 	sub	sp, fp, #32
 c106a40:	e89d681f 	ldm	sp, {r0, r1, r2, r3, r4, fp, sp, lr}
 c106a44:	e49dc004 	pop	{ip}		; (ldr ip, [sp], #4)
 c106a48:	e1b0f00e 	movs	pc, lr
 c106a4c:	0c10a944 	.word	0x0c10a944

0c106a50 <isr_IRQ_dummy>:
 c106a50:	e52dc004 	push	{ip}		; (str ip, [sp, #-4]!)
 c106a54:	e1a0c00d 	mov	ip, sp
 c106a58:	e92dd81f 	push	{r0, r1, r2, r3, r4, fp, ip, lr, pc}
 c106a5c:	e24cb004 	sub	fp, ip, #4
 c106a60:	e24dd00c 	sub	sp, sp, #12
 c106a64:	e1a0400e 	mov	r4, lr
 c106a68:	e50b4028 	str	r4, [fp, #-40]	; 0xffffffd8
 c106a6c:	e51b3028 	ldr	r3, [fp, #-40]	; 0xffffffd8
 c106a70:	e2433004 	sub	r3, r3, #4
 c106a74:	e3a00002 	mov	r0, #2
 c106a78:	e59f1014 	ldr	r1, [pc, #20]	; c106a94 <isr_IRQ_dummy+0x44>
 c106a7c:	e1a02003 	mov	r2, r3
 c106a80:	eb000356 	bl	c1077e0 <fatalerror>
 c106a84:	e24bd020 	sub	sp, fp, #32
 c106a88:	e89d681f 	ldm	sp, {r0, r1, r2, r3, r4, fp, sp, lr}
 c106a8c:	e49dc004 	pop	{ip}		; (ldr ip, [sp], #4)
 c106a90:	e25ef004 	subs	pc, lr, #4
 c106a94:	0c10a960 	.word	0x0c10a960

0c106a98 <isr_FIQ_dummy>:
 c106a98:	e52dc004 	push	{ip}		; (str ip, [sp, #-4]!)
 c106a9c:	e1a0c00d 	mov	ip, sp
 c106aa0:	e92dd81f 	push	{r0, r1, r2, r3, r4, fp, ip, lr, pc}
 c106aa4:	e24cb004 	sub	fp, ip, #4
 c106aa8:	e24dd00c 	sub	sp, sp, #12
 c106aac:	e1a0400e 	mov	r4, lr
 c106ab0:	e50b4028 	str	r4, [fp, #-40]	; 0xffffffd8
 c106ab4:	e51b3028 	ldr	r3, [fp, #-40]	; 0xffffffd8
 c106ab8:	e2433004 	sub	r3, r3, #4
 c106abc:	e3a00003 	mov	r0, #3
 c106ac0:	e59f1014 	ldr	r1, [pc, #20]	; c106adc <isr_FIQ_dummy+0x44>
 c106ac4:	e1a02003 	mov	r2, r3
 c106ac8:	eb000344 	bl	c1077e0 <fatalerror>
 c106acc:	e24bd020 	sub	sp, fp, #32
 c106ad0:	e89d681f 	ldm	sp, {r0, r1, r2, r3, r4, fp, sp, lr}
 c106ad4:	e49dc004 	pop	{ip}		; (ldr ip, [sp], #4)
 c106ad8:	e25ef004 	subs	pc, lr, #4
 c106adc:	0c10a97c 	.word	0x0c10a97c

0c106ae0 <isr_PABORT_dummy>:
 c106ae0:	e52dc004 	push	{ip}		; (str ip, [sp, #-4]!)
 c106ae4:	e1a0c00d 	mov	ip, sp
 c106ae8:	e92dd81f 	push	{r0, r1, r2, r3, r4, fp, ip, lr, pc}
 c106aec:	e24cb004 	sub	fp, ip, #4
 c106af0:	e24dd00c 	sub	sp, sp, #12
 c106af4:	e1a0400e 	mov	r4, lr
 c106af8:	e50b4028 	str	r4, [fp, #-40]	; 0xffffffd8
 c106afc:	e51b3028 	ldr	r3, [fp, #-40]	; 0xffffffd8
 c106b00:	e2433004 	sub	r3, r3, #4
 c106b04:	e3a00004 	mov	r0, #4
 c106b08:	e59f1014 	ldr	r1, [pc, #20]	; c106b24 <isr_PABORT_dummy+0x44>
 c106b0c:	e1a02003 	mov	r2, r3
 c106b10:	eb000332 	bl	c1077e0 <fatalerror>
 c106b14:	e24bd020 	sub	sp, fp, #32
 c106b18:	e89d681f 	ldm	sp, {r0, r1, r2, r3, r4, fp, sp, lr}
 c106b1c:	e49dc004 	pop	{ip}		; (ldr ip, [sp], #4)
 c106b20:	e25ef004 	subs	pc, lr, #4
 c106b24:	0c10a998 	.word	0x0c10a998

0c106b28 <isr_DABORT_dummy>:
 c106b28:	e52dc004 	push	{ip}		; (str ip, [sp, #-4]!)
 c106b2c:	e1a0c00d 	mov	ip, sp
 c106b30:	e92dd81f 	push	{r0, r1, r2, r3, r4, fp, ip, lr, pc}
 c106b34:	e24cb004 	sub	fp, ip, #4
 c106b38:	e24dd00c 	sub	sp, sp, #12
 c106b3c:	e1a0400e 	mov	r4, lr
 c106b40:	e50b4028 	str	r4, [fp, #-40]	; 0xffffffd8
 c106b44:	e51b3028 	ldr	r3, [fp, #-40]	; 0xffffffd8
 c106b48:	e2433008 	sub	r3, r3, #8
 c106b4c:	e3a00005 	mov	r0, #5
 c106b50:	e59f1014 	ldr	r1, [pc, #20]	; c106b6c <isr_DABORT_dummy+0x44>
 c106b54:	e1a02003 	mov	r2, r3
 c106b58:	eb000320 	bl	c1077e0 <fatalerror>
 c106b5c:	e24bd020 	sub	sp, fp, #32
 c106b60:	e89d681f 	ldm	sp, {r0, r1, r2, r3, r4, fp, sp, lr}
 c106b64:	e49dc004 	pop	{ip}		; (ldr ip, [sp], #4)
 c106b68:	e25ef004 	subs	pc, lr, #4
 c106b6c:	0c10a9b4 	.word	0x0c10a9b4

0c106b70 <isr_ADC_dummy>:
 c106b70:	e52dc004 	push	{ip}		; (str ip, [sp, #-4]!)
 c106b74:	e1a0c00d 	mov	ip, sp
 c106b78:	e92dd81f 	push	{r0, r1, r2, r3, r4, fp, ip, lr, pc}
 c106b7c:	e24cb004 	sub	fp, ip, #4
 c106b80:	e24dd00c 	sub	sp, sp, #12
 c106b84:	e1a0400e 	mov	r4, lr
 c106b88:	e50b4028 	str	r4, [fp, #-40]	; 0xffffffd8
 c106b8c:	e51b3028 	ldr	r3, [fp, #-40]	; 0xffffffd8
 c106b90:	e2433004 	sub	r3, r3, #4
 c106b94:	e3a0000b 	mov	r0, #11
 c106b98:	e59f1014 	ldr	r1, [pc, #20]	; c106bb4 <isr_ADC_dummy+0x44>
 c106b9c:	e1a02003 	mov	r2, r3
 c106ba0:	eb00030e 	bl	c1077e0 <fatalerror>
 c106ba4:	e24bd020 	sub	sp, fp, #32
 c106ba8:	e89d681f 	ldm	sp, {r0, r1, r2, r3, r4, fp, sp, lr}
 c106bac:	e49dc004 	pop	{ip}		; (ldr ip, [sp], #4)
 c106bb0:	e25ef004 	subs	pc, lr, #4
 c106bb4:	0c10a9d0 	.word	0x0c10a9d0

0c106bb8 <isr_RTC_dummy>:
 c106bb8:	e52dc004 	push	{ip}		; (str ip, [sp, #-4]!)
 c106bbc:	e1a0c00d 	mov	ip, sp
 c106bc0:	e92dd81f 	push	{r0, r1, r2, r3, r4, fp, ip, lr, pc}
 c106bc4:	e24cb004 	sub	fp, ip, #4
 c106bc8:	e24dd00c 	sub	sp, sp, #12
 c106bcc:	e1a0400e 	mov	r4, lr
 c106bd0:	e50b4028 	str	r4, [fp, #-40]	; 0xffffffd8
 c106bd4:	e51b3028 	ldr	r3, [fp, #-40]	; 0xffffffd8
 c106bd8:	e2433004 	sub	r3, r3, #4
 c106bdc:	e3a0000a 	mov	r0, #10
 c106be0:	e59f1014 	ldr	r1, [pc, #20]	; c106bfc <isr_RTC_dummy+0x44>
 c106be4:	e1a02003 	mov	r2, r3
 c106be8:	eb0002fc 	bl	c1077e0 <fatalerror>
 c106bec:	e24bd020 	sub	sp, fp, #32
 c106bf0:	e89d681f 	ldm	sp, {r0, r1, r2, r3, r4, fp, sp, lr}
 c106bf4:	e49dc004 	pop	{ip}		; (ldr ip, [sp], #4)
 c106bf8:	e25ef004 	subs	pc, lr, #4
 c106bfc:	0c10a9ec 	.word	0x0c10a9ec

0c106c00 <isr_UTXD1_dummy>:
 c106c00:	e52dc004 	push	{ip}		; (str ip, [sp, #-4]!)
 c106c04:	e1a0c00d 	mov	ip, sp
 c106c08:	e92dd81f 	push	{r0, r1, r2, r3, r4, fp, ip, lr, pc}
 c106c0c:	e24cb004 	sub	fp, ip, #4
 c106c10:	e24dd00c 	sub	sp, sp, #12
 c106c14:	e1a0400e 	mov	r4, lr
 c106c18:	e50b4028 	str	r4, [fp, #-40]	; 0xffffffd8
 c106c1c:	e51b3028 	ldr	r3, [fp, #-40]	; 0xffffffd8
 c106c20:	e2433004 	sub	r3, r3, #4
 c106c24:	e3a0000c 	mov	r0, #12
 c106c28:	e59f1014 	ldr	r1, [pc, #20]	; c106c44 <isr_UTXD1_dummy+0x44>
 c106c2c:	e1a02003 	mov	r2, r3
 c106c30:	eb0002ea 	bl	c1077e0 <fatalerror>
 c106c34:	e24bd020 	sub	sp, fp, #32
 c106c38:	e89d681f 	ldm	sp, {r0, r1, r2, r3, r4, fp, sp, lr}
 c106c3c:	e49dc004 	pop	{ip}		; (ldr ip, [sp], #4)
 c106c40:	e25ef004 	subs	pc, lr, #4
 c106c44:	0c10aa08 	.word	0x0c10aa08

0c106c48 <isr_UTXD0_dummy>:
 c106c48:	e52dc004 	push	{ip}		; (str ip, [sp, #-4]!)
 c106c4c:	e1a0c00d 	mov	ip, sp
 c106c50:	e92dd81f 	push	{r0, r1, r2, r3, r4, fp, ip, lr, pc}
 c106c54:	e24cb004 	sub	fp, ip, #4
 c106c58:	e24dd00c 	sub	sp, sp, #12
 c106c5c:	e1a0400e 	mov	r4, lr
 c106c60:	e50b4028 	str	r4, [fp, #-40]	; 0xffffffd8
 c106c64:	e51b3028 	ldr	r3, [fp, #-40]	; 0xffffffd8
 c106c68:	e2433004 	sub	r3, r3, #4
 c106c6c:	e3a00009 	mov	r0, #9
 c106c70:	e59f1014 	ldr	r1, [pc, #20]	; c106c8c <isr_UTXD0_dummy+0x44>
 c106c74:	e1a02003 	mov	r2, r3
 c106c78:	eb0002d8 	bl	c1077e0 <fatalerror>
 c106c7c:	e24bd020 	sub	sp, fp, #32
 c106c80:	e89d681f 	ldm	sp, {r0, r1, r2, r3, r4, fp, sp, lr}
 c106c84:	e49dc004 	pop	{ip}		; (ldr ip, [sp], #4)
 c106c88:	e25ef004 	subs	pc, lr, #4
 c106c8c:	0c10aa24 	.word	0x0c10aa24

0c106c90 <isr_SIO_dummy>:
 c106c90:	e52dc004 	push	{ip}		; (str ip, [sp, #-4]!)
 c106c94:	e1a0c00d 	mov	ip, sp
 c106c98:	e92dd81f 	push	{r0, r1, r2, r3, r4, fp, ip, lr, pc}
 c106c9c:	e24cb004 	sub	fp, ip, #4
 c106ca0:	e24dd00c 	sub	sp, sp, #12
 c106ca4:	e1a0400e 	mov	r4, lr
 c106ca8:	e50b4028 	str	r4, [fp, #-40]	; 0xffffffd8
 c106cac:	e51b3028 	ldr	r3, [fp, #-40]	; 0xffffffd8
 c106cb0:	e2433004 	sub	r3, r3, #4
 c106cb4:	e3a0000f 	mov	r0, #15
 c106cb8:	e59f1014 	ldr	r1, [pc, #20]	; c106cd4 <isr_SIO_dummy+0x44>
 c106cbc:	e1a02003 	mov	r2, r3
 c106cc0:	eb0002c6 	bl	c1077e0 <fatalerror>
 c106cc4:	e24bd020 	sub	sp, fp, #32
 c106cc8:	e89d681f 	ldm	sp, {r0, r1, r2, r3, r4, fp, sp, lr}
 c106ccc:	e49dc004 	pop	{ip}		; (ldr ip, [sp], #4)
 c106cd0:	e25ef004 	subs	pc, lr, #4
 c106cd4:	0c10aa40 	.word	0x0c10aa40

0c106cd8 <isr_IIC_dummy>:
 c106cd8:	e52dc004 	push	{ip}		; (str ip, [sp, #-4]!)
 c106cdc:	e1a0c00d 	mov	ip, sp
 c106ce0:	e92dd81f 	push	{r0, r1, r2, r3, r4, fp, ip, lr, pc}
 c106ce4:	e24cb004 	sub	fp, ip, #4
 c106ce8:	e24dd00c 	sub	sp, sp, #12
 c106cec:	e1a0400e 	mov	r4, lr
 c106cf0:	e50b4028 	str	r4, [fp, #-40]	; 0xffffffd8
 c106cf4:	e51b3028 	ldr	r3, [fp, #-40]	; 0xffffffd8
 c106cf8:	e2433004 	sub	r3, r3, #4
 c106cfc:	e3a0000c 	mov	r0, #12
 c106d00:	e59f1014 	ldr	r1, [pc, #20]	; c106d1c <isr_IIC_dummy+0x44>
 c106d04:	e1a02003 	mov	r2, r3
 c106d08:	eb0002b4 	bl	c1077e0 <fatalerror>
 c106d0c:	e24bd020 	sub	sp, fp, #32
 c106d10:	e89d681f 	ldm	sp, {r0, r1, r2, r3, r4, fp, sp, lr}
 c106d14:	e49dc004 	pop	{ip}		; (ldr ip, [sp], #4)
 c106d18:	e25ef004 	subs	pc, lr, #4
 c106d1c:	0c10aa5c 	.word	0x0c10aa5c

0c106d20 <isr_URXD1_dummy>:
 c106d20:	e52dc004 	push	{ip}		; (str ip, [sp, #-4]!)
 c106d24:	e1a0c00d 	mov	ip, sp
 c106d28:	e92dd81f 	push	{r0, r1, r2, r3, r4, fp, ip, lr, pc}
 c106d2c:	e24cb004 	sub	fp, ip, #4
 c106d30:	e24dd00c 	sub	sp, sp, #12
 c106d34:	e1a0400e 	mov	r4, lr
 c106d38:	e50b4028 	str	r4, [fp, #-40]	; 0xffffffd8
 c106d3c:	e51b3028 	ldr	r3, [fp, #-40]	; 0xffffffd8
 c106d40:	e2433004 	sub	r3, r3, #4
 c106d44:	e3a0000c 	mov	r0, #12
 c106d48:	e59f1014 	ldr	r1, [pc, #20]	; c106d64 <isr_URXD1_dummy+0x44>
 c106d4c:	e1a02003 	mov	r2, r3
 c106d50:	eb0002a2 	bl	c1077e0 <fatalerror>
 c106d54:	e24bd020 	sub	sp, fp, #32
 c106d58:	e89d681f 	ldm	sp, {r0, r1, r2, r3, r4, fp, sp, lr}
 c106d5c:	e49dc004 	pop	{ip}		; (ldr ip, [sp], #4)
 c106d60:	e25ef004 	subs	pc, lr, #4
 c106d64:	0c10aa78 	.word	0x0c10aa78

0c106d68 <isr_URXD0_dummy>:
 c106d68:	e52dc004 	push	{ip}		; (str ip, [sp, #-4]!)
 c106d6c:	e1a0c00d 	mov	ip, sp
 c106d70:	e92dd81f 	push	{r0, r1, r2, r3, r4, fp, ip, lr, pc}
 c106d74:	e24cb004 	sub	fp, ip, #4
 c106d78:	e24dd00c 	sub	sp, sp, #12
 c106d7c:	e1a0400e 	mov	r4, lr
 c106d80:	e50b4028 	str	r4, [fp, #-40]	; 0xffffffd8
 c106d84:	e51b3028 	ldr	r3, [fp, #-40]	; 0xffffffd8
 c106d88:	e2433004 	sub	r3, r3, #4
 c106d8c:	e3a00008 	mov	r0, #8
 c106d90:	e59f1014 	ldr	r1, [pc, #20]	; c106dac <isr_URXD0_dummy+0x44>
 c106d94:	e1a02003 	mov	r2, r3
 c106d98:	eb000290 	bl	c1077e0 <fatalerror>
 c106d9c:	e24bd020 	sub	sp, fp, #32
 c106da0:	e89d681f 	ldm	sp, {r0, r1, r2, r3, r4, fp, sp, lr}
 c106da4:	e49dc004 	pop	{ip}		; (ldr ip, [sp], #4)
 c106da8:	e25ef004 	subs	pc, lr, #4
 c106dac:	0c10aa94 	.word	0x0c10aa94

0c106db0 <isr_TIMER5_dummy>:
 c106db0:	e52dc004 	push	{ip}		; (str ip, [sp, #-4]!)
 c106db4:	e1a0c00d 	mov	ip, sp
 c106db8:	e92dd81f 	push	{r0, r1, r2, r3, r4, fp, ip, lr, pc}
 c106dbc:	e24cb004 	sub	fp, ip, #4
 c106dc0:	e24dd00c 	sub	sp, sp, #12
 c106dc4:	e1a0400e 	mov	r4, lr
 c106dc8:	e50b4028 	str	r4, [fp, #-40]	; 0xffffffd8
 c106dcc:	e51b3028 	ldr	r3, [fp, #-40]	; 0xffffffd8
 c106dd0:	e2433004 	sub	r3, r3, #4
 c106dd4:	e3a0000e 	mov	r0, #14
 c106dd8:	e59f1014 	ldr	r1, [pc, #20]	; c106df4 <isr_TIMER5_dummy+0x44>
 c106ddc:	e1a02003 	mov	r2, r3
 c106de0:	eb00027e 	bl	c1077e0 <fatalerror>
 c106de4:	e24bd020 	sub	sp, fp, #32
 c106de8:	e89d681f 	ldm	sp, {r0, r1, r2, r3, r4, fp, sp, lr}
 c106dec:	e49dc004 	pop	{ip}		; (ldr ip, [sp], #4)
 c106df0:	e25ef004 	subs	pc, lr, #4
 c106df4:	0c10aab0 	.word	0x0c10aab0

0c106df8 <isr_TIMER4_dummy>:
 c106df8:	e52dc004 	push	{ip}		; (str ip, [sp, #-4]!)
 c106dfc:	e1a0c00d 	mov	ip, sp
 c106e00:	e92dd81f 	push	{r0, r1, r2, r3, r4, fp, ip, lr, pc}
 c106e04:	e24cb004 	sub	fp, ip, #4
 c106e08:	e24dd00c 	sub	sp, sp, #12
 c106e0c:	e1a0400e 	mov	r4, lr
 c106e10:	e50b4028 	str	r4, [fp, #-40]	; 0xffffffd8
 c106e14:	e51b3028 	ldr	r3, [fp, #-40]	; 0xffffffd8
 c106e18:	e2433004 	sub	r3, r3, #4
 c106e1c:	e3a0000e 	mov	r0, #14
 c106e20:	e59f1014 	ldr	r1, [pc, #20]	; c106e3c <isr_TIMER4_dummy+0x44>
 c106e24:	e1a02003 	mov	r2, r3
 c106e28:	eb00026c 	bl	c1077e0 <fatalerror>
 c106e2c:	e24bd020 	sub	sp, fp, #32
 c106e30:	e89d681f 	ldm	sp, {r0, r1, r2, r3, r4, fp, sp, lr}
 c106e34:	e49dc004 	pop	{ip}		; (ldr ip, [sp], #4)
 c106e38:	e25ef004 	subs	pc, lr, #4
 c106e3c:	0c10aacc 	.word	0x0c10aacc

0c106e40 <isr_TIMER3_dummy>:
 c106e40:	e52dc004 	push	{ip}		; (str ip, [sp, #-4]!)
 c106e44:	e1a0c00d 	mov	ip, sp
 c106e48:	e92dd81f 	push	{r0, r1, r2, r3, r4, fp, ip, lr, pc}
 c106e4c:	e24cb004 	sub	fp, ip, #4
 c106e50:	e24dd00c 	sub	sp, sp, #12
 c106e54:	e1a0400e 	mov	r4, lr
 c106e58:	e50b4028 	str	r4, [fp, #-40]	; 0xffffffd8
 c106e5c:	e51b3028 	ldr	r3, [fp, #-40]	; 0xffffffd8
 c106e60:	e2433004 	sub	r3, r3, #4
 c106e64:	e3a0000e 	mov	r0, #14
 c106e68:	e59f1014 	ldr	r1, [pc, #20]	; c106e84 <isr_TIMER3_dummy+0x44>
 c106e6c:	e1a02003 	mov	r2, r3
 c106e70:	eb00025a 	bl	c1077e0 <fatalerror>
 c106e74:	e24bd020 	sub	sp, fp, #32
 c106e78:	e89d681f 	ldm	sp, {r0, r1, r2, r3, r4, fp, sp, lr}
 c106e7c:	e49dc004 	pop	{ip}		; (ldr ip, [sp], #4)
 c106e80:	e25ef004 	subs	pc, lr, #4
 c106e84:	0c10aae8 	.word	0x0c10aae8

0c106e88 <isr_TIMER2_dummy>:
 c106e88:	e52dc004 	push	{ip}		; (str ip, [sp, #-4]!)
 c106e8c:	e1a0c00d 	mov	ip, sp
 c106e90:	e92dd81f 	push	{r0, r1, r2, r3, r4, fp, ip, lr, pc}
 c106e94:	e24cb004 	sub	fp, ip, #4
 c106e98:	e24dd00c 	sub	sp, sp, #12
 c106e9c:	e1a0400e 	mov	r4, lr
 c106ea0:	e50b4028 	str	r4, [fp, #-40]	; 0xffffffd8
 c106ea4:	e51b3028 	ldr	r3, [fp, #-40]	; 0xffffffd8
 c106ea8:	e2433004 	sub	r3, r3, #4
 c106eac:	e3a0000e 	mov	r0, #14
 c106eb0:	e59f1014 	ldr	r1, [pc, #20]	; c106ecc <isr_TIMER2_dummy+0x44>
 c106eb4:	e1a02003 	mov	r2, r3
 c106eb8:	eb000248 	bl	c1077e0 <fatalerror>
 c106ebc:	e24bd020 	sub	sp, fp, #32
 c106ec0:	e89d681f 	ldm	sp, {r0, r1, r2, r3, r4, fp, sp, lr}
 c106ec4:	e49dc004 	pop	{ip}		; (ldr ip, [sp], #4)
 c106ec8:	e25ef004 	subs	pc, lr, #4
 c106ecc:	0c10ab04 	.word	0x0c10ab04

0c106ed0 <isr_TIMER1_dummy>:
 c106ed0:	e52dc004 	push	{ip}		; (str ip, [sp, #-4]!)
 c106ed4:	e1a0c00d 	mov	ip, sp
 c106ed8:	e92dd81f 	push	{r0, r1, r2, r3, r4, fp, ip, lr, pc}
 c106edc:	e24cb004 	sub	fp, ip, #4
 c106ee0:	e24dd00c 	sub	sp, sp, #12
 c106ee4:	e1a0400e 	mov	r4, lr
 c106ee8:	e50b4028 	str	r4, [fp, #-40]	; 0xffffffd8
 c106eec:	e51b3028 	ldr	r3, [fp, #-40]	; 0xffffffd8
 c106ef0:	e2433004 	sub	r3, r3, #4
 c106ef4:	e3a0000e 	mov	r0, #14
 c106ef8:	e59f1014 	ldr	r1, [pc, #20]	; c106f14 <isr_TIMER1_dummy+0x44>
 c106efc:	e1a02003 	mov	r2, r3
 c106f00:	eb000236 	bl	c1077e0 <fatalerror>
 c106f04:	e24bd020 	sub	sp, fp, #32
 c106f08:	e89d681f 	ldm	sp, {r0, r1, r2, r3, r4, fp, sp, lr}
 c106f0c:	e49dc004 	pop	{ip}		; (ldr ip, [sp], #4)
 c106f10:	e25ef004 	subs	pc, lr, #4
 c106f14:	0c10ab20 	.word	0x0c10ab20

0c106f18 <isr_TIMER0_dummy>:
 c106f18:	e52dc004 	push	{ip}		; (str ip, [sp, #-4]!)
 c106f1c:	e1a0c00d 	mov	ip, sp
 c106f20:	e92dd81f 	push	{r0, r1, r2, r3, r4, fp, ip, lr, pc}
 c106f24:	e24cb004 	sub	fp, ip, #4
 c106f28:	e24dd00c 	sub	sp, sp, #12
 c106f2c:	e1a0400e 	mov	r4, lr
 c106f30:	e50b4028 	str	r4, [fp, #-40]	; 0xffffffd8
 c106f34:	e51b3028 	ldr	r3, [fp, #-40]	; 0xffffffd8
 c106f38:	e2433004 	sub	r3, r3, #4
 c106f3c:	e3a0000e 	mov	r0, #14
 c106f40:	e59f1014 	ldr	r1, [pc, #20]	; c106f5c <isr_TIMER0_dummy+0x44>
 c106f44:	e1a02003 	mov	r2, r3
 c106f48:	eb000224 	bl	c1077e0 <fatalerror>
 c106f4c:	e24bd020 	sub	sp, fp, #32
 c106f50:	e89d681f 	ldm	sp, {r0, r1, r2, r3, r4, fp, sp, lr}
 c106f54:	e49dc004 	pop	{ip}		; (ldr ip, [sp], #4)
 c106f58:	e25ef004 	subs	pc, lr, #4
 c106f5c:	0c10ab3c 	.word	0x0c10ab3c

0c106f60 <isr_UERR01_dummy>:
 c106f60:	e52dc004 	push	{ip}		; (str ip, [sp, #-4]!)
 c106f64:	e1a0c00d 	mov	ip, sp
 c106f68:	e92dd81f 	push	{r0, r1, r2, r3, r4, fp, ip, lr, pc}
 c106f6c:	e24cb004 	sub	fp, ip, #4
 c106f70:	e24dd00c 	sub	sp, sp, #12
 c106f74:	e1a0400e 	mov	r4, lr
 c106f78:	e50b4028 	str	r4, [fp, #-40]	; 0xffffffd8
 c106f7c:	e51b3028 	ldr	r3, [fp, #-40]	; 0xffffffd8
 c106f80:	e2433004 	sub	r3, r3, #4
 c106f84:	e3a0000c 	mov	r0, #12
 c106f88:	e59f1014 	ldr	r1, [pc, #20]	; c106fa4 <isr_UERR01_dummy+0x44>
 c106f8c:	e1a02003 	mov	r2, r3
 c106f90:	eb000212 	bl	c1077e0 <fatalerror>
 c106f94:	e24bd020 	sub	sp, fp, #32
 c106f98:	e89d681f 	ldm	sp, {r0, r1, r2, r3, r4, fp, sp, lr}
 c106f9c:	e49dc004 	pop	{ip}		; (ldr ip, [sp], #4)
 c106fa0:	e25ef004 	subs	pc, lr, #4
 c106fa4:	0c10ab58 	.word	0x0c10ab58

0c106fa8 <isr_WDT_dummy>:
 c106fa8:	e52dc004 	push	{ip}		; (str ip, [sp, #-4]!)
 c106fac:	e1a0c00d 	mov	ip, sp
 c106fb0:	e92dd81f 	push	{r0, r1, r2, r3, r4, fp, ip, lr, pc}
 c106fb4:	e24cb004 	sub	fp, ip, #4
 c106fb8:	e24dd00c 	sub	sp, sp, #12
 c106fbc:	e1a0400e 	mov	r4, lr
 c106fc0:	e50b4028 	str	r4, [fp, #-40]	; 0xffffffd8
 c106fc4:	e51b3028 	ldr	r3, [fp, #-40]	; 0xffffffd8
 c106fc8:	e2433004 	sub	r3, r3, #4
 c106fcc:	e3a0000e 	mov	r0, #14
 c106fd0:	e59f1014 	ldr	r1, [pc, #20]	; c106fec <isr_WDT_dummy+0x44>
 c106fd4:	e1a02003 	mov	r2, r3
 c106fd8:	eb000200 	bl	c1077e0 <fatalerror>
 c106fdc:	e24bd020 	sub	sp, fp, #32
 c106fe0:	e89d681f 	ldm	sp, {r0, r1, r2, r3, r4, fp, sp, lr}
 c106fe4:	e49dc004 	pop	{ip}		; (ldr ip, [sp], #4)
 c106fe8:	e25ef004 	subs	pc, lr, #4
 c106fec:	0c10ab74 	.word	0x0c10ab74

0c106ff0 <isr_BDMA1_dummy>:
 c106ff0:	e52dc004 	push	{ip}		; (str ip, [sp, #-4]!)
 c106ff4:	e1a0c00d 	mov	ip, sp
 c106ff8:	e92dd81f 	push	{r0, r1, r2, r3, r4, fp, ip, lr, pc}
 c106ffc:	e24cb004 	sub	fp, ip, #4
 c107000:	e24dd00c 	sub	sp, sp, #12
 c107004:	e1a0400e 	mov	r4, lr
 c107008:	e50b4028 	str	r4, [fp, #-40]	; 0xffffffd8
 c10700c:	e51b3028 	ldr	r3, [fp, #-40]	; 0xffffffd8
 c107010:	e2433004 	sub	r3, r3, #4
 c107014:	e3a0000d 	mov	r0, #13
 c107018:	e59f1014 	ldr	r1, [pc, #20]	; c107034 <isr_BDMA1_dummy+0x44>
 c10701c:	e1a02003 	mov	r2, r3
 c107020:	eb0001ee 	bl	c1077e0 <fatalerror>
 c107024:	e24bd020 	sub	sp, fp, #32
 c107028:	e89d681f 	ldm	sp, {r0, r1, r2, r3, r4, fp, sp, lr}
 c10702c:	e49dc004 	pop	{ip}		; (ldr ip, [sp], #4)
 c107030:	e25ef004 	subs	pc, lr, #4
 c107034:	0c10ab90 	.word	0x0c10ab90

0c107038 <isr_BDMA0_dummy>:
 c107038:	e52dc004 	push	{ip}		; (str ip, [sp, #-4]!)
 c10703c:	e1a0c00d 	mov	ip, sp
 c107040:	e92dd81f 	push	{r0, r1, r2, r3, r4, fp, ip, lr, pc}
 c107044:	e24cb004 	sub	fp, ip, #4
 c107048:	e24dd00c 	sub	sp, sp, #12
 c10704c:	e1a0400e 	mov	r4, lr
 c107050:	e50b4028 	str	r4, [fp, #-40]	; 0xffffffd8
 c107054:	e51b3028 	ldr	r3, [fp, #-40]	; 0xffffffd8
 c107058:	e2433004 	sub	r3, r3, #4
 c10705c:	e3a0000d 	mov	r0, #13
 c107060:	e59f1014 	ldr	r1, [pc, #20]	; c10707c <isr_BDMA0_dummy+0x44>
 c107064:	e1a02003 	mov	r2, r3
 c107068:	eb0001dc 	bl	c1077e0 <fatalerror>
 c10706c:	e24bd020 	sub	sp, fp, #32
 c107070:	e89d681f 	ldm	sp, {r0, r1, r2, r3, r4, fp, sp, lr}
 c107074:	e49dc004 	pop	{ip}		; (ldr ip, [sp], #4)
 c107078:	e25ef004 	subs	pc, lr, #4
 c10707c:	0c10abac 	.word	0x0c10abac

0c107080 <isr_ZDMA1_dummy>:
 c107080:	e52dc004 	push	{ip}		; (str ip, [sp, #-4]!)
 c107084:	e1a0c00d 	mov	ip, sp
 c107088:	e92dd81f 	push	{r0, r1, r2, r3, r4, fp, ip, lr, pc}
 c10708c:	e24cb004 	sub	fp, ip, #4
 c107090:	e24dd00c 	sub	sp, sp, #12
 c107094:	e1a0400e 	mov	r4, lr
 c107098:	e50b4028 	str	r4, [fp, #-40]	; 0xffffffd8
 c10709c:	e51b3028 	ldr	r3, [fp, #-40]	; 0xffffffd8
 c1070a0:	e2433004 	sub	r3, r3, #4
 c1070a4:	e3a0000d 	mov	r0, #13
 c1070a8:	e59f1014 	ldr	r1, [pc, #20]	; c1070c4 <isr_ZDMA1_dummy+0x44>
 c1070ac:	e1a02003 	mov	r2, r3
 c1070b0:	eb0001ca 	bl	c1077e0 <fatalerror>
 c1070b4:	e24bd020 	sub	sp, fp, #32
 c1070b8:	e89d681f 	ldm	sp, {r0, r1, r2, r3, r4, fp, sp, lr}
 c1070bc:	e49dc004 	pop	{ip}		; (ldr ip, [sp], #4)
 c1070c0:	e25ef004 	subs	pc, lr, #4
 c1070c4:	0c10abc8 	.word	0x0c10abc8

0c1070c8 <isr_ZDMA0_dummy>:
 c1070c8:	e52dc004 	push	{ip}		; (str ip, [sp, #-4]!)
 c1070cc:	e1a0c00d 	mov	ip, sp
 c1070d0:	e92dd81f 	push	{r0, r1, r2, r3, r4, fp, ip, lr, pc}
 c1070d4:	e24cb004 	sub	fp, ip, #4
 c1070d8:	e24dd00c 	sub	sp, sp, #12
 c1070dc:	e1a0400e 	mov	r4, lr
 c1070e0:	e50b4028 	str	r4, [fp, #-40]	; 0xffffffd8
 c1070e4:	e51b3028 	ldr	r3, [fp, #-40]	; 0xffffffd8
 c1070e8:	e2433004 	sub	r3, r3, #4
 c1070ec:	e3a0000d 	mov	r0, #13
 c1070f0:	e59f1014 	ldr	r1, [pc, #20]	; c10710c <isr_ZDMA0_dummy+0x44>
 c1070f4:	e1a02003 	mov	r2, r3
 c1070f8:	eb0001b8 	bl	c1077e0 <fatalerror>
 c1070fc:	e24bd020 	sub	sp, fp, #32
 c107100:	e89d681f 	ldm	sp, {r0, r1, r2, r3, r4, fp, sp, lr}
 c107104:	e49dc004 	pop	{ip}		; (ldr ip, [sp], #4)
 c107108:	e25ef004 	subs	pc, lr, #4
 c10710c:	0c10abac 	.word	0x0c10abac

0c107110 <isr_TICK_dummy>:
 c107110:	e52dc004 	push	{ip}		; (str ip, [sp, #-4]!)
 c107114:	e1a0c00d 	mov	ip, sp
 c107118:	e92dd81f 	push	{r0, r1, r2, r3, r4, fp, ip, lr, pc}
 c10711c:	e24cb004 	sub	fp, ip, #4
 c107120:	e24dd00c 	sub	sp, sp, #12
 c107124:	e1a0400e 	mov	r4, lr
 c107128:	e50b4028 	str	r4, [fp, #-40]	; 0xffffffd8
 c10712c:	e51b3028 	ldr	r3, [fp, #-40]	; 0xffffffd8
 c107130:	e2433004 	sub	r3, r3, #4
 c107134:	e3a0000a 	mov	r0, #10
 c107138:	e59f1014 	ldr	r1, [pc, #20]	; c107154 <isr_TICK_dummy+0x44>
 c10713c:	e1a02003 	mov	r2, r3
 c107140:	eb0001a6 	bl	c1077e0 <fatalerror>
 c107144:	e24bd020 	sub	sp, fp, #32
 c107148:	e89d681f 	ldm	sp, {r0, r1, r2, r3, r4, fp, sp, lr}
 c10714c:	e49dc004 	pop	{ip}		; (ldr ip, [sp], #4)
 c107150:	e25ef004 	subs	pc, lr, #4
 c107154:	0c10abe4 	.word	0x0c10abe4

0c107158 <isr_PB_dummy>:
 c107158:	e52dc004 	push	{ip}		; (str ip, [sp, #-4]!)
 c10715c:	e1a0c00d 	mov	ip, sp
 c107160:	e92dd81f 	push	{r0, r1, r2, r3, r4, fp, ip, lr, pc}
 c107164:	e24cb004 	sub	fp, ip, #4
 c107168:	e24dd00c 	sub	sp, sp, #12
 c10716c:	e1a0400e 	mov	r4, lr
 c107170:	e50b4028 	str	r4, [fp, #-40]	; 0xffffffd8
 c107174:	e51b3028 	ldr	r3, [fp, #-40]	; 0xffffffd8
 c107178:	e2433004 	sub	r3, r3, #4
 c10717c:	e3a00006 	mov	r0, #6
 c107180:	e59f1014 	ldr	r1, [pc, #20]	; c10719c <isr_PB_dummy+0x44>
 c107184:	e1a02003 	mov	r2, r3
 c107188:	eb000194 	bl	c1077e0 <fatalerror>
 c10718c:	e24bd020 	sub	sp, fp, #32
 c107190:	e89d681f 	ldm	sp, {r0, r1, r2, r3, r4, fp, sp, lr}
 c107194:	e49dc004 	pop	{ip}		; (ldr ip, [sp], #4)
 c107198:	e25ef004 	subs	pc, lr, #4
 c10719c:	0c10ac00 	.word	0x0c10ac00

0c1071a0 <isr_ETHERNET_dummy>:
 c1071a0:	e52dc004 	push	{ip}		; (str ip, [sp, #-4]!)
 c1071a4:	e1a0c00d 	mov	ip, sp
 c1071a8:	e92dd81f 	push	{r0, r1, r2, r3, r4, fp, ip, lr, pc}
 c1071ac:	e24cb004 	sub	fp, ip, #4
 c1071b0:	e24dd00c 	sub	sp, sp, #12
 c1071b4:	e1a0400e 	mov	r4, lr
 c1071b8:	e50b4028 	str	r4, [fp, #-40]	; 0xffffffd8
 c1071bc:	e51b3028 	ldr	r3, [fp, #-40]	; 0xffffffd8
 c1071c0:	e2433004 	sub	r3, r3, #4
 c1071c4:	e3a0000f 	mov	r0, #15
 c1071c8:	e59f1014 	ldr	r1, [pc, #20]	; c1071e4 <isr_ETHERNET_dummy+0x44>
 c1071cc:	e1a02003 	mov	r2, r3
 c1071d0:	eb000182 	bl	c1077e0 <fatalerror>
 c1071d4:	e24bd020 	sub	sp, fp, #32
 c1071d8:	e89d681f 	ldm	sp, {r0, r1, r2, r3, r4, fp, sp, lr}
 c1071dc:	e49dc004 	pop	{ip}		; (ldr ip, [sp], #4)
 c1071e0:	e25ef004 	subs	pc, lr, #4
 c1071e4:	0c10ac18 	.word	0x0c10ac18

0c1071e8 <isr_TS_dummy>:
 c1071e8:	e52dc004 	push	{ip}		; (str ip, [sp, #-4]!)
 c1071ec:	e1a0c00d 	mov	ip, sp
 c1071f0:	e92dd81f 	push	{r0, r1, r2, r3, r4, fp, ip, lr, pc}
 c1071f4:	e24cb004 	sub	fp, ip, #4
 c1071f8:	e24dd00c 	sub	sp, sp, #12
 c1071fc:	e1a0400e 	mov	r4, lr
 c107200:	e50b4028 	str	r4, [fp, #-40]	; 0xffffffd8
 c107204:	e51b3028 	ldr	r3, [fp, #-40]	; 0xffffffd8
 c107208:	e2433004 	sub	r3, r3, #4
 c10720c:	e3a0000b 	mov	r0, #11
 c107210:	e59f1014 	ldr	r1, [pc, #20]	; c10722c <isr_TS_dummy+0x44>
 c107214:	e1a02003 	mov	r2, r3
 c107218:	eb000170 	bl	c1077e0 <fatalerror>
 c10721c:	e24bd020 	sub	sp, fp, #32
 c107220:	e89d681f 	ldm	sp, {r0, r1, r2, r3, r4, fp, sp, lr}
 c107224:	e49dc004 	pop	{ip}		; (ldr ip, [sp], #4)
 c107228:	e25ef004 	subs	pc, lr, #4
 c10722c:	0c10ac38 	.word	0x0c10ac38

0c107230 <isr_KEYPAD_dummy>:
 c107230:	e52dc004 	push	{ip}		; (str ip, [sp, #-4]!)
 c107234:	e1a0c00d 	mov	ip, sp
 c107238:	e92dd81f 	push	{r0, r1, r2, r3, r4, fp, ip, lr, pc}
 c10723c:	e24cb004 	sub	fp, ip, #4
 c107240:	e24dd00c 	sub	sp, sp, #12
 c107244:	e1a0400e 	mov	r4, lr
 c107248:	e50b4028 	str	r4, [fp, #-40]	; 0xffffffd8
 c10724c:	e51b3028 	ldr	r3, [fp, #-40]	; 0xffffffd8
 c107250:	e2433004 	sub	r3, r3, #4
 c107254:	e3a00007 	mov	r0, #7
 c107258:	e59f1014 	ldr	r1, [pc, #20]	; c107274 <isr_KEYPAD_dummy+0x44>
 c10725c:	e1a02003 	mov	r2, r3
 c107260:	eb00015e 	bl	c1077e0 <fatalerror>
 c107264:	e24bd020 	sub	sp, fp, #32
 c107268:	e89d681f 	ldm	sp, {r0, r1, r2, r3, r4, fp, sp, lr}
 c10726c:	e49dc004 	pop	{ip}		; (ldr ip, [sp], #4)
 c107270:	e25ef004 	subs	pc, lr, #4
 c107274:	0c10ac50 	.word	0x0c10ac50

0c107278 <isr_USB_dummy>:
 c107278:	e52dc004 	push	{ip}		; (str ip, [sp, #-4]!)
 c10727c:	e1a0c00d 	mov	ip, sp
 c107280:	e92dd81f 	push	{r0, r1, r2, r3, r4, fp, ip, lr, pc}
 c107284:	e24cb004 	sub	fp, ip, #4
 c107288:	e24dd00c 	sub	sp, sp, #12
 c10728c:	e1a0400e 	mov	r4, lr
 c107290:	e50b4028 	str	r4, [fp, #-40]	; 0xffffffd8
 c107294:	e51b3028 	ldr	r3, [fp, #-40]	; 0xffffffd8
 c107298:	e2433004 	sub	r3, r3, #4
 c10729c:	e3a0000f 	mov	r0, #15
 c1072a0:	e59f1014 	ldr	r1, [pc, #20]	; c1072bc <isr_USB_dummy+0x44>
 c1072a4:	e1a02003 	mov	r2, r3
 c1072a8:	eb00014c 	bl	c1077e0 <fatalerror>
 c1072ac:	e24bd020 	sub	sp, fp, #32
 c1072b0:	e89d681f 	ldm	sp, {r0, r1, r2, r3, r4, fp, sp, lr}
 c1072b4:	e49dc004 	pop	{ip}		; (ldr ip, [sp], #4)
 c1072b8:	e25ef004 	subs	pc, lr, #4
 c1072bc:	0c10ac6c 	.word	0x0c10ac6c

0c1072c0 <show_sys_info>:
 c1072c0:	e1a0c00d 	mov	ip, sp
 c1072c4:	e92dd810 	push	{r4, fp, ip, lr, pc}
 c1072c8:	e24cb004 	sub	fp, ip, #4
 c1072cc:	e24dd00c 	sub	sp, sp, #12
 c1072d0:	e59f03a4 	ldr	r0, [pc, #932]	; c10767c <show_sys_info+0x3bc>
 c1072d4:	eb00073f 	bl	c108fd8 <uart0_puts>
 c1072d8:	e59f03a0 	ldr	r0, [pc, #928]	; c107680 <show_sys_info+0x3c0>
 c1072dc:	eb00073d 	bl	c108fd8 <uart0_puts>
 c1072e0:	e59f039c 	ldr	r0, [pc, #924]	; c107684 <show_sys_info+0x3c4>
 c1072e4:	eb00073b 	bl	c108fd8 <uart0_puts>
 c1072e8:	e59f0398 	ldr	r0, [pc, #920]	; c107688 <show_sys_info+0x3c8>
 c1072ec:	eb000739 	bl	c108fd8 <uart0_puts>
 c1072f0:	e59f0394 	ldr	r0, [pc, #916]	; c10768c <show_sys_info+0x3cc>
 c1072f4:	eb000737 	bl	c108fd8 <uart0_puts>
 c1072f8:	e59f0390 	ldr	r0, [pc, #912]	; c107690 <show_sys_info+0x3d0>
 c1072fc:	eb000735 	bl	c108fd8 <uart0_puts>
 c107300:	e59f038c 	ldr	r0, [pc, #908]	; c107694 <show_sys_info+0x3d4>
 c107304:	eb000733 	bl	c108fd8 <uart0_puts>
 c107308:	e59f0388 	ldr	r0, [pc, #904]	; c107698 <show_sys_info+0x3d8>
 c10730c:	eb000731 	bl	c108fd8 <uart0_puts>
 c107310:	e59f0384 	ldr	r0, [pc, #900]	; c10769c <show_sys_info+0x3dc>
 c107314:	eb00072f 	bl	c108fd8 <uart0_puts>
 c107318:	e59f0380 	ldr	r0, [pc, #896]	; c1076a0 <show_sys_info+0x3e0>
 c10731c:	eb00072d 	bl	c108fd8 <uart0_puts>
 c107320:	e59f037c 	ldr	r0, [pc, #892]	; c1076a4 <show_sys_info+0x3e4>
 c107324:	eb00072b 	bl	c108fd8 <uart0_puts>
 c107328:	e59f0378 	ldr	r0, [pc, #888]	; c1076a8 <show_sys_info+0x3e8>
 c10732c:	eb000729 	bl	c108fd8 <uart0_puts>
 c107330:	e59f0374 	ldr	r0, [pc, #884]	; c1076ac <show_sys_info+0x3ec>
 c107334:	eb000727 	bl	c108fd8 <uart0_puts>
 c107338:	e59f0370 	ldr	r0, [pc, #880]	; c1076b0 <show_sys_info+0x3f0>
 c10733c:	eb000725 	bl	c108fd8 <uart0_puts>
 c107340:	e59f036c 	ldr	r0, [pc, #876]	; c1076b4 <show_sys_info+0x3f4>
 c107344:	eb000723 	bl	c108fd8 <uart0_puts>
 c107348:	e10f4000 	mrs	r4, CPSR
 c10734c:	e50b4018 	str	r4, [fp, #-24]	; 0xffffffe8
 c107350:	e51b3018 	ldr	r3, [fp, #-24]	; 0xffffffe8
 c107354:	e2033020 	and	r3, r3, #32
 c107358:	e3530000 	cmp	r3, #0
 c10735c:	0a000002 	beq	c10736c <show_sys_info+0xac>
 c107360:	e59f0350 	ldr	r0, [pc, #848]	; c1076b8 <show_sys_info+0x3f8>
 c107364:	eb00071b 	bl	c108fd8 <uart0_puts>
 c107368:	ea000001 	b	c107374 <show_sys_info+0xb4>
 c10736c:	e59f0348 	ldr	r0, [pc, #840]	; c1076bc <show_sys_info+0x3fc>
 c107370:	eb000718 	bl	c108fd8 <uart0_puts>
 c107374:	e59f0344 	ldr	r0, [pc, #836]	; c1076c0 <show_sys_info+0x400>
 c107378:	eb000716 	bl	c108fd8 <uart0_puts>
 c10737c:	e51b3018 	ldr	r3, [fp, #-24]	; 0xffffffe8
 c107380:	e203301f 	and	r3, r3, #31
 c107384:	e2433010 	sub	r3, r3, #16
 c107388:	e353000f 	cmp	r3, #15
 c10738c:	979ff103 	ldrls	pc, [pc, r3, lsl #2]
 c107390:	ea000024 	b	c107428 <show_sys_info+0x168>
 c107394:	0c1073d4 	.word	0x0c1073d4
 c107398:	0c1073e0 	.word	0x0c1073e0
 c10739c:	0c1073ec 	.word	0x0c1073ec
 c1073a0:	0c1073f8 	.word	0x0c1073f8
 c1073a4:	0c107428 	.word	0x0c107428
 c1073a8:	0c107428 	.word	0x0c107428
 c1073ac:	0c107428 	.word	0x0c107428
 c1073b0:	0c107404 	.word	0x0c107404
 c1073b4:	0c107428 	.word	0x0c107428
 c1073b8:	0c107428 	.word	0x0c107428
 c1073bc:	0c107428 	.word	0x0c107428
 c1073c0:	0c107410 	.word	0x0c107410
 c1073c4:	0c107428 	.word	0x0c107428
 c1073c8:	0c107428 	.word	0x0c107428
 c1073cc:	0c107428 	.word	0x0c107428
 c1073d0:	0c10741c 	.word	0x0c10741c
 c1073d4:	e59f02e8 	ldr	r0, [pc, #744]	; c1076c4 <show_sys_info+0x404>
 c1073d8:	eb0006fe 	bl	c108fd8 <uart0_puts>
 c1073dc:	ea000011 	b	c107428 <show_sys_info+0x168>
 c1073e0:	e59f02e0 	ldr	r0, [pc, #736]	; c1076c8 <show_sys_info+0x408>
 c1073e4:	eb0006fb 	bl	c108fd8 <uart0_puts>
 c1073e8:	ea00000e 	b	c107428 <show_sys_info+0x168>
 c1073ec:	e59f02d8 	ldr	r0, [pc, #728]	; c1076cc <show_sys_info+0x40c>
 c1073f0:	eb0006f8 	bl	c108fd8 <uart0_puts>
 c1073f4:	ea00000b 	b	c107428 <show_sys_info+0x168>
 c1073f8:	e59f02d0 	ldr	r0, [pc, #720]	; c1076d0 <show_sys_info+0x410>
 c1073fc:	eb0006f5 	bl	c108fd8 <uart0_puts>
 c107400:	ea000008 	b	c107428 <show_sys_info+0x168>
 c107404:	e59f02c8 	ldr	r0, [pc, #712]	; c1076d4 <show_sys_info+0x414>
 c107408:	eb0006f2 	bl	c108fd8 <uart0_puts>
 c10740c:	ea000005 	b	c107428 <show_sys_info+0x168>
 c107410:	e59f02c0 	ldr	r0, [pc, #704]	; c1076d8 <show_sys_info+0x418>
 c107414:	eb0006ef 	bl	c108fd8 <uart0_puts>
 c107418:	ea000002 	b	c107428 <show_sys_info+0x168>
 c10741c:	e59f02b8 	ldr	r0, [pc, #696]	; c1076dc <show_sys_info+0x41c>
 c107420:	eb0006ec 	bl	c108fd8 <uart0_puts>
 c107424:	e1a00000 	nop			; (mov r0, r0)
 c107428:	e59f02b0 	ldr	r0, [pc, #688]	; c1076e0 <show_sys_info+0x420>
 c10742c:	eb0006e9 	bl	c108fd8 <uart0_puts>
 c107430:	e51b3018 	ldr	r3, [fp, #-24]	; 0xffffffe8
 c107434:	e2033080 	and	r3, r3, #128	; 0x80
 c107438:	e3530000 	cmp	r3, #0
 c10743c:	0a000002 	beq	c10744c <show_sys_info+0x18c>
 c107440:	e59f029c 	ldr	r0, [pc, #668]	; c1076e4 <show_sys_info+0x424>
 c107444:	eb0006e3 	bl	c108fd8 <uart0_puts>
 c107448:	ea000001 	b	c107454 <show_sys_info+0x194>
 c10744c:	e59f0294 	ldr	r0, [pc, #660]	; c1076e8 <show_sys_info+0x428>
 c107450:	eb0006e0 	bl	c108fd8 <uart0_puts>
 c107454:	e59f0290 	ldr	r0, [pc, #656]	; c1076ec <show_sys_info+0x42c>
 c107458:	eb0006de 	bl	c108fd8 <uart0_puts>
 c10745c:	e51b3018 	ldr	r3, [fp, #-24]	; 0xffffffe8
 c107460:	e2033040 	and	r3, r3, #64	; 0x40
 c107464:	e3530000 	cmp	r3, #0
 c107468:	0a000002 	beq	c107478 <show_sys_info+0x1b8>
 c10746c:	e59f0270 	ldr	r0, [pc, #624]	; c1076e4 <show_sys_info+0x424>
 c107470:	eb0006d8 	bl	c108fd8 <uart0_puts>
 c107474:	ea000001 	b	c107480 <show_sys_info+0x1c0>
 c107478:	e59f0268 	ldr	r0, [pc, #616]	; c1076e8 <show_sys_info+0x428>
 c10747c:	eb0006d5 	bl	c108fd8 <uart0_puts>
 c107480:	e59f0268 	ldr	r0, [pc, #616]	; c1076f0 <show_sys_info+0x430>
 c107484:	eb0006d3 	bl	c108fd8 <uart0_puts>
 c107488:	e59f3264 	ldr	r3, [pc, #612]	; c1076f4 <show_sys_info+0x434>
 c10748c:	e5932000 	ldr	r2, [r3]
 c107490:	e59f3260 	ldr	r3, [pc, #608]	; c1076f8 <show_sys_info+0x438>
 c107494:	e0831392 	umull	r1, r3, r2, r3
 c107498:	e1a03923 	lsr	r3, r3, #18
 c10749c:	e1a00003 	mov	r0, r3
 c1074a0:	eb0006e0 	bl	c109028 <uart0_putint>
 c1074a4:	e59f0250 	ldr	r0, [pc, #592]	; c1076fc <show_sys_info+0x43c>
 c1074a8:	eb0006ca 	bl	c108fd8 <uart0_puts>
 c1074ac:	e59f024c 	ldr	r0, [pc, #588]	; c107700 <show_sys_info+0x440>
 c1074b0:	eb0006c8 	bl	c108fd8 <uart0_puts>
 c1074b4:	e3a03507 	mov	r3, #29360128	; 0x1c00000
 c1074b8:	e5933000 	ldr	r3, [r3]
 c1074bc:	e2033006 	and	r3, r3, #6
 c1074c0:	e1a030a3 	lsr	r3, r3, #1
 c1074c4:	e3530001 	cmp	r3, #1
 c1074c8:	0a000007 	beq	c1074ec <show_sys_info+0x22c>
 c1074cc:	e3530001 	cmp	r3, #1
 c1074d0:	3a000002 	bcc	c1074e0 <show_sys_info+0x220>
 c1074d4:	e3530003 	cmp	r3, #3
 c1074d8:	0a000006 	beq	c1074f8 <show_sys_info+0x238>
 c1074dc:	ea000008 	b	c107504 <show_sys_info+0x244>
 c1074e0:	e59f021c 	ldr	r0, [pc, #540]	; c107704 <show_sys_info+0x444>
 c1074e4:	eb0006bb 	bl	c108fd8 <uart0_puts>
 c1074e8:	ea000005 	b	c107504 <show_sys_info+0x244>
 c1074ec:	e59f0214 	ldr	r0, [pc, #532]	; c107708 <show_sys_info+0x448>
 c1074f0:	eb0006b8 	bl	c108fd8 <uart0_puts>
 c1074f4:	ea000002 	b	c107504 <show_sys_info+0x244>
 c1074f8:	e59f020c 	ldr	r0, [pc, #524]	; c10770c <show_sys_info+0x44c>
 c1074fc:	eb0006b5 	bl	c108fd8 <uart0_puts>
 c107500:	e1a00000 	nop			; (mov r0, r0)
 c107504:	e59f0204 	ldr	r0, [pc, #516]	; c107710 <show_sys_info+0x450>
 c107508:	eb0006b2 	bl	c108fd8 <uart0_puts>
 c10750c:	e3a00002 	mov	r0, #2
 c107510:	eb0006c4 	bl	c109028 <uart0_putint>
 c107514:	e59f01f8 	ldr	r0, [pc, #504]	; c107714 <show_sys_info+0x454>
 c107518:	eb0006ae 	bl	c108fd8 <uart0_puts>
 c10751c:	e59f01f4 	ldr	r0, [pc, #500]	; c107718 <show_sys_info+0x458>
 c107520:	eb0006ac 	bl	c108fd8 <uart0_puts>
 c107524:	e3a00008 	mov	r0, #8
 c107528:	eb0006be 	bl	c109028 <uart0_putint>
 c10752c:	e59f01e0 	ldr	r0, [pc, #480]	; c107714 <show_sys_info+0x454>
 c107530:	eb0006a8 	bl	c108fd8 <uart0_puts>
 c107534:	e59f01e0 	ldr	r0, [pc, #480]	; c10771c <show_sys_info+0x45c>
 c107538:	eb0006a6 	bl	c108fd8 <uart0_puts>
 c10753c:	e59f01dc 	ldr	r0, [pc, #476]	; c107720 <show_sys_info+0x460>
 c107540:	eb0006a4 	bl	c108fd8 <uart0_puts>
 c107544:	e59f01d8 	ldr	r0, [pc, #472]	; c107724 <show_sys_info+0x464>
 c107548:	eb0006a2 	bl	c108fd8 <uart0_puts>
 c10754c:	e59f31d4 	ldr	r3, [pc, #468]	; c107728 <show_sys_info+0x468>
 c107550:	e1a03523 	lsr	r3, r3, #10
 c107554:	e1a00003 	mov	r0, r3
 c107558:	eb0006b2 	bl	c109028 <uart0_putint>
 c10755c:	e59f01c8 	ldr	r0, [pc, #456]	; c10772c <show_sys_info+0x46c>
 c107560:	eb00069c 	bl	c108fd8 <uart0_puts>
 c107564:	e59f31bc 	ldr	r3, [pc, #444]	; c107728 <show_sys_info+0x468>
 c107568:	e1a00003 	mov	r0, r3
 c10756c:	eb0006ad 	bl	c109028 <uart0_putint>
 c107570:	e59f01b8 	ldr	r0, [pc, #440]	; c107730 <show_sys_info+0x470>
 c107574:	eb000697 	bl	c108fd8 <uart0_puts>
 c107578:	e59f21a8 	ldr	r2, [pc, #424]	; c107728 <show_sys_info+0x468>
 c10757c:	e1a03002 	mov	r3, r2
 c107580:	e1a03103 	lsl	r3, r3, #2
 c107584:	e0833002 	add	r3, r3, r2
 c107588:	e1a02103 	lsl	r2, r3, #2
 c10758c:	e0833002 	add	r3, r3, r2
 c107590:	e1a03103 	lsl	r3, r3, #2
 c107594:	e1a03ba3 	lsr	r3, r3, #23
 c107598:	e1a00003 	mov	r0, r3
 c10759c:	eb0006a1 	bl	c109028 <uart0_putint>
 c1075a0:	e59f018c 	ldr	r0, [pc, #396]	; c107734 <show_sys_info+0x474>
 c1075a4:	eb00068b 	bl	c108fd8 <uart0_puts>
 c1075a8:	e59f0188 	ldr	r0, [pc, #392]	; c107738 <show_sys_info+0x478>
 c1075ac:	eb000689 	bl	c108fd8 <uart0_puts>
 c1075b0:	e59f3184 	ldr	r3, [pc, #388]	; c10773c <show_sys_info+0x47c>
 c1075b4:	e1a03523 	lsr	r3, r3, #10
 c1075b8:	e1a00003 	mov	r0, r3
 c1075bc:	eb000699 	bl	c109028 <uart0_putint>
 c1075c0:	e59f0164 	ldr	r0, [pc, #356]	; c10772c <show_sys_info+0x46c>
 c1075c4:	eb000683 	bl	c108fd8 <uart0_puts>
 c1075c8:	e59f316c 	ldr	r3, [pc, #364]	; c10773c <show_sys_info+0x47c>
 c1075cc:	e1a00003 	mov	r0, r3
 c1075d0:	eb000694 	bl	c109028 <uart0_putint>
 c1075d4:	e59f0164 	ldr	r0, [pc, #356]	; c107740 <show_sys_info+0x480>
 c1075d8:	eb00067e 	bl	c108fd8 <uart0_puts>
 c1075dc:	e59f0160 	ldr	r0, [pc, #352]	; c107744 <show_sys_info+0x484>
 c1075e0:	eb00067c 	bl	c108fd8 <uart0_puts>
 c1075e4:	e59f315c 	ldr	r3, [pc, #348]	; c107748 <show_sys_info+0x488>
 c1075e8:	e1a00003 	mov	r0, r3
 c1075ec:	eb0006e2 	bl	c10917c <uart0_puthex>
 c1075f0:	e59f0154 	ldr	r0, [pc, #340]	; c10774c <show_sys_info+0x48c>
 c1075f4:	eb000677 	bl	c108fd8 <uart0_puts>
 c1075f8:	e59f3150 	ldr	r3, [pc, #336]	; c107750 <show_sys_info+0x490>
 c1075fc:	e2433001 	sub	r3, r3, #1
 c107600:	e1a00003 	mov	r0, r3
 c107604:	eb0006dc 	bl	c10917c <uart0_puthex>
 c107608:	e59f0144 	ldr	r0, [pc, #324]	; c107754 <show_sys_info+0x494>
 c10760c:	eb000671 	bl	c108fd8 <uart0_puts>
 c107610:	e59f3140 	ldr	r3, [pc, #320]	; c107758 <show_sys_info+0x498>
 c107614:	e1a03523 	lsr	r3, r3, #10
 c107618:	e1a00003 	mov	r0, r3
 c10761c:	eb000681 	bl	c109028 <uart0_putint>
 c107620:	e59f0104 	ldr	r0, [pc, #260]	; c10772c <show_sys_info+0x46c>
 c107624:	eb00066b 	bl	c108fd8 <uart0_puts>
 c107628:	e59f3128 	ldr	r3, [pc, #296]	; c107758 <show_sys_info+0x498>
 c10762c:	e1a00003 	mov	r0, r3
 c107630:	eb00067c 	bl	c109028 <uart0_putint>
 c107634:	e59f0104 	ldr	r0, [pc, #260]	; c107740 <show_sys_info+0x480>
 c107638:	eb000666 	bl	c108fd8 <uart0_puts>
 c10763c:	e59f0100 	ldr	r0, [pc, #256]	; c107744 <show_sys_info+0x484>
 c107640:	eb000664 	bl	c108fd8 <uart0_puts>
 c107644:	e59f3110 	ldr	r3, [pc, #272]	; c10775c <show_sys_info+0x49c>
 c107648:	e1a00003 	mov	r0, r3
 c10764c:	eb0006ca 	bl	c10917c <uart0_puthex>
 c107650:	e59f00f4 	ldr	r0, [pc, #244]	; c10774c <show_sys_info+0x48c>
 c107654:	eb00065f 	bl	c108fd8 <uart0_puts>
 c107658:	e59f3100 	ldr	r3, [pc, #256]	; c107760 <show_sys_info+0x4a0>
 c10765c:	e2433001 	sub	r3, r3, #1
 c107660:	e1a00003 	mov	r0, r3
 c107664:	eb0006c4 	bl	c10917c <uart0_puthex>
 c107668:	e59f00f4 	ldr	r0, [pc, #244]	; c107764 <show_sys_info+0x4a4>
 c10766c:	eb000659 	bl	c108fd8 <uart0_puts>
 c107670:	e24bd010 	sub	sp, fp, #16
 c107674:	e89d6810 	ldm	sp, {r4, fp, sp, lr}
 c107678:	e12fff1e 	bx	lr
 c10767c:	0c10ac88 	.word	0x0c10ac88
 c107680:	0c10acb8 	.word	0x0c10acb8
 c107684:	0c10accc 	.word	0x0c10accc
 c107688:	0c10ace4 	.word	0x0c10ace4
 c10768c:	0c10acf4 	.word	0x0c10acf4
 c107690:	0c10ad00 	.word	0x0c10ad00
 c107694:	0c10ad04 	.word	0x0c10ad04
 c107698:	0c10ad10 	.word	0x0c10ad10
 c10769c:	0c10ad14 	.word	0x0c10ad14
 c1076a0:	0c10ad34 	.word	0x0c10ad34
 c1076a4:	0c10ad3c 	.word	0x0c10ad3c
 c1076a8:	0c10ad64 	.word	0x0c10ad64
 c1076ac:	0c10ad80 	.word	0x0c10ad80
 c1076b0:	0c10ad8c 	.word	0x0c10ad8c
 c1076b4:	0c10ad98 	.word	0x0c10ad98
 c1076b8:	0c10adb4 	.word	0x0c10adb4
 c1076bc:	0c10adbc 	.word	0x0c10adbc
 c1076c0:	0c10adc0 	.word	0x0c10adc0
 c1076c4:	0c10addc 	.word	0x0c10addc
 c1076c8:	0c10ade0 	.word	0x0c10ade0
 c1076cc:	0c10ade4 	.word	0x0c10ade4
 c1076d0:	0c10ade8 	.word	0x0c10ade8
 c1076d4:	0c10adec 	.word	0x0c10adec
 c1076d8:	0c10adf0 	.word	0x0c10adf0
 c1076dc:	0c10adf4 	.word	0x0c10adf4
 c1076e0:	0c10adf8 	.word	0x0c10adf8
 c1076e4:	0c10ae14 	.word	0x0c10ae14
 c1076e8:	0c10ae24 	.word	0x0c10ae24
 c1076ec:	0c10ae30 	.word	0x0c10ae30
 c1076f0:	0c10ae4c 	.word	0x0c10ae4c
 c1076f4:	0c10c0c4 	.word	0x0c10c0c4
 c1076f8:	431bde83 	.word	0x431bde83
 c1076fc:	0c10ae68 	.word	0x0c10ae68
 c107700:	0c10ae70 	.word	0x0c10ae70
 c107704:	0c10ae8c 	.word	0x0c10ae8c
 c107708:	0c10ae9c 	.word	0x0c10ae9c
 c10770c:	0c10aea4 	.word	0x0c10aea4
 c107710:	0c10aeac 	.word	0x0c10aeac
 c107714:	0c10aec8 	.word	0x0c10aec8
 c107718:	0c10aecc 	.word	0x0c10aecc
 c10771c:	0c10aee8 	.word	0x0c10aee8
 c107720:	0c10af08 	.word	0x0c10af08
 c107724:	0c10af18 	.word	0x0c10af18
 c107728:	0000c256 	.word	0x0000c256
 c10772c:	0c10af30 	.word	0x0c10af30
 c107730:	0c10af38 	.word	0x0c10af38
 c107734:	0c10af40 	.word	0x0c10af40
 c107738:	0c10af44 	.word	0x0c10af44
 c10773c:	0000a348 	.word	0x0000a348
 c107740:	0c10af60 	.word	0x0c10af60
 c107744:	0c10af64 	.word	0x0c10af64
 c107748:	0c100000 	.word	0x0c100000
 c10774c:	0c10af80 	.word	0x0c10af80
 c107750:	0c10a348 	.word	0x0c10a348
 c107754:	0c10af9c 	.word	0x0c10af9c
 c107758:	00001f0e 	.word	0x00001f0e
 c10775c:	0c10a348 	.word	0x0c10a348
 c107760:	0c11585e 	.word	0x0c11585e
 c107764:	0c10afb8 	.word	0x0c10afb8

0c107768 <getmem>:
 c107768:	e1a0c00d 	mov	ip, sp
 c10776c:	e92dd800 	push	{fp, ip, lr, pc}
 c107770:	e24cb004 	sub	fp, ip, #4
 c107774:	e24dd010 	sub	sp, sp, #16
 c107778:	e50b0018 	str	r0, [fp, #-24]	; 0xffffffe8
 c10777c:	e59f3058 	ldr	r3, [pc, #88]	; c1077dc <getmem+0x74>
 c107780:	e5933000 	ldr	r3, [r3]
 c107784:	e2033003 	and	r3, r3, #3
 c107788:	e3530000 	cmp	r3, #0
 c10778c:	0a000001 	beq	c107798 <getmem+0x30>
 c107790:	e3a03004 	mov	r3, #4
 c107794:	ea000000 	b	c10779c <getmem+0x34>
 c107798:	e3a03000 	mov	r3, #0
 c10779c:	e59f2038 	ldr	r2, [pc, #56]	; c1077dc <getmem+0x74>
 c1077a0:	e5922000 	ldr	r2, [r2]
 c1077a4:	e3c22003 	bic	r2, r2, #3
 c1077a8:	e0833002 	add	r3, r3, r2
 c1077ac:	e50b3010 	str	r3, [fp, #-16]
 c1077b0:	e59f3024 	ldr	r3, [pc, #36]	; c1077dc <getmem+0x74>
 c1077b4:	e5932000 	ldr	r2, [r3]
 c1077b8:	e51b3018 	ldr	r3, [fp, #-24]	; 0xffffffe8
 c1077bc:	e0822003 	add	r2, r2, r3
 c1077c0:	e59f3014 	ldr	r3, [pc, #20]	; c1077dc <getmem+0x74>
 c1077c4:	e5832000 	str	r2, [r3]
 c1077c8:	e51b3010 	ldr	r3, [fp, #-16]
 c1077cc:	e1a00003 	mov	r0, r3
 c1077d0:	e24bd00c 	sub	sp, fp, #12
 c1077d4:	e89d6800 	ldm	sp, {fp, sp, lr}
 c1077d8:	e12fff1e 	bx	lr
 c1077dc:	0c10c0c8 	.word	0x0c10c0c8

0c1077e0 <fatalerror>:
 c1077e0:	e1a0c00d 	mov	ip, sp
 c1077e4:	e92dd800 	push	{fp, ip, lr, pc}
 c1077e8:	e24cb004 	sub	fp, ip, #4
 c1077ec:	e24dd018 	sub	sp, sp, #24
 c1077f0:	e1a03000 	mov	r3, r0
 c1077f4:	e50b101c 	str	r1, [fp, #-28]	; 0xffffffe4
 c1077f8:	e50b2020 	str	r2, [fp, #-32]	; 0xffffffe0
 c1077fc:	e54b3015 	strb	r3, [fp, #-21]	; 0xffffffeb
 c107800:	e59f00a8 	ldr	r0, [pc, #168]	; c1078b0 <fatalerror+0xd0>
 c107804:	eb0005f3 	bl	c108fd8 <uart0_puts>
 c107808:	e51b001c 	ldr	r0, [fp, #-28]	; 0xffffffe4
 c10780c:	eb0005f1 	bl	c108fd8 <uart0_puts>
 c107810:	e59f009c 	ldr	r0, [pc, #156]	; c1078b4 <fatalerror+0xd4>
 c107814:	eb0005ef 	bl	c108fd8 <uart0_puts>
 c107818:	e51b0020 	ldr	r0, [fp, #-32]	; 0xffffffe0
 c10781c:	eb000656 	bl	c10917c <uart0_puthex>
 c107820:	e59f3090 	ldr	r3, [pc, #144]	; c1078b8 <fatalerror+0xd8>
 c107824:	e59f2090 	ldr	r2, [pc, #144]	; c1078bc <fatalerror+0xdc>
 c107828:	e5832000 	str	r2, [r3]
 c10782c:	e55b3015 	ldrb	r3, [fp, #-21]	; 0xffffffeb
 c107830:	e1a00003 	mov	r0, r3
 c107834:	ebfffa0e 	bl	c106074 <segs_putchar>
 c107838:	e59f3080 	ldr	r3, [pc, #128]	; c1078c0 <fatalerror+0xe0>
 c10783c:	e3a02000 	mov	r2, #0
 c107840:	e5832000 	str	r2, [r3]
 c107844:	e3a03000 	mov	r3, #0
 c107848:	e50b3010 	str	r3, [fp, #-16]
 c10784c:	ea000002 	b	c10785c <fatalerror+0x7c>
 c107850:	e51b3010 	ldr	r3, [fp, #-16]
 c107854:	e2833001 	add	r3, r3, #1
 c107858:	e50b3010 	str	r3, [fp, #-16]
 c10785c:	e51b2010 	ldr	r2, [fp, #-16]
 c107860:	e59f305c 	ldr	r3, [pc, #92]	; c1078c4 <fatalerror+0xe4>
 c107864:	e1520003 	cmp	r2, r3
 c107868:	9afffff8 	bls	c107850 <fatalerror+0x70>
 c10786c:	e3a03785 	mov	r3, #34865152	; 0x2140000
 c107870:	e3e02000 	mvn	r2, #0
 c107874:	e5c32000 	strb	r2, [r3]
 c107878:	e59f3040 	ldr	r3, [pc, #64]	; c1078c0 <fatalerror+0xe0>
 c10787c:	e3a02c06 	mov	r2, #1536	; 0x600
 c107880:	e5832000 	str	r2, [r3]
 c107884:	e3a03000 	mov	r3, #0
 c107888:	e50b3010 	str	r3, [fp, #-16]
 c10788c:	ea000002 	b	c10789c <fatalerror+0xbc>
 c107890:	e51b3010 	ldr	r3, [fp, #-16]
 c107894:	e2833001 	add	r3, r3, #1
 c107898:	e50b3010 	str	r3, [fp, #-16]
 c10789c:	e51b2010 	ldr	r2, [fp, #-16]
 c1078a0:	e59f301c 	ldr	r3, [pc, #28]	; c1078c4 <fatalerror+0xe4>
 c1078a4:	e1520003 	cmp	r2, r3
 c1078a8:	9afffff8 	bls	c107890 <fatalerror+0xb0>
 c1078ac:	eaffffde 	b	c10782c <fatalerror+0x4c>
 c1078b0:	0c10afe8 	.word	0x0c10afe8
 c1078b4:	0c10affc 	.word	0x0c10affc
 c1078b8:	01d20008 	.word	0x01d20008
 c1078bc:	0000014f 	.word	0x0000014f
 c1078c0:	01d2000c 	.word	0x01d2000c
 c1078c4:	0001869f 	.word	0x0001869f

0c1078c8 <sleep>:
 c1078c8:	e1a0c00d 	mov	ip, sp
 c1078cc:	e92dd800 	push	{fp, ip, lr, pc}
 c1078d0:	e24cb004 	sub	fp, ip, #4
 c1078d4:	e59f302c 	ldr	r3, [pc, #44]	; c107908 <sleep+0x40>
 c1078d8:	e59f2028 	ldr	r2, [pc, #40]	; c107908 <sleep+0x40>
 c1078dc:	e5922000 	ldr	r2, [r2]
 c1078e0:	e3822004 	orr	r2, r2, #4
 c1078e4:	e5832000 	str	r2, [r3]
 c1078e8:	e59f3018 	ldr	r3, [pc, #24]	; c107908 <sleep+0x40>
 c1078ec:	e59f2014 	ldr	r2, [pc, #20]	; c107908 <sleep+0x40>
 c1078f0:	e5922000 	ldr	r2, [r2]
 c1078f4:	e3c22004 	bic	r2, r2, #4
 c1078f8:	e5832000 	str	r2, [r3]
 c1078fc:	e24bd00c 	sub	sp, fp, #12
 c107900:	e89d6800 	ldm	sp, {fp, sp, lr}
 c107904:	e12fff1e 	bx	lr
 c107908:	01d80004 	.word	0x01d80004

0c10790c <timers_init>:
 c10790c:	e1a0c00d 	mov	ip, sp
 c107910:	e92dd800 	push	{fp, ip, lr, pc}
 c107914:	e24cb004 	sub	fp, ip, #4
 c107918:	e3a00003 	mov	r0, #3
 c10791c:	ebfff6e7 	bl	c1054c0 <power_on>
 c107920:	e59f30bc 	ldr	r3, [pc, #188]	; c1079e4 <timers_init+0xd8>
 c107924:	e3a02000 	mov	r2, #0
 c107928:	e5832000 	str	r2, [r3]
 c10792c:	e59f30b4 	ldr	r3, [pc, #180]	; c1079e8 <timers_init+0xdc>
 c107930:	e3a02000 	mov	r2, #0
 c107934:	e5832000 	str	r2, [r3]
 c107938:	e59f30ac 	ldr	r3, [pc, #172]	; c1079ec <timers_init+0xe0>
 c10793c:	e3a02000 	mov	r2, #0
 c107940:	e5832000 	str	r2, [r3]
 c107944:	e59f30a4 	ldr	r3, [pc, #164]	; c1079f0 <timers_init+0xe4>
 c107948:	e3a02000 	mov	r2, #0
 c10794c:	e5832000 	str	r2, [r3]
 c107950:	e59f309c 	ldr	r3, [pc, #156]	; c1079f4 <timers_init+0xe8>
 c107954:	e3a02000 	mov	r2, #0
 c107958:	e5832000 	str	r2, [r3]
 c10795c:	e59f3094 	ldr	r3, [pc, #148]	; c1079f8 <timers_init+0xec>
 c107960:	e3a02000 	mov	r2, #0
 c107964:	e5832000 	str	r2, [r3]
 c107968:	e59f308c 	ldr	r3, [pc, #140]	; c1079fc <timers_init+0xf0>
 c10796c:	e3a02000 	mov	r2, #0
 c107970:	e5832000 	str	r2, [r3]
 c107974:	e59f3084 	ldr	r3, [pc, #132]	; c107a00 <timers_init+0xf4>
 c107978:	e3a02000 	mov	r2, #0
 c10797c:	e5832000 	str	r2, [r3]
 c107980:	e59f307c 	ldr	r3, [pc, #124]	; c107a04 <timers_init+0xf8>
 c107984:	e3a02000 	mov	r2, #0
 c107988:	e5832000 	str	r2, [r3]
 c10798c:	e59f3074 	ldr	r3, [pc, #116]	; c107a08 <timers_init+0xfc>
 c107990:	e3a02000 	mov	r2, #0
 c107994:	e5832000 	str	r2, [r3]
 c107998:	e59f306c 	ldr	r3, [pc, #108]	; c107a0c <timers_init+0x100>
 c10799c:	e3a02000 	mov	r2, #0
 c1079a0:	e5832000 	str	r2, [r3]
 c1079a4:	e59f3064 	ldr	r3, [pc, #100]	; c107a10 <timers_init+0x104>
 c1079a8:	e3a02000 	mov	r2, #0
 c1079ac:	e5832000 	str	r2, [r3]
 c1079b0:	e59f305c 	ldr	r3, [pc, #92]	; c107a14 <timers_init+0x108>
 c1079b4:	e3a02000 	mov	r2, #0
 c1079b8:	e5832000 	str	r2, [r3]
 c1079bc:	e59f3054 	ldr	r3, [pc, #84]	; c107a18 <timers_init+0x10c>
 c1079c0:	e59f2054 	ldr	r2, [pc, #84]	; c107a1c <timers_init+0x110>
 c1079c4:	e5832000 	str	r2, [r3]
 c1079c8:	e59f3048 	ldr	r3, [pc, #72]	; c107a18 <timers_init+0x10c>
 c1079cc:	e3a02000 	mov	r2, #0
 c1079d0:	e5832000 	str	r2, [r3]
 c1079d4:	eb000011 	bl	c107a20 <sw_delay_init>
 c1079d8:	e24bd00c 	sub	sp, fp, #12
 c1079dc:	e89d6800 	ldm	sp, {fp, sp, lr}
 c1079e0:	e12fff1e 	bx	lr
 c1079e4:	01d50000 	.word	0x01d50000
 c1079e8:	01d50004 	.word	0x01d50004
 c1079ec:	01d5000c 	.word	0x01d5000c
 c1079f0:	01d50010 	.word	0x01d50010
 c1079f4:	01d50018 	.word	0x01d50018
 c1079f8:	01d5001c 	.word	0x01d5001c
 c1079fc:	01d50024 	.word	0x01d50024
 c107a00:	01d50028 	.word	0x01d50028
 c107a04:	01d50030 	.word	0x01d50030
 c107a08:	01d50034 	.word	0x01d50034
 c107a0c:	01d5003c 	.word	0x01d5003c
 c107a10:	01d50040 	.word	0x01d50040
 c107a14:	01d50048 	.word	0x01d50048
 c107a18:	01d50008 	.word	0x01d50008
 c107a1c:	02222202 	.word	0x02222202

0c107a20 <sw_delay_init>:
 c107a20:	e1a0c00d 	mov	ip, sp
 c107a24:	e92dd810 	push	{r4, fp, ip, lr, pc}
 c107a28:	e24cb004 	sub	fp, ip, #4
 c107a2c:	e24dd00c 	sub	sp, sp, #12
 c107a30:	eb0000d2 	bl	c107d80 <timer3_start>
 c107a34:	e59f3088 	ldr	r3, [pc, #136]	; c107ac4 <sw_delay_init+0xa4>
 c107a38:	e50b3018 	str	r3, [fp, #-24]	; 0xffffffe8
 c107a3c:	ea000002 	b	c107a4c <sw_delay_init+0x2c>
 c107a40:	e51b3018 	ldr	r3, [fp, #-24]	; 0xffffffe8
 c107a44:	e2433001 	sub	r3, r3, #1
 c107a48:	e50b3018 	str	r3, [fp, #-24]	; 0xffffffe8
 c107a4c:	e51b3018 	ldr	r3, [fp, #-24]	; 0xffffffe8
 c107a50:	e3530000 	cmp	r3, #0
 c107a54:	1afffff9 	bne	c107a40 <sw_delay_init+0x20>
 c107a58:	eb0000ff 	bl	c107e5c <timer3_stop>
 c107a5c:	e1a03000 	mov	r3, r0
 c107a60:	e1a02003 	mov	r2, r3
 c107a64:	e1a03002 	mov	r3, r2
 c107a68:	e3a04000 	mov	r4, #0
 c107a6c:	e3a00315 	mov	r0, #1409286144	; 0x54000000
 c107a70:	e2800abe 	add	r0, r0, #778240	; 0xbe000
 c107a74:	e2800b01 	add	r0, r0, #1024	; 0x400
 c107a78:	e3a01002 	mov	r1, #2
 c107a7c:	e1a02003 	mov	r2, r3
 c107a80:	e1a03004 	mov	r3, r4
 c107a84:	eb0007b7 	bl	c109968 <__aeabi_uldivmod>
 c107a88:	e1a03000 	mov	r3, r0
 c107a8c:	e1a04001 	mov	r4, r1
 c107a90:	e1a02003 	mov	r2, r3
 c107a94:	e59f302c 	ldr	r3, [pc, #44]	; c107ac8 <sw_delay_init+0xa8>
 c107a98:	e5832000 	str	r2, [r3]
 c107a9c:	e59f3024 	ldr	r3, [pc, #36]	; c107ac8 <sw_delay_init+0xa8>
 c107aa0:	e5932000 	ldr	r2, [r3]
 c107aa4:	e59f3020 	ldr	r3, [pc, #32]	; c107acc <sw_delay_init+0xac>
 c107aa8:	e0831392 	umull	r1, r3, r2, r3
 c107aac:	e1a02323 	lsr	r2, r3, #6
 c107ab0:	e59f3018 	ldr	r3, [pc, #24]	; c107ad0 <sw_delay_init+0xb0>
 c107ab4:	e5832000 	str	r2, [r3]
 c107ab8:	e24bd010 	sub	sp, fp, #16
 c107abc:	e89d6810 	ldm	sp, {r4, fp, sp, lr}
 c107ac0:	e12fff1e 	bx	lr
 c107ac4:	000f4240 	.word	0x000f4240
 c107ac8:	0c1157f8 	.word	0x0c1157f8
 c107acc:	10624dd3 	.word	0x10624dd3
 c107ad0:	0c1157f4 	.word	0x0c1157f4

0c107ad4 <timer3_delay_ms>:
 c107ad4:	e1a0c00d 	mov	ip, sp
 c107ad8:	e92dd800 	push	{fp, ip, lr, pc}
 c107adc:	e24cb004 	sub	fp, ip, #4
 c107ae0:	e24dd008 	sub	sp, sp, #8
 c107ae4:	e1a03000 	mov	r3, r0
 c107ae8:	e14b30be 	strh	r3, [fp, #-14]
 c107aec:	ea00002b 	b	c107ba0 <timer3_delay_ms+0xcc>
 c107af0:	e59f30c0 	ldr	r3, [pc, #192]	; c107bb8 <timer3_delay_ms+0xe4>
 c107af4:	e59f20bc 	ldr	r2, [pc, #188]	; c107bb8 <timer3_delay_ms+0xe4>
 c107af8:	e5922000 	ldr	r2, [r2]
 c107afc:	e3c22cff 	bic	r2, r2, #65280	; 0xff00
 c107b00:	e5832000 	str	r2, [r3]
 c107b04:	e59f30b0 	ldr	r3, [pc, #176]	; c107bbc <timer3_delay_ms+0xe8>
 c107b08:	e59f20ac 	ldr	r2, [pc, #172]	; c107bbc <timer3_delay_ms+0xe8>
 c107b0c:	e5922000 	ldr	r2, [r2]
 c107b10:	e3c22a0f 	bic	r2, r2, #61440	; 0xf000
 c107b14:	e5832000 	str	r2, [r3]
 c107b18:	e59f30a0 	ldr	r3, [pc, #160]	; c107bc0 <timer3_delay_ms+0xec>
 c107b1c:	e59f20a0 	ldr	r2, [pc, #160]	; c107bc4 <timer3_delay_ms+0xf0>
 c107b20:	e5921000 	ldr	r1, [r2]
 c107b24:	e59f209c 	ldr	r2, [pc, #156]	; c107bc8 <timer3_delay_ms+0xf4>
 c107b28:	e0820291 	umull	r0, r2, r1, r2
 c107b2c:	e1a023a2 	lsr	r2, r2, #7
 c107b30:	e1a02802 	lsl	r2, r2, #16
 c107b34:	e1a02822 	lsr	r2, r2, #16
 c107b38:	e5832000 	str	r2, [r3]
 c107b3c:	e59f3088 	ldr	r3, [pc, #136]	; c107bcc <timer3_delay_ms+0xf8>
 c107b40:	e59f2084 	ldr	r2, [pc, #132]	; c107bcc <timer3_delay_ms+0xf8>
 c107b44:	e5922000 	ldr	r2, [r2]
 c107b48:	e3c2280f 	bic	r2, r2, #983040	; 0xf0000
 c107b4c:	e3822802 	orr	r2, r2, #131072	; 0x20000
 c107b50:	e5832000 	str	r2, [r3]
 c107b54:	e59f3070 	ldr	r3, [pc, #112]	; c107bcc <timer3_delay_ms+0xf8>
 c107b58:	e59f206c 	ldr	r2, [pc, #108]	; c107bcc <timer3_delay_ms+0xf8>
 c107b5c:	e5922000 	ldr	r2, [r2]
 c107b60:	e3c2280f 	bic	r2, r2, #983040	; 0xf0000
 c107b64:	e3822801 	orr	r2, r2, #65536	; 0x10000
 c107b68:	e5832000 	str	r2, [r3]
 c107b6c:	e1a00000 	nop			; (mov r0, r0)
 c107b70:	e59f3058 	ldr	r3, [pc, #88]	; c107bd0 <timer3_delay_ms+0xfc>
 c107b74:	e5933000 	ldr	r3, [r3]
 c107b78:	e3530000 	cmp	r3, #0
 c107b7c:	0afffffb 	beq	c107b70 <timer3_delay_ms+0x9c>
 c107b80:	e1a00000 	nop			; (mov r0, r0)
 c107b84:	e59f3044 	ldr	r3, [pc, #68]	; c107bd0 <timer3_delay_ms+0xfc>
 c107b88:	e5933000 	ldr	r3, [r3]
 c107b8c:	e3530000 	cmp	r3, #0
 c107b90:	1afffffb 	bne	c107b84 <timer3_delay_ms+0xb0>
 c107b94:	e15b30be 	ldrh	r3, [fp, #-14]
 c107b98:	e2433001 	sub	r3, r3, #1
 c107b9c:	e14b30be 	strh	r3, [fp, #-14]
 c107ba0:	e15b30be 	ldrh	r3, [fp, #-14]
 c107ba4:	e3530000 	cmp	r3, #0
 c107ba8:	1affffd0 	bne	c107af0 <timer3_delay_ms+0x1c>
 c107bac:	e24bd00c 	sub	sp, fp, #12
 c107bb0:	e89d6800 	ldm	sp, {fp, sp, lr}
 c107bb4:	e12fff1e 	bx	lr
 c107bb8:	01d50000 	.word	0x01d50000
 c107bbc:	01d50004 	.word	0x01d50004
 c107bc0:	01d50030 	.word	0x01d50030
 c107bc4:	0c10c0c4 	.word	0x0c10c0c4
 c107bc8:	10624dd3 	.word	0x10624dd3
 c107bcc:	01d50008 	.word	0x01d50008
 c107bd0:	01d50038 	.word	0x01d50038

0c107bd4 <sw_delay_ms>:
 c107bd4:	e1a0c00d 	mov	ip, sp
 c107bd8:	e92dd800 	push	{fp, ip, lr, pc}
 c107bdc:	e24cb004 	sub	fp, ip, #4
 c107be0:	e24dd010 	sub	sp, sp, #16
 c107be4:	e1a03000 	mov	r3, r0
 c107be8:	e14b31b6 	strh	r3, [fp, #-22]	; 0xffffffea
 c107bec:	e15b31b6 	ldrh	r3, [fp, #-22]	; 0xffffffea
 c107bf0:	e59f2030 	ldr	r2, [pc, #48]	; c107c28 <sw_delay_ms+0x54>
 c107bf4:	e5922000 	ldr	r2, [r2]
 c107bf8:	e0030392 	mul	r3, r2, r3
 c107bfc:	e50b3010 	str	r3, [fp, #-16]
 c107c00:	ea000002 	b	c107c10 <sw_delay_ms+0x3c>
 c107c04:	e51b3010 	ldr	r3, [fp, #-16]
 c107c08:	e2433001 	sub	r3, r3, #1
 c107c0c:	e50b3010 	str	r3, [fp, #-16]
 c107c10:	e51b3010 	ldr	r3, [fp, #-16]
 c107c14:	e3530000 	cmp	r3, #0
 c107c18:	1afffff9 	bne	c107c04 <sw_delay_ms+0x30>
 c107c1c:	e24bd00c 	sub	sp, fp, #12
 c107c20:	e89d6800 	ldm	sp, {fp, sp, lr}
 c107c24:	e12fff1e 	bx	lr
 c107c28:	0c1157f4 	.word	0x0c1157f4

0c107c2c <timer3_delay_s>:
 c107c2c:	e1a0c00d 	mov	ip, sp
 c107c30:	e92dd800 	push	{fp, ip, lr, pc}
 c107c34:	e24cb004 	sub	fp, ip, #4
 c107c38:	e24dd008 	sub	sp, sp, #8
 c107c3c:	e1a03000 	mov	r3, r0
 c107c40:	e14b30be 	strh	r3, [fp, #-14]
 c107c44:	ea00002b 	b	c107cf8 <timer3_delay_s+0xcc>
 c107c48:	e59f30c0 	ldr	r3, [pc, #192]	; c107d10 <timer3_delay_s+0xe4>
 c107c4c:	e59f20bc 	ldr	r2, [pc, #188]	; c107d10 <timer3_delay_s+0xe4>
 c107c50:	e5922000 	ldr	r2, [r2]
 c107c54:	e3c22cff 	bic	r2, r2, #65280	; 0xff00
 c107c58:	e3822c3f 	orr	r2, r2, #16128	; 0x3f00
 c107c5c:	e5832000 	str	r2, [r3]
 c107c60:	e59f30ac 	ldr	r3, [pc, #172]	; c107d14 <timer3_delay_s+0xe8>
 c107c64:	e59f20a8 	ldr	r2, [pc, #168]	; c107d14 <timer3_delay_s+0xe8>
 c107c68:	e5922000 	ldr	r2, [r2]
 c107c6c:	e3c22a0f 	bic	r2, r2, #61440	; 0xf000
 c107c70:	e3822901 	orr	r2, r2, #16384	; 0x4000
 c107c74:	e5832000 	str	r2, [r3]
 c107c78:	e59f3098 	ldr	r3, [pc, #152]	; c107d18 <timer3_delay_s+0xec>
 c107c7c:	e59f2098 	ldr	r2, [pc, #152]	; c107d1c <timer3_delay_s+0xf0>
 c107c80:	e5922000 	ldr	r2, [r2]
 c107c84:	e1a025a2 	lsr	r2, r2, #11
 c107c88:	e1a02802 	lsl	r2, r2, #16
 c107c8c:	e1a02822 	lsr	r2, r2, #16
 c107c90:	e5832000 	str	r2, [r3]
 c107c94:	e59f3084 	ldr	r3, [pc, #132]	; c107d20 <timer3_delay_s+0xf4>
 c107c98:	e59f2080 	ldr	r2, [pc, #128]	; c107d20 <timer3_delay_s+0xf4>
 c107c9c:	e5922000 	ldr	r2, [r2]
 c107ca0:	e3c2280f 	bic	r2, r2, #983040	; 0xf0000
 c107ca4:	e3822802 	orr	r2, r2, #131072	; 0x20000
 c107ca8:	e5832000 	str	r2, [r3]
 c107cac:	e59f306c 	ldr	r3, [pc, #108]	; c107d20 <timer3_delay_s+0xf4>
 c107cb0:	e59f2068 	ldr	r2, [pc, #104]	; c107d20 <timer3_delay_s+0xf4>
 c107cb4:	e5922000 	ldr	r2, [r2]
 c107cb8:	e3c2280f 	bic	r2, r2, #983040	; 0xf0000
 c107cbc:	e3822801 	orr	r2, r2, #65536	; 0x10000
 c107cc0:	e5832000 	str	r2, [r3]
 c107cc4:	e1a00000 	nop			; (mov r0, r0)
 c107cc8:	e59f3054 	ldr	r3, [pc, #84]	; c107d24 <timer3_delay_s+0xf8>
 c107ccc:	e5933000 	ldr	r3, [r3]
 c107cd0:	e3530000 	cmp	r3, #0
 c107cd4:	0afffffb 	beq	c107cc8 <timer3_delay_s+0x9c>
 c107cd8:	e1a00000 	nop			; (mov r0, r0)
 c107cdc:	e59f3040 	ldr	r3, [pc, #64]	; c107d24 <timer3_delay_s+0xf8>
 c107ce0:	e5933000 	ldr	r3, [r3]
 c107ce4:	e3530000 	cmp	r3, #0
 c107ce8:	1afffffb 	bne	c107cdc <timer3_delay_s+0xb0>
 c107cec:	e15b30be 	ldrh	r3, [fp, #-14]
 c107cf0:	e2433001 	sub	r3, r3, #1
 c107cf4:	e14b30be 	strh	r3, [fp, #-14]
 c107cf8:	e15b30be 	ldrh	r3, [fp, #-14]
 c107cfc:	e3530000 	cmp	r3, #0
 c107d00:	1affffd0 	bne	c107c48 <timer3_delay_s+0x1c>
 c107d04:	e24bd00c 	sub	sp, fp, #12
 c107d08:	e89d6800 	ldm	sp, {fp, sp, lr}
 c107d0c:	e12fff1e 	bx	lr
 c107d10:	01d50000 	.word	0x01d50000
 c107d14:	01d50004 	.word	0x01d50004
 c107d18:	01d50030 	.word	0x01d50030
 c107d1c:	0c10c0c4 	.word	0x0c10c0c4
 c107d20:	01d50008 	.word	0x01d50008
 c107d24:	01d50038 	.word	0x01d50038

0c107d28 <sw_delay_s>:
 c107d28:	e1a0c00d 	mov	ip, sp
 c107d2c:	e92dd800 	push	{fp, ip, lr, pc}
 c107d30:	e24cb004 	sub	fp, ip, #4
 c107d34:	e24dd010 	sub	sp, sp, #16
 c107d38:	e1a03000 	mov	r3, r0
 c107d3c:	e14b31b6 	strh	r3, [fp, #-22]	; 0xffffffea
 c107d40:	e15b31b6 	ldrh	r3, [fp, #-22]	; 0xffffffea
 c107d44:	e59f2030 	ldr	r2, [pc, #48]	; c107d7c <sw_delay_s+0x54>
 c107d48:	e5922000 	ldr	r2, [r2]
 c107d4c:	e0030392 	mul	r3, r2, r3
 c107d50:	e50b3010 	str	r3, [fp, #-16]
 c107d54:	ea000002 	b	c107d64 <sw_delay_s+0x3c>
 c107d58:	e51b3010 	ldr	r3, [fp, #-16]
 c107d5c:	e2433001 	sub	r3, r3, #1
 c107d60:	e50b3010 	str	r3, [fp, #-16]
 c107d64:	e51b3010 	ldr	r3, [fp, #-16]
 c107d68:	e3530000 	cmp	r3, #0
 c107d6c:	1afffff9 	bne	c107d58 <sw_delay_s+0x30>
 c107d70:	e24bd00c 	sub	sp, fp, #12
 c107d74:	e89d6800 	ldm	sp, {fp, sp, lr}
 c107d78:	e12fff1e 	bx	lr
 c107d7c:	0c1157f8 	.word	0x0c1157f8

0c107d80 <timer3_start>:
 c107d80:	e1a0c00d 	mov	ip, sp
 c107d84:	e92dd800 	push	{fp, ip, lr, pc}
 c107d88:	e24cb004 	sub	fp, ip, #4
 c107d8c:	e59f30a8 	ldr	r3, [pc, #168]	; c107e3c <timer3_start+0xbc>
 c107d90:	e59f20a4 	ldr	r2, [pc, #164]	; c107e3c <timer3_start+0xbc>
 c107d94:	e5922000 	ldr	r2, [r2]
 c107d98:	e3c21cff 	bic	r1, r2, #65280	; 0xff00
 c107d9c:	e59f209c 	ldr	r2, [pc, #156]	; c107e40 <timer3_start+0xc0>
 c107da0:	e5920000 	ldr	r0, [r2]
 c107da4:	e59f2098 	ldr	r2, [pc, #152]	; c107e44 <timer3_start+0xc4>
 c107da8:	e082c290 	umull	ip, r2, r0, r2
 c107dac:	e1a02922 	lsr	r2, r2, #18
 c107db0:	e20220ff 	and	r2, r2, #255	; 0xff
 c107db4:	e2422001 	sub	r2, r2, #1
 c107db8:	e20220ff 	and	r2, r2, #255	; 0xff
 c107dbc:	e1a02402 	lsl	r2, r2, #8
 c107dc0:	e1812002 	orr	r2, r1, r2
 c107dc4:	e5832000 	str	r2, [r3]
 c107dc8:	e59f3078 	ldr	r3, [pc, #120]	; c107e48 <timer3_start+0xc8>
 c107dcc:	e59f2074 	ldr	r2, [pc, #116]	; c107e48 <timer3_start+0xc8>
 c107dd0:	e5922000 	ldr	r2, [r2]
 c107dd4:	e3c22a0f 	bic	r2, r2, #61440	; 0xf000
 c107dd8:	e3822901 	orr	r2, r2, #16384	; 0x4000
 c107ddc:	e5832000 	str	r2, [r3]
 c107de0:	e59f3064 	ldr	r3, [pc, #100]	; c107e4c <timer3_start+0xcc>
 c107de4:	e59f2064 	ldr	r2, [pc, #100]	; c107e50 <timer3_start+0xd0>
 c107de8:	e5832000 	str	r2, [r3]
 c107dec:	e59f3060 	ldr	r3, [pc, #96]	; c107e54 <timer3_start+0xd4>
 c107df0:	e59f205c 	ldr	r2, [pc, #92]	; c107e54 <timer3_start+0xd4>
 c107df4:	e5922000 	ldr	r2, [r2]
 c107df8:	e3c2280f 	bic	r2, r2, #983040	; 0xf0000
 c107dfc:	e3822802 	orr	r2, r2, #131072	; 0x20000
 c107e00:	e5832000 	str	r2, [r3]
 c107e04:	e59f3048 	ldr	r3, [pc, #72]	; c107e54 <timer3_start+0xd4>
 c107e08:	e59f2044 	ldr	r2, [pc, #68]	; c107e54 <timer3_start+0xd4>
 c107e0c:	e5922000 	ldr	r2, [r2]
 c107e10:	e3c2280f 	bic	r2, r2, #983040	; 0xf0000
 c107e14:	e3822801 	orr	r2, r2, #65536	; 0x10000
 c107e18:	e5832000 	str	r2, [r3]
 c107e1c:	e1a00000 	nop			; (mov r0, r0)
 c107e20:	e59f3030 	ldr	r3, [pc, #48]	; c107e58 <timer3_start+0xd8>
 c107e24:	e5933000 	ldr	r3, [r3]
 c107e28:	e3530000 	cmp	r3, #0
 c107e2c:	0afffffb 	beq	c107e20 <timer3_start+0xa0>
 c107e30:	e24bd00c 	sub	sp, fp, #12
 c107e34:	e89d6800 	ldm	sp, {fp, sp, lr}
 c107e38:	e12fff1e 	bx	lr
 c107e3c:	01d50000 	.word	0x01d50000
 c107e40:	0c10c0c4 	.word	0x0c10c0c4
 c107e44:	d1b71759 	.word	0xd1b71759
 c107e48:	01d50004 	.word	0x01d50004
 c107e4c:	01d50030 	.word	0x01d50030
 c107e50:	0000ffff 	.word	0x0000ffff
 c107e54:	01d50008 	.word	0x01d50008
 c107e58:	01d50038 	.word	0x01d50038

0c107e5c <timer3_stop>:
 c107e5c:	e1a0c00d 	mov	ip, sp
 c107e60:	e92dd800 	push	{fp, ip, lr, pc}
 c107e64:	e24cb004 	sub	fp, ip, #4
 c107e68:	e59f3038 	ldr	r3, [pc, #56]	; c107ea8 <timer3_stop+0x4c>
 c107e6c:	e59f2034 	ldr	r2, [pc, #52]	; c107ea8 <timer3_stop+0x4c>
 c107e70:	e5922000 	ldr	r2, [r2]
 c107e74:	e3c22801 	bic	r2, r2, #65536	; 0x10000
 c107e78:	e5832000 	str	r2, [r3]
 c107e7c:	e59f3028 	ldr	r3, [pc, #40]	; c107eac <timer3_stop+0x50>
 c107e80:	e5933000 	ldr	r3, [r3]
 c107e84:	e1a03803 	lsl	r3, r3, #16
 c107e88:	e1a03823 	lsr	r3, r3, #16
 c107e8c:	e1e03003 	mvn	r3, r3
 c107e90:	e1a03803 	lsl	r3, r3, #16
 c107e94:	e1a03823 	lsr	r3, r3, #16
 c107e98:	e1a00003 	mov	r0, r3
 c107e9c:	e24bd00c 	sub	sp, fp, #12
 c107ea0:	e89d6800 	ldm	sp, {fp, sp, lr}
 c107ea4:	e12fff1e 	bx	lr
 c107ea8:	01d50008 	.word	0x01d50008
 c107eac:	01d50038 	.word	0x01d50038

0c107eb0 <timer3_start_timeout>:
 c107eb0:	e1a0c00d 	mov	ip, sp
 c107eb4:	e92dd800 	push	{fp, ip, lr, pc}
 c107eb8:	e24cb004 	sub	fp, ip, #4
 c107ebc:	e24dd008 	sub	sp, sp, #8
 c107ec0:	e1a03000 	mov	r3, r0
 c107ec4:	e14b30be 	strh	r3, [fp, #-14]
 c107ec8:	e59f30a8 	ldr	r3, [pc, #168]	; c107f78 <timer3_start_timeout+0xc8>
 c107ecc:	e59f20a4 	ldr	r2, [pc, #164]	; c107f78 <timer3_start_timeout+0xc8>
 c107ed0:	e5922000 	ldr	r2, [r2]
 c107ed4:	e3c21cff 	bic	r1, r2, #65280	; 0xff00
 c107ed8:	e59f209c 	ldr	r2, [pc, #156]	; c107f7c <timer3_start_timeout+0xcc>
 c107edc:	e5920000 	ldr	r0, [r2]
 c107ee0:	e59f2098 	ldr	r2, [pc, #152]	; c107f80 <timer3_start_timeout+0xd0>
 c107ee4:	e082c290 	umull	ip, r2, r0, r2
 c107ee8:	e1a02922 	lsr	r2, r2, #18
 c107eec:	e20220ff 	and	r2, r2, #255	; 0xff
 c107ef0:	e2422001 	sub	r2, r2, #1
 c107ef4:	e20220ff 	and	r2, r2, #255	; 0xff
 c107ef8:	e1a02402 	lsl	r2, r2, #8
 c107efc:	e1812002 	orr	r2, r1, r2
 c107f00:	e5832000 	str	r2, [r3]
 c107f04:	e59f3078 	ldr	r3, [pc, #120]	; c107f84 <timer3_start_timeout+0xd4>
 c107f08:	e59f2074 	ldr	r2, [pc, #116]	; c107f84 <timer3_start_timeout+0xd4>
 c107f0c:	e5922000 	ldr	r2, [r2]
 c107f10:	e3c22a0f 	bic	r2, r2, #61440	; 0xf000
 c107f14:	e3822901 	orr	r2, r2, #16384	; 0x4000
 c107f18:	e5832000 	str	r2, [r3]
 c107f1c:	e59f3064 	ldr	r3, [pc, #100]	; c107f88 <timer3_start_timeout+0xd8>
 c107f20:	e15b20be 	ldrh	r2, [fp, #-14]
 c107f24:	e5832000 	str	r2, [r3]
 c107f28:	e59f305c 	ldr	r3, [pc, #92]	; c107f8c <timer3_start_timeout+0xdc>
 c107f2c:	e59f2058 	ldr	r2, [pc, #88]	; c107f8c <timer3_start_timeout+0xdc>
 c107f30:	e5922000 	ldr	r2, [r2]
 c107f34:	e3c2280f 	bic	r2, r2, #983040	; 0xf0000
 c107f38:	e3822802 	orr	r2, r2, #131072	; 0x20000
 c107f3c:	e5832000 	str	r2, [r3]
 c107f40:	e59f3044 	ldr	r3, [pc, #68]	; c107f8c <timer3_start_timeout+0xdc>
 c107f44:	e59f2040 	ldr	r2, [pc, #64]	; c107f8c <timer3_start_timeout+0xdc>
 c107f48:	e5922000 	ldr	r2, [r2]
 c107f4c:	e3c2280f 	bic	r2, r2, #983040	; 0xf0000
 c107f50:	e3822801 	orr	r2, r2, #65536	; 0x10000
 c107f54:	e5832000 	str	r2, [r3]
 c107f58:	e1a00000 	nop			; (mov r0, r0)
 c107f5c:	e59f302c 	ldr	r3, [pc, #44]	; c107f90 <timer3_start_timeout+0xe0>
 c107f60:	e5933000 	ldr	r3, [r3]
 c107f64:	e3530000 	cmp	r3, #0
 c107f68:	0afffffb 	beq	c107f5c <timer3_start_timeout+0xac>
 c107f6c:	e24bd00c 	sub	sp, fp, #12
 c107f70:	e89d6800 	ldm	sp, {fp, sp, lr}
 c107f74:	e12fff1e 	bx	lr
 c107f78:	01d50000 	.word	0x01d50000
 c107f7c:	0c10c0c4 	.word	0x0c10c0c4
 c107f80:	d1b71759 	.word	0xd1b71759
 c107f84:	01d50004 	.word	0x01d50004
 c107f88:	01d50030 	.word	0x01d50030
 c107f8c:	01d50008 	.word	0x01d50008
 c107f90:	01d50038 	.word	0x01d50038

0c107f94 <timer3_timeout>:
 c107f94:	e1a0c00d 	mov	ip, sp
 c107f98:	e92dd800 	push	{fp, ip, lr, pc}
 c107f9c:	e24cb004 	sub	fp, ip, #4
 c107fa0:	e59f3024 	ldr	r3, [pc, #36]	; c107fcc <timer3_timeout+0x38>
 c107fa4:	e5933000 	ldr	r3, [r3]
 c107fa8:	e3530000 	cmp	r3, #0
 c107fac:	13a03000 	movne	r3, #0
 c107fb0:	03a03001 	moveq	r3, #1
 c107fb4:	e1a03803 	lsl	r3, r3, #16
 c107fb8:	e1a03823 	lsr	r3, r3, #16
 c107fbc:	e1a00003 	mov	r0, r3
 c107fc0:	e24bd00c 	sub	sp, fp, #12
 c107fc4:	e89d6800 	ldm	sp, {fp, sp, lr}
 c107fc8:	e12fff1e 	bx	lr
 c107fcc:	01d50038 	.word	0x01d50038

0c107fd0 <timer0_open_tick>:
 c107fd0:	e1a0c00d 	mov	ip, sp
 c107fd4:	e92dd810 	push	{r4, fp, ip, lr, pc}
 c107fd8:	e24cb004 	sub	fp, ip, #4
 c107fdc:	e24dd00c 	sub	sp, sp, #12
 c107fe0:	e50b0018 	str	r0, [fp, #-24]	; 0xffffffe8
 c107fe4:	e1a03001 	mov	r3, r1
 c107fe8:	e14b31ba 	strh	r3, [fp, #-26]	; 0xffffffe6
 c107fec:	e59f3204 	ldr	r3, [pc, #516]	; c1081f8 <timer0_open_tick+0x228>
 c107ff0:	e59f2200 	ldr	r2, [pc, #512]	; c1081f8 <timer0_open_tick+0x228>
 c107ff4:	e5922000 	ldr	r2, [r2]
 c107ff8:	e3822088 	orr	r2, r2, #136	; 0x88
 c107ffc:	e5832000 	str	r2, [r3]
 c108000:	e59f31f4 	ldr	r3, [pc, #500]	; c1081fc <timer0_open_tick+0x22c>
 c108004:	e51b2018 	ldr	r2, [fp, #-24]	; 0xffffffe8
 c108008:	e5832000 	str	r2, [r3]
 c10800c:	e59f31ec 	ldr	r3, [pc, #492]	; c108200 <timer0_open_tick+0x230>
 c108010:	e3a02a02 	mov	r2, #8192	; 0x2000
 c108014:	e5832000 	str	r2, [r3]
 c108018:	e59f21e4 	ldr	r2, [pc, #484]	; c108204 <timer0_open_tick+0x234>
 c10801c:	e59f31e0 	ldr	r3, [pc, #480]	; c108204 <timer0_open_tick+0x234>
 c108020:	e5933000 	ldr	r3, [r3]
 c108024:	e3c33301 	bic	r3, r3, #67108864	; 0x4000000
 c108028:	e3c33a02 	bic	r3, r3, #8192	; 0x2000
 c10802c:	e5823000 	str	r3, [r2]
 c108030:	e15b31ba 	ldrh	r3, [fp, #-26]	; 0xffffffe6
 c108034:	e3530000 	cmp	r3, #0
 c108038:	0a000018 	beq	c1080a0 <timer0_open_tick+0xd0>
 c10803c:	e15b31ba 	ldrh	r3, [fp, #-26]	; 0xffffffe6
 c108040:	e353000a 	cmp	r3, #10
 c108044:	8a000015 	bhi	c1080a0 <timer0_open_tick+0xd0>
 c108048:	e59f31b8 	ldr	r3, [pc, #440]	; c108208 <timer0_open_tick+0x238>
 c10804c:	e59f21b4 	ldr	r2, [pc, #436]	; c108208 <timer0_open_tick+0x238>
 c108050:	e5922000 	ldr	r2, [r2]
 c108054:	e3c220ff 	bic	r2, r2, #255	; 0xff
 c108058:	e3822031 	orr	r2, r2, #49	; 0x31
 c10805c:	e5832000 	str	r2, [r3]
 c108060:	e59f31a4 	ldr	r3, [pc, #420]	; c10820c <timer0_open_tick+0x23c>
 c108064:	e59f21a0 	ldr	r2, [pc, #416]	; c10820c <timer0_open_tick+0x23c>
 c108068:	e5922000 	ldr	r2, [r2]
 c10806c:	e3c2200f 	bic	r2, r2, #15
 c108070:	e3822004 	orr	r2, r2, #4
 c108074:	e5832000 	str	r2, [r3]
 c108078:	e59f4190 	ldr	r4, [pc, #400]	; c108210 <timer0_open_tick+0x240>
 c10807c:	e15b31ba 	ldrh	r3, [fp, #-26]	; 0xffffffe6
 c108080:	e59f018c 	ldr	r0, [pc, #396]	; c108214 <timer0_open_tick+0x244>
 c108084:	e1a01003 	mov	r1, r3
 c108088:	eb00059e 	bl	c109708 <__aeabi_uidiv>
 c10808c:	e1a03000 	mov	r3, r0
 c108090:	e1a03803 	lsl	r3, r3, #16
 c108094:	e1a03823 	lsr	r3, r3, #16
 c108098:	e5843000 	str	r3, [r4]
 c10809c:	ea000046 	b	c1081bc <timer0_open_tick+0x1ec>
 c1080a0:	e15b31ba 	ldrh	r3, [fp, #-26]	; 0xffffffe6
 c1080a4:	e353000a 	cmp	r3, #10
 c1080a8:	9a000016 	bls	c108108 <timer0_open_tick+0x138>
 c1080ac:	e15b31ba 	ldrh	r3, [fp, #-26]	; 0xffffffe6
 c1080b0:	e3530064 	cmp	r3, #100	; 0x64
 c1080b4:	8a000013 	bhi	c108108 <timer0_open_tick+0x138>
 c1080b8:	e59f3148 	ldr	r3, [pc, #328]	; c108208 <timer0_open_tick+0x238>
 c1080bc:	e59f2144 	ldr	r2, [pc, #324]	; c108208 <timer0_open_tick+0x238>
 c1080c0:	e5922000 	ldr	r2, [r2]
 c1080c4:	e3c220ff 	bic	r2, r2, #255	; 0xff
 c1080c8:	e3822004 	orr	r2, r2, #4
 c1080cc:	e5832000 	str	r2, [r3]
 c1080d0:	e59f3134 	ldr	r3, [pc, #308]	; c10820c <timer0_open_tick+0x23c>
 c1080d4:	e59f2130 	ldr	r2, [pc, #304]	; c10820c <timer0_open_tick+0x23c>
 c1080d8:	e5922000 	ldr	r2, [r2]
 c1080dc:	e3c2200f 	bic	r2, r2, #15
 c1080e0:	e3822004 	orr	r2, r2, #4
 c1080e4:	e5832000 	str	r2, [r3]
 c1080e8:	e59f4120 	ldr	r4, [pc, #288]	; c108210 <timer0_open_tick+0x240>
 c1080ec:	e15b31ba 	ldrh	r3, [fp, #-26]	; 0xffffffe6
 c1080f0:	e59f0120 	ldr	r0, [pc, #288]	; c108218 <timer0_open_tick+0x248>
 c1080f4:	e1a01003 	mov	r1, r3
 c1080f8:	eb000582 	bl	c109708 <__aeabi_uidiv>
 c1080fc:	e1a03000 	mov	r3, r0
 c108100:	e5843000 	str	r3, [r4]
 c108104:	ea00002c 	b	c1081bc <timer0_open_tick+0x1ec>
 c108108:	e15b31ba 	ldrh	r3, [fp, #-26]	; 0xffffffe6
 c10810c:	e3530064 	cmp	r3, #100	; 0x64
 c108110:	9a000015 	bls	c10816c <timer0_open_tick+0x19c>
 c108114:	e15b31ba 	ldrh	r3, [fp, #-26]	; 0xffffffe6
 c108118:	e3530ffa 	cmp	r3, #1000	; 0x3e8
 c10811c:	8a000012 	bhi	c10816c <timer0_open_tick+0x19c>
 c108120:	e59f30e0 	ldr	r3, [pc, #224]	; c108208 <timer0_open_tick+0x238>
 c108124:	e59f20dc 	ldr	r2, [pc, #220]	; c108208 <timer0_open_tick+0x238>
 c108128:	e5922000 	ldr	r2, [r2]
 c10812c:	e3c220ff 	bic	r2, r2, #255	; 0xff
 c108130:	e5832000 	str	r2, [r3]
 c108134:	e59f30d0 	ldr	r3, [pc, #208]	; c10820c <timer0_open_tick+0x23c>
 c108138:	e59f20cc 	ldr	r2, [pc, #204]	; c10820c <timer0_open_tick+0x23c>
 c10813c:	e5922000 	ldr	r2, [r2]
 c108140:	e3c2200f 	bic	r2, r2, #15
 c108144:	e3822003 	orr	r2, r2, #3
 c108148:	e5832000 	str	r2, [r3]
 c10814c:	e59f40bc 	ldr	r4, [pc, #188]	; c108210 <timer0_open_tick+0x240>
 c108150:	e15b31ba 	ldrh	r3, [fp, #-26]	; 0xffffffe6
 c108154:	e59f00c0 	ldr	r0, [pc, #192]	; c10821c <timer0_open_tick+0x24c>
 c108158:	e1a01003 	mov	r1, r3
 c10815c:	eb000569 	bl	c109708 <__aeabi_uidiv>
 c108160:	e1a03000 	mov	r3, r0
 c108164:	e5843000 	str	r3, [r4]
 c108168:	ea000013 	b	c1081bc <timer0_open_tick+0x1ec>
 c10816c:	e15b31ba 	ldrh	r3, [fp, #-26]	; 0xffffffe6
 c108170:	e3530ffa 	cmp	r3, #1000	; 0x3e8
 c108174:	9a000010 	bls	c1081bc <timer0_open_tick+0x1ec>
 c108178:	e59f3088 	ldr	r3, [pc, #136]	; c108208 <timer0_open_tick+0x238>
 c10817c:	e59f2084 	ldr	r2, [pc, #132]	; c108208 <timer0_open_tick+0x238>
 c108180:	e5922000 	ldr	r2, [r2]
 c108184:	e3c220ff 	bic	r2, r2, #255	; 0xff
 c108188:	e5832000 	str	r2, [r3]
 c10818c:	e59f3078 	ldr	r3, [pc, #120]	; c10820c <timer0_open_tick+0x23c>
 c108190:	e59f2074 	ldr	r2, [pc, #116]	; c10820c <timer0_open_tick+0x23c>
 c108194:	e5922000 	ldr	r2, [r2]
 c108198:	e3c2200f 	bic	r2, r2, #15
 c10819c:	e5832000 	str	r2, [r3]
 c1081a0:	e59f4068 	ldr	r4, [pc, #104]	; c108210 <timer0_open_tick+0x240>
 c1081a4:	e15b31ba 	ldrh	r3, [fp, #-26]	; 0xffffffe6
 c1081a8:	e59f0070 	ldr	r0, [pc, #112]	; c108220 <timer0_open_tick+0x250>
 c1081ac:	e1a01003 	mov	r1, r3
 c1081b0:	eb000554 	bl	c109708 <__aeabi_uidiv>
 c1081b4:	e1a03000 	mov	r3, r0
 c1081b8:	e5843000 	str	r3, [r4]
 c1081bc:	e59f3060 	ldr	r3, [pc, #96]	; c108224 <timer0_open_tick+0x254>
 c1081c0:	e59f205c 	ldr	r2, [pc, #92]	; c108224 <timer0_open_tick+0x254>
 c1081c4:	e5922000 	ldr	r2, [r2]
 c1081c8:	e3c2200f 	bic	r2, r2, #15
 c1081cc:	e382200a 	orr	r2, r2, #10
 c1081d0:	e5832000 	str	r2, [r3]
 c1081d4:	e59f3048 	ldr	r3, [pc, #72]	; c108224 <timer0_open_tick+0x254>
 c1081d8:	e59f2044 	ldr	r2, [pc, #68]	; c108224 <timer0_open_tick+0x254>
 c1081dc:	e5922000 	ldr	r2, [r2]
 c1081e0:	e3c2200f 	bic	r2, r2, #15
 c1081e4:	e3822009 	orr	r2, r2, #9
 c1081e8:	e5832000 	str	r2, [r3]
 c1081ec:	e24bd010 	sub	sp, fp, #16
 c1081f0:	e89d6810 	ldm	sp, {r4, fp, sp, lr}
 c1081f4:	e12fff1e 	bx	lr
 c1081f8:	01d80004 	.word	0x01d80004
 c1081fc:	0c7fff54 	.word	0x0c7fff54
 c108200:	01e00024 	.word	0x01e00024
 c108204:	01e0000c 	.word	0x01e0000c
 c108208:	01d50000 	.word	0x01d50000
 c10820c:	01d50004 	.word	0x01d50004
 c108210:	01d5000c 	.word	0x01d5000c
 c108214:	00009c40 	.word	0x00009c40
 c108218:	00061a80 	.word	0x00061a80
 c10821c:	003d0900 	.word	0x003d0900
 c108220:	01e84800 	.word	0x01e84800
 c108224:	01d50008 	.word	0x01d50008

0c108228 <timer0_open_ms>:
 c108228:	e1a0c00d 	mov	ip, sp
 c10822c:	e92dd800 	push	{fp, ip, lr, pc}
 c108230:	e24cb004 	sub	fp, ip, #4
 c108234:	e24dd008 	sub	sp, sp, #8
 c108238:	e50b0010 	str	r0, [fp, #-16]
 c10823c:	e1a03002 	mov	r3, r2
 c108240:	e14b11b2 	strh	r1, [fp, #-18]	; 0xffffffee
 c108244:	e54b3013 	strb	r3, [fp, #-19]	; 0xffffffed
 c108248:	e59f30dc 	ldr	r3, [pc, #220]	; c10832c <timer0_open_ms+0x104>
 c10824c:	e59f20d8 	ldr	r2, [pc, #216]	; c10832c <timer0_open_ms+0x104>
 c108250:	e5922000 	ldr	r2, [r2]
 c108254:	e3822088 	orr	r2, r2, #136	; 0x88
 c108258:	e5832000 	str	r2, [r3]
 c10825c:	e59f30cc 	ldr	r3, [pc, #204]	; c108330 <timer0_open_ms+0x108>
 c108260:	e51b2010 	ldr	r2, [fp, #-16]
 c108264:	e5832000 	str	r2, [r3]
 c108268:	e59f30c4 	ldr	r3, [pc, #196]	; c108334 <timer0_open_ms+0x10c>
 c10826c:	e3a02a02 	mov	r2, #8192	; 0x2000
 c108270:	e5832000 	str	r2, [r3]
 c108274:	e59f20bc 	ldr	r2, [pc, #188]	; c108338 <timer0_open_ms+0x110>
 c108278:	e59f30b8 	ldr	r3, [pc, #184]	; c108338 <timer0_open_ms+0x110>
 c10827c:	e5933000 	ldr	r3, [r3]
 c108280:	e3c33301 	bic	r3, r3, #67108864	; 0x4000000
 c108284:	e3c33a02 	bic	r3, r3, #8192	; 0x2000
 c108288:	e5823000 	str	r3, [r2]
 c10828c:	e59f30a8 	ldr	r3, [pc, #168]	; c10833c <timer0_open_ms+0x114>
 c108290:	e59f20a4 	ldr	r2, [pc, #164]	; c10833c <timer0_open_ms+0x114>
 c108294:	e5922000 	ldr	r2, [r2]
 c108298:	e3c220ff 	bic	r2, r2, #255	; 0xff
 c10829c:	e38220c7 	orr	r2, r2, #199	; 0xc7
 c1082a0:	e5832000 	str	r2, [r3]
 c1082a4:	e59f3094 	ldr	r3, [pc, #148]	; c108340 <timer0_open_ms+0x118>
 c1082a8:	e59f2090 	ldr	r2, [pc, #144]	; c108340 <timer0_open_ms+0x118>
 c1082ac:	e5922000 	ldr	r2, [r2]
 c1082b0:	e3c2200f 	bic	r2, r2, #15
 c1082b4:	e3822004 	orr	r2, r2, #4
 c1082b8:	e5832000 	str	r2, [r3]
 c1082bc:	e59f1080 	ldr	r1, [pc, #128]	; c108344 <timer0_open_ms+0x11c>
 c1082c0:	e15b21b2 	ldrh	r2, [fp, #-18]	; 0xffffffee
 c1082c4:	e1a03002 	mov	r3, r2
 c1082c8:	e1a03103 	lsl	r3, r3, #2
 c1082cc:	e0833002 	add	r3, r3, r2
 c1082d0:	e1a03083 	lsl	r3, r3, #1
 c1082d4:	e5813000 	str	r3, [r1]
 c1082d8:	e59f3068 	ldr	r3, [pc, #104]	; c108348 <timer0_open_ms+0x120>
 c1082dc:	e59f2064 	ldr	r2, [pc, #100]	; c108348 <timer0_open_ms+0x120>
 c1082e0:	e5922000 	ldr	r2, [r2]
 c1082e4:	e3c2100f 	bic	r1, r2, #15
 c1082e8:	e55b2013 	ldrb	r2, [fp, #-19]	; 0xffffffed
 c1082ec:	e1a02182 	lsl	r2, r2, #3
 c1082f0:	e1812002 	orr	r2, r1, r2
 c1082f4:	e3822002 	orr	r2, r2, #2
 c1082f8:	e5832000 	str	r2, [r3]
 c1082fc:	e59f3044 	ldr	r3, [pc, #68]	; c108348 <timer0_open_ms+0x120>
 c108300:	e59f2040 	ldr	r2, [pc, #64]	; c108348 <timer0_open_ms+0x120>
 c108304:	e5922000 	ldr	r2, [r2]
 c108308:	e3c2100f 	bic	r1, r2, #15
 c10830c:	e55b2013 	ldrb	r2, [fp, #-19]	; 0xffffffed
 c108310:	e1a02182 	lsl	r2, r2, #3
 c108314:	e1812002 	orr	r2, r1, r2
 c108318:	e3822001 	orr	r2, r2, #1
 c10831c:	e5832000 	str	r2, [r3]
 c108320:	e24bd00c 	sub	sp, fp, #12
 c108324:	e89d6800 	ldm	sp, {fp, sp, lr}
 c108328:	e12fff1e 	bx	lr
 c10832c:	01d80004 	.word	0x01d80004
 c108330:	0c7fff54 	.word	0x0c7fff54
 c108334:	01e00024 	.word	0x01e00024
 c108338:	01e0000c 	.word	0x01e0000c
 c10833c:	01d50000 	.word	0x01d50000
 c108340:	01d50004 	.word	0x01d50004
 c108344:	01d5000c 	.word	0x01d5000c
 c108348:	01d50008 	.word	0x01d50008

0c10834c <timer0_close>:
 c10834c:	e1a0c00d 	mov	ip, sp
 c108350:	e92dd800 	push	{fp, ip, lr, pc}
 c108354:	e24cb004 	sub	fp, ip, #4
 c108358:	e59f3068 	ldr	r3, [pc, #104]	; c1083c8 <timer0_close+0x7c>
 c10835c:	e3a02000 	mov	r2, #0
 c108360:	e5832000 	str	r2, [r3]
 c108364:	e59f3060 	ldr	r3, [pc, #96]	; c1083cc <timer0_close+0x80>
 c108368:	e3a02000 	mov	r2, #0
 c10836c:	e5832000 	str	r2, [r3]
 c108370:	e59f3058 	ldr	r3, [pc, #88]	; c1083d0 <timer0_close+0x84>
 c108374:	e59f2054 	ldr	r2, [pc, #84]	; c1083d0 <timer0_close+0x84>
 c108378:	e5922000 	ldr	r2, [r2]
 c10837c:	e3c2200f 	bic	r2, r2, #15
 c108380:	e3822002 	orr	r2, r2, #2
 c108384:	e5832000 	str	r2, [r3]
 c108388:	e59f3040 	ldr	r3, [pc, #64]	; c1083d0 <timer0_close+0x84>
 c10838c:	e59f203c 	ldr	r2, [pc, #60]	; c1083d0 <timer0_close+0x84>
 c108390:	e5922000 	ldr	r2, [r2]
 c108394:	e3c2200f 	bic	r2, r2, #15
 c108398:	e5832000 	str	r2, [r3]
 c10839c:	e59f3030 	ldr	r3, [pc, #48]	; c1083d4 <timer0_close+0x88>
 c1083a0:	e59f202c 	ldr	r2, [pc, #44]	; c1083d4 <timer0_close+0x88>
 c1083a4:	e5922000 	ldr	r2, [r2]
 c1083a8:	e3822a02 	orr	r2, r2, #8192	; 0x2000
 c1083ac:	e5832000 	str	r2, [r3]
 c1083b0:	e59f3020 	ldr	r3, [pc, #32]	; c1083d8 <timer0_close+0x8c>
 c1083b4:	e59f2020 	ldr	r2, [pc, #32]	; c1083dc <timer0_close+0x90>
 c1083b8:	e5832000 	str	r2, [r3]
 c1083bc:	e24bd00c 	sub	sp, fp, #12
 c1083c0:	e89d6800 	ldm	sp, {fp, sp, lr}
 c1083c4:	e12fff1e 	bx	lr
 c1083c8:	01d5000c 	.word	0x01d5000c
 c1083cc:	01d50010 	.word	0x01d50010
 c1083d0:	01d50008 	.word	0x01d50008
 c1083d4:	01e0000c 	.word	0x01e0000c
 c1083d8:	0c7fff54 	.word	0x0c7fff54
 c1083dc:	0c106f18 	.word	0x0c106f18

0c1083e0 <ts_on>:
 c1083e0:	e1a0c00d 	mov	ip, sp
 c1083e4:	e92dd800 	push	{fp, ip, lr, pc}
 c1083e8:	e24cb004 	sub	fp, ip, #4
 c1083ec:	eb000423 	bl	c109480 <adc_on>
 c1083f0:	e59f3010 	ldr	r3, [pc, #16]	; c108408 <ts_on+0x28>
 c1083f4:	e3a02001 	mov	r2, #1
 c1083f8:	e5c32000 	strb	r2, [r3]
 c1083fc:	e24bd00c 	sub	sp, fp, #12
 c108400:	e89d6800 	ldm	sp, {fp, sp, lr}
 c108404:	e12fff1e 	bx	lr
 c108408:	0c115804 	.word	0x0c115804

0c10840c <ts_off>:
 c10840c:	e1a0c00d 	mov	ip, sp
 c108410:	e92dd800 	push	{fp, ip, lr, pc}
 c108414:	e24cb004 	sub	fp, ip, #4
 c108418:	eb00042b 	bl	c1094cc <adc_off>
 c10841c:	e59f3010 	ldr	r3, [pc, #16]	; c108434 <ts_off+0x28>
 c108420:	e3a02000 	mov	r2, #0
 c108424:	e5c32000 	strb	r2, [r3]
 c108428:	e24bd00c 	sub	sp, fp, #12
 c10842c:	e89d6800 	ldm	sp, {fp, sp, lr}
 c108430:	e12fff1e 	bx	lr
 c108434:	0c115804 	.word	0x0c115804

0c108438 <ts_status>:
 c108438:	e1a0c00d 	mov	ip, sp
 c10843c:	e92dd800 	push	{fp, ip, lr, pc}
 c108440:	e24cb004 	sub	fp, ip, #4
 c108444:	e59f3010 	ldr	r3, [pc, #16]	; c10845c <ts_status+0x24>
 c108448:	e5d33000 	ldrb	r3, [r3]
 c10844c:	e1a00003 	mov	r0, r3
 c108450:	e24bd00c 	sub	sp, fp, #12
 c108454:	e89d6800 	ldm	sp, {fp, sp, lr}
 c108458:	e12fff1e 	bx	lr
 c10845c:	0c115804 	.word	0x0c115804

0c108460 <ts_pressed>:
 c108460:	e1a0c00d 	mov	ip, sp
 c108464:	e92dd800 	push	{fp, ip, lr, pc}
 c108468:	e24cb004 	sub	fp, ip, #4
 c10846c:	e59f3024 	ldr	r3, [pc, #36]	; c108498 <ts_pressed+0x38>
 c108470:	e5933000 	ldr	r3, [r3]
 c108474:	e2033004 	and	r3, r3, #4
 c108478:	e3530000 	cmp	r3, #0
 c10847c:	13a03000 	movne	r3, #0
 c108480:	03a03001 	moveq	r3, #1
 c108484:	e20330ff 	and	r3, r3, #255	; 0xff
 c108488:	e1a00003 	mov	r0, r3
 c10848c:	e24bd00c 	sub	sp, fp, #12
 c108490:	e89d6800 	ldm	sp, {fp, sp, lr}
 c108494:	e12fff1e 	bx	lr
 c108498:	01d20044 	.word	0x01d20044

0c10849c <ts_calibrate>:
 c10849c:	e1a0c00d 	mov	ip, sp
 c1084a0:	e92dd800 	push	{fp, ip, lr, pc}
 c1084a4:	e24cb004 	sub	fp, ip, #4
 c1084a8:	e24dd010 	sub	sp, sp, #16
 c1084ac:	ebffef1c 	bl	c104124 <lcd_on>
 c1084b0:	ebffef43 	bl	c1041c4 <lcd_clear>
 c1084b4:	e3a0000a 	mov	r0, #10
 c1084b8:	e3a010c8 	mov	r1, #200	; 0xc8
 c1084bc:	e3a0200f 	mov	r2, #15
 c1084c0:	e59f3398 	ldr	r3, [pc, #920]	; c108860 <ts_calibrate+0x3c4>
 c1084c4:	ebfff141 	bl	c1049d0 <lcd_puts>
 c1084c8:	e3a0000a 	mov	r0, #10
 c1084cc:	e3a010d8 	mov	r1, #216	; 0xd8
 c1084d0:	e3a0200f 	mov	r2, #15
 c1084d4:	e59f3388 	ldr	r3, [pc, #904]	; c108864 <ts_calibrate+0x3c8>
 c1084d8:	ebfff13c 	bl	c1049d0 <lcd_puts>
 c1084dc:	e3a03001 	mov	r3, #1
 c1084e0:	e58d3000 	str	r3, [sp]
 c1084e4:	e3a00000 	mov	r0, #0
 c1084e8:	e3a01003 	mov	r1, #3
 c1084ec:	e3a02000 	mov	r2, #0
 c1084f0:	e3a0300f 	mov	r3, #15
 c1084f4:	ebffefac 	bl	c1043ac <lcd_draw_hline>
 c1084f8:	e3a03001 	mov	r3, #1
 c1084fc:	e58d3000 	str	r3, [sp]
 c108500:	e3a00000 	mov	r0, #0
 c108504:	e3a01003 	mov	r1, #3
 c108508:	e3a02001 	mov	r2, #1
 c10850c:	e3a0300f 	mov	r3, #15
 c108510:	ebffefa5 	bl	c1043ac <lcd_draw_hline>
 c108514:	e3a03001 	mov	r3, #1
 c108518:	e58d3000 	str	r3, [sp]
 c10851c:	e3a00000 	mov	r0, #0
 c108520:	e3a01003 	mov	r1, #3
 c108524:	e3a02002 	mov	r2, #2
 c108528:	e3a0300f 	mov	r3, #15
 c10852c:	ebffef9e 	bl	c1043ac <lcd_draw_hline>
 c108530:	e3a03001 	mov	r3, #1
 c108534:	e58d3000 	str	r3, [sp]
 c108538:	e3a00000 	mov	r0, #0
 c10853c:	e3a01003 	mov	r1, #3
 c108540:	e3a02003 	mov	r2, #3
 c108544:	e3a0300f 	mov	r3, #15
 c108548:	ebffef97 	bl	c1043ac <lcd_draw_hline>
 c10854c:	e1a00000 	nop			; (mov r0, r0)
 c108550:	e59f3310 	ldr	r3, [pc, #784]	; c108868 <ts_calibrate+0x3cc>
 c108554:	e5933000 	ldr	r3, [r3]
 c108558:	e2033004 	and	r3, r3, #4
 c10855c:	e3530000 	cmp	r3, #0
 c108560:	1afffffa 	bne	c108550 <ts_calibrate+0xb4>
 c108564:	e3a0001e 	mov	r0, #30
 c108568:	ebfffd99 	bl	c107bd4 <sw_delay_ms>
 c10856c:	e59f02f8 	ldr	r0, [pc, #760]	; c10886c <ts_calibrate+0x3d0>
 c108570:	e59f12f8 	ldr	r1, [pc, #760]	; c108870 <ts_calibrate+0x3d4>
 c108574:	eb000144 	bl	c108a8c <ts_scan>
 c108578:	e1a00000 	nop			; (mov r0, r0)
 c10857c:	e59f32e4 	ldr	r3, [pc, #740]	; c108868 <ts_calibrate+0x3cc>
 c108580:	e5933000 	ldr	r3, [r3]
 c108584:	e2033004 	and	r3, r3, #4
 c108588:	e3530000 	cmp	r3, #0
 c10858c:	0afffffa 	beq	c10857c <ts_calibrate+0xe0>
 c108590:	e3a00064 	mov	r0, #100	; 0x64
 c108594:	ebfffd8e 	bl	c107bd4 <sw_delay_ms>
 c108598:	e3a03001 	mov	r3, #1
 c10859c:	e58d3000 	str	r3, [sp]
 c1085a0:	e3a00000 	mov	r0, #0
 c1085a4:	e3a01003 	mov	r1, #3
 c1085a8:	e3a02000 	mov	r2, #0
 c1085ac:	e3a03000 	mov	r3, #0
 c1085b0:	ebffef7d 	bl	c1043ac <lcd_draw_hline>
 c1085b4:	e3a03001 	mov	r3, #1
 c1085b8:	e58d3000 	str	r3, [sp]
 c1085bc:	e3a00000 	mov	r0, #0
 c1085c0:	e3a01003 	mov	r1, #3
 c1085c4:	e3a02001 	mov	r2, #1
 c1085c8:	e3a03000 	mov	r3, #0
 c1085cc:	ebffef76 	bl	c1043ac <lcd_draw_hline>
 c1085d0:	e3a03001 	mov	r3, #1
 c1085d4:	e58d3000 	str	r3, [sp]
 c1085d8:	e3a00000 	mov	r0, #0
 c1085dc:	e3a01003 	mov	r1, #3
 c1085e0:	e3a02002 	mov	r2, #2
 c1085e4:	e3a03000 	mov	r3, #0
 c1085e8:	ebffef6f 	bl	c1043ac <lcd_draw_hline>
 c1085ec:	e3a03001 	mov	r3, #1
 c1085f0:	e58d3000 	str	r3, [sp]
 c1085f4:	e3a00000 	mov	r0, #0
 c1085f8:	e3a01003 	mov	r1, #3
 c1085fc:	e3a02003 	mov	r2, #3
 c108600:	e3a03000 	mov	r3, #0
 c108604:	ebffef68 	bl	c1043ac <lcd_draw_hline>
 c108608:	e3a00e13 	mov	r0, #304	; 0x130
 c10860c:	e3a010d8 	mov	r1, #216	; 0xd8
 c108610:	e3a0200f 	mov	r2, #15
 c108614:	e59f3258 	ldr	r3, [pc, #600]	; c108874 <ts_calibrate+0x3d8>
 c108618:	ebfff0ec 	bl	c1049d0 <lcd_puts>
 c10861c:	e3a0000a 	mov	r0, #10
 c108620:	e3a010d8 	mov	r1, #216	; 0xd8
 c108624:	e3a0200f 	mov	r2, #15
 c108628:	e59f3248 	ldr	r3, [pc, #584]	; c108878 <ts_calibrate+0x3dc>
 c10862c:	ebfff0e7 	bl	c1049d0 <lcd_puts>
 c108630:	e3a03001 	mov	r3, #1
 c108634:	e58d3000 	str	r3, [sp]
 c108638:	e3a00f4f 	mov	r0, #316	; 0x13c
 c10863c:	e59f1238 	ldr	r1, [pc, #568]	; c10887c <ts_calibrate+0x3e0>
 c108640:	e3a020ec 	mov	r2, #236	; 0xec
 c108644:	e3a0300f 	mov	r3, #15
 c108648:	ebffef57 	bl	c1043ac <lcd_draw_hline>
 c10864c:	e3a03001 	mov	r3, #1
 c108650:	e58d3000 	str	r3, [sp]
 c108654:	e3a00f4f 	mov	r0, #316	; 0x13c
 c108658:	e59f121c 	ldr	r1, [pc, #540]	; c10887c <ts_calibrate+0x3e0>
 c10865c:	e3a020ed 	mov	r2, #237	; 0xed
 c108660:	e3a0300f 	mov	r3, #15
 c108664:	ebffef50 	bl	c1043ac <lcd_draw_hline>
 c108668:	e3a03001 	mov	r3, #1
 c10866c:	e58d3000 	str	r3, [sp]
 c108670:	e3a00f4f 	mov	r0, #316	; 0x13c
 c108674:	e59f1200 	ldr	r1, [pc, #512]	; c10887c <ts_calibrate+0x3e0>
 c108678:	e3a020ee 	mov	r2, #238	; 0xee
 c10867c:	e3a0300f 	mov	r3, #15
 c108680:	ebffef49 	bl	c1043ac <lcd_draw_hline>
 c108684:	e3a03001 	mov	r3, #1
 c108688:	e58d3000 	str	r3, [sp]
 c10868c:	e3a00f4f 	mov	r0, #316	; 0x13c
 c108690:	e59f11e4 	ldr	r1, [pc, #484]	; c10887c <ts_calibrate+0x3e0>
 c108694:	e3a020ef 	mov	r2, #239	; 0xef
 c108698:	e3a0300f 	mov	r3, #15
 c10869c:	ebffef42 	bl	c1043ac <lcd_draw_hline>
 c1086a0:	e1a00000 	nop			; (mov r0, r0)
 c1086a4:	e59f31bc 	ldr	r3, [pc, #444]	; c108868 <ts_calibrate+0x3cc>
 c1086a8:	e5933000 	ldr	r3, [r3]
 c1086ac:	e2033004 	and	r3, r3, #4
 c1086b0:	e3530000 	cmp	r3, #0
 c1086b4:	1afffffa 	bne	c1086a4 <ts_calibrate+0x208>
 c1086b8:	e3a0001e 	mov	r0, #30
 c1086bc:	ebfffd44 	bl	c107bd4 <sw_delay_ms>
 c1086c0:	e59f01b8 	ldr	r0, [pc, #440]	; c108880 <ts_calibrate+0x3e4>
 c1086c4:	e59f11b8 	ldr	r1, [pc, #440]	; c108884 <ts_calibrate+0x3e8>
 c1086c8:	eb0000ef 	bl	c108a8c <ts_scan>
 c1086cc:	e1a00000 	nop			; (mov r0, r0)
 c1086d0:	e59f3190 	ldr	r3, [pc, #400]	; c108868 <ts_calibrate+0x3cc>
 c1086d4:	e5933000 	ldr	r3, [r3]
 c1086d8:	e2033004 	and	r3, r3, #4
 c1086dc:	e3530000 	cmp	r3, #0
 c1086e0:	0afffffa 	beq	c1086d0 <ts_calibrate+0x234>
 c1086e4:	e3a00064 	mov	r0, #100	; 0x64
 c1086e8:	ebfffd39 	bl	c107bd4 <sw_delay_ms>
 c1086ec:	e3a03001 	mov	r3, #1
 c1086f0:	e58d3000 	str	r3, [sp]
 c1086f4:	e3a00f4f 	mov	r0, #316	; 0x13c
 c1086f8:	e59f117c 	ldr	r1, [pc, #380]	; c10887c <ts_calibrate+0x3e0>
 c1086fc:	e3a020ec 	mov	r2, #236	; 0xec
 c108700:	e3a03000 	mov	r3, #0
 c108704:	ebffef28 	bl	c1043ac <lcd_draw_hline>
 c108708:	e3a03001 	mov	r3, #1
 c10870c:	e58d3000 	str	r3, [sp]
 c108710:	e3a00f4f 	mov	r0, #316	; 0x13c
 c108714:	e59f1160 	ldr	r1, [pc, #352]	; c10887c <ts_calibrate+0x3e0>
 c108718:	e3a020ed 	mov	r2, #237	; 0xed
 c10871c:	e3a03000 	mov	r3, #0
 c108720:	ebffef21 	bl	c1043ac <lcd_draw_hline>
 c108724:	e3a03001 	mov	r3, #1
 c108728:	e58d3000 	str	r3, [sp]
 c10872c:	e3a00f4f 	mov	r0, #316	; 0x13c
 c108730:	e59f1144 	ldr	r1, [pc, #324]	; c10887c <ts_calibrate+0x3e0>
 c108734:	e3a020ee 	mov	r2, #238	; 0xee
 c108738:	e3a03000 	mov	r3, #0
 c10873c:	ebffef1a 	bl	c1043ac <lcd_draw_hline>
 c108740:	e3a03001 	mov	r3, #1
 c108744:	e58d3000 	str	r3, [sp]
 c108748:	e3a00f4f 	mov	r0, #316	; 0x13c
 c10874c:	e59f1128 	ldr	r1, [pc, #296]	; c10887c <ts_calibrate+0x3e0>
 c108750:	e3a020ef 	mov	r2, #239	; 0xef
 c108754:	e3a03000 	mov	r3, #0
 c108758:	ebffef13 	bl	c1043ac <lcd_draw_hline>
 c10875c:	e3a00e12 	mov	r0, #288	; 0x120
 c108760:	e3a010d8 	mov	r1, #216	; 0xd8
 c108764:	e3a0200f 	mov	r2, #15
 c108768:	e59f3104 	ldr	r3, [pc, #260]	; c108874 <ts_calibrate+0x3d8>
 c10876c:	ebfff097 	bl	c1049d0 <lcd_puts>
 c108770:	e3a0000a 	mov	r0, #10
 c108774:	e3a010d8 	mov	r1, #216	; 0xd8
 c108778:	e3a0200f 	mov	r2, #15
 c10877c:	e59f3104 	ldr	r3, [pc, #260]	; c108888 <ts_calibrate+0x3ec>
 c108780:	ebfff092 	bl	c1049d0 <lcd_puts>
 c108784:	e3a03001 	mov	r3, #1
 c108788:	e58d3000 	str	r3, [sp]
 c10878c:	e3a0009b 	mov	r0, #155	; 0x9b
 c108790:	e3a010a5 	mov	r1, #165	; 0xa5
 c108794:	e3a02078 	mov	r2, #120	; 0x78
 c108798:	e3a0300f 	mov	r3, #15
 c10879c:	ebffef02 	bl	c1043ac <lcd_draw_hline>
 c1087a0:	e3a03001 	mov	r3, #1
 c1087a4:	e58d3000 	str	r3, [sp]
 c1087a8:	e3a00073 	mov	r0, #115	; 0x73
 c1087ac:	e3a0107d 	mov	r1, #125	; 0x7d
 c1087b0:	e3a020a0 	mov	r2, #160	; 0xa0
 c1087b4:	e3a0300f 	mov	r3, #15
 c1087b8:	ebffef51 	bl	c104504 <lcd_draw_vline>
 c1087bc:	e24b200e 	sub	r2, fp, #14
 c1087c0:	e24b3010 	sub	r3, fp, #16
 c1087c4:	e1a00002 	mov	r0, r2
 c1087c8:	e1a01003 	mov	r1, r3
 c1087cc:	eb00018b 	bl	c108e00 <ts_getpos>
 c1087d0:	e3a03001 	mov	r3, #1
 c1087d4:	e58d3000 	str	r3, [sp]
 c1087d8:	e3a0009b 	mov	r0, #155	; 0x9b
 c1087dc:	e3a010a5 	mov	r1, #165	; 0xa5
 c1087e0:	e3a02078 	mov	r2, #120	; 0x78
 c1087e4:	e3a03000 	mov	r3, #0
 c1087e8:	ebffeeef 	bl	c1043ac <lcd_draw_hline>
 c1087ec:	e3a03001 	mov	r3, #1
 c1087f0:	e58d3000 	str	r3, [sp]
 c1087f4:	e3a00073 	mov	r0, #115	; 0x73
 c1087f8:	e3a0107d 	mov	r1, #125	; 0x7d
 c1087fc:	e3a020a0 	mov	r2, #160	; 0xa0
 c108800:	e3a03000 	mov	r3, #0
 c108804:	ebffef3e 	bl	c104504 <lcd_draw_vline>
 c108808:	e3a000b2 	mov	r0, #178	; 0xb2
 c10880c:	e3a010d8 	mov	r1, #216	; 0xd8
 c108810:	e3a0200f 	mov	r2, #15
 c108814:	e59f3058 	ldr	r3, [pc, #88]	; c108874 <ts_calibrate+0x3d8>
 c108818:	ebfff06c 	bl	c1049d0 <lcd_puts>
 c10881c:	e15b30be 	ldrh	r3, [fp, #-14]
 c108820:	e35300a5 	cmp	r3, #165	; 0xa5
 c108824:	8affff21 	bhi	c1084b0 <ts_calibrate+0x14>
 c108828:	e15b30be 	ldrh	r3, [fp, #-14]
 c10882c:	e353009a 	cmp	r3, #154	; 0x9a
 c108830:	9affff1e 	bls	c1084b0 <ts_calibrate+0x14>
 c108834:	e15b31b0 	ldrh	r3, [fp, #-16]
 c108838:	e353007d 	cmp	r3, #125	; 0x7d
 c10883c:	8affff1b 	bhi	c1084b0 <ts_calibrate+0x14>
 c108840:	e15b31b0 	ldrh	r3, [fp, #-16]
 c108844:	e3530072 	cmp	r3, #114	; 0x72
 c108848:	9affff18 	bls	c1084b0 <ts_calibrate+0x14>
 c10884c:	ebffee5c 	bl	c1041c4 <lcd_clear>
 c108850:	ebffee42 	bl	c104160 <lcd_off>
 c108854:	e24bd00c 	sub	sp, fp, #12
 c108858:	e89d6800 	ldm	sp, {fp, sp, lr}
 c10885c:	e12fff1e 	bx	lr
 c108860:	0c10b010 	.word	0x0c10b010
 c108864:	0c10b034 	.word	0x0c10b034
 c108868:	01d20044 	.word	0x01d20044
 c10886c:	0c1157fc 	.word	0x0c1157fc
 c108870:	0c115802 	.word	0x0c115802
 c108874:	0c10b05c 	.word	0x0c10b05c
 c108878:	0c10b060 	.word	0x0c10b060
 c10887c:	0000013f 	.word	0x0000013f
 c108880:	0c1157fe 	.word	0x0c1157fe
 c108884:	0c115800 	.word	0x0c115800
 c108888:	0c10b088 	.word	0x0c10b088

0c10888c <ts_getpostime>:
 c10888c:	e1a0c00d 	mov	ip, sp
 c108890:	e92dd800 	push	{fp, ip, lr, pc}
 c108894:	e24cb004 	sub	fp, ip, #4
 c108898:	e24dd018 	sub	sp, sp, #24
 c10889c:	e50b0018 	str	r0, [fp, #-24]	; 0xffffffe8
 c1088a0:	e50b101c 	str	r1, [fp, #-28]	; 0xffffffe4
 c1088a4:	e50b2020 	str	r2, [fp, #-32]	; 0xffffffe0
 c1088a8:	e1a00000 	nop			; (mov r0, r0)
 c1088ac:	e59f309c 	ldr	r3, [pc, #156]	; c108950 <ts_getpostime+0xc4>
 c1088b0:	e5933000 	ldr	r3, [r3]
 c1088b4:	e2033004 	and	r3, r3, #4
 c1088b8:	e3530000 	cmp	r3, #0
 c1088bc:	1afffffa 	bne	c1088ac <ts_getpostime+0x20>
 c1088c0:	ebfffd2e 	bl	c107d80 <timer3_start>
 c1088c4:	e3a0001e 	mov	r0, #30
 c1088c8:	ebfffcc1 	bl	c107bd4 <sw_delay_ms>
 c1088cc:	e24b200e 	sub	r2, fp, #14
 c1088d0:	e24b3010 	sub	r3, fp, #16
 c1088d4:	e1a00002 	mov	r0, r2
 c1088d8:	e1a01003 	mov	r1, r3
 c1088dc:	eb00006a 	bl	c108a8c <ts_scan>
 c1088e0:	e15b20be 	ldrh	r2, [fp, #-14]
 c1088e4:	e15b31b0 	ldrh	r3, [fp, #-16]
 c1088e8:	e1a00002 	mov	r0, r2
 c1088ec:	e1a01003 	mov	r1, r3
 c1088f0:	e51b2018 	ldr	r2, [fp, #-24]	; 0xffffffe8
 c1088f4:	e51b301c 	ldr	r3, [fp, #-28]	; 0xffffffe4
 c1088f8:	eb000084 	bl	c108b10 <ts_sample2coord>
 c1088fc:	e1a00000 	nop			; (mov r0, r0)
 c108900:	e59f3048 	ldr	r3, [pc, #72]	; c108950 <ts_getpostime+0xc4>
 c108904:	e5933000 	ldr	r3, [r3]
 c108908:	e2033004 	and	r3, r3, #4
 c10890c:	e3530000 	cmp	r3, #0
 c108910:	0afffffa 	beq	c108900 <ts_getpostime+0x74>
 c108914:	ebfffd50 	bl	c107e5c <timer3_stop>
 c108918:	e1a03000 	mov	r3, r0
 c10891c:	e1a02003 	mov	r2, r3
 c108920:	e59f302c 	ldr	r3, [pc, #44]	; c108954 <ts_getpostime+0xc8>
 c108924:	e0831392 	umull	r1, r3, r2, r3
 c108928:	e1a031a3 	lsr	r3, r3, #3
 c10892c:	e1a03803 	lsl	r3, r3, #16
 c108930:	e1a02823 	lsr	r2, r3, #16
 c108934:	e51b3020 	ldr	r3, [fp, #-32]	; 0xffffffe0
 c108938:	e1c320b0 	strh	r2, [r3]
 c10893c:	e3a00064 	mov	r0, #100	; 0x64
 c108940:	ebfffca3 	bl	c107bd4 <sw_delay_ms>
 c108944:	e24bd00c 	sub	sp, fp, #12
 c108948:	e89d6800 	ldm	sp, {fp, sp, lr}
 c10894c:	e12fff1e 	bx	lr
 c108950:	01d20044 	.word	0x01d20044
 c108954:	cccccccd 	.word	0xcccccccd

0c108958 <ts_timeout_getpos>:
 c108958:	e1a0c00d 	mov	ip, sp
 c10895c:	e92dd800 	push	{fp, ip, lr, pc}
 c108960:	e24cb004 	sub	fp, ip, #4
 c108964:	e24dd018 	sub	sp, sp, #24
 c108968:	e50b0018 	str	r0, [fp, #-24]	; 0xffffffe8
 c10896c:	e50b101c 	str	r1, [fp, #-28]	; 0xffffffe4
 c108970:	e1a03002 	mov	r3, r2
 c108974:	e14b31be 	strh	r3, [fp, #-30]	; 0xffffffe2
 c108978:	e51b3018 	ldr	r3, [fp, #-24]	; 0xffffffe8
 c10897c:	e3a02000 	mov	r2, #0
 c108980:	e1c320b0 	strh	r2, [r3]
 c108984:	e51b301c 	ldr	r3, [fp, #-28]	; 0xffffffe4
 c108988:	e3a02000 	mov	r2, #0
 c10898c:	e1c320b0 	strh	r2, [r3]
 c108990:	e15b31be 	ldrh	r3, [fp, #-30]	; 0xffffffe2
 c108994:	e1a02003 	mov	r2, r3
 c108998:	e1a02102 	lsl	r2, r2, #2
 c10899c:	e0823003 	add	r3, r2, r3
 c1089a0:	e1a03083 	lsl	r3, r3, #1
 c1089a4:	e1a03803 	lsl	r3, r3, #16
 c1089a8:	e1a03823 	lsr	r3, r3, #16
 c1089ac:	e1a00003 	mov	r0, r3
 c1089b0:	ebfffd3e 	bl	c107eb0 <timer3_start_timeout>
 c1089b4:	e1a00000 	nop			; (mov r0, r0)
 c1089b8:	e59f30c8 	ldr	r3, [pc, #200]	; c108a88 <ts_timeout_getpos+0x130>
 c1089bc:	e5933000 	ldr	r3, [r3]
 c1089c0:	e2033004 	and	r3, r3, #4
 c1089c4:	e3530000 	cmp	r3, #0
 c1089c8:	0a000003 	beq	c1089dc <ts_timeout_getpos+0x84>
 c1089cc:	ebfffd70 	bl	c107f94 <timer3_timeout>
 c1089d0:	e1a03000 	mov	r3, r0
 c1089d4:	e3530000 	cmp	r3, #0
 c1089d8:	0afffff6 	beq	c1089b8 <ts_timeout_getpos+0x60>
 c1089dc:	ebfffd6c 	bl	c107f94 <timer3_timeout>
 c1089e0:	e1a03000 	mov	r3, r0
 c1089e4:	e3530000 	cmp	r3, #0
 c1089e8:	0a000001 	beq	c1089f4 <ts_timeout_getpos+0x9c>
 c1089ec:	e3a030fe 	mov	r3, #254	; 0xfe
 c1089f0:	ea000020 	b	c108a78 <ts_timeout_getpos+0x120>
 c1089f4:	e3a0001e 	mov	r0, #30
 c1089f8:	ebfffc75 	bl	c107bd4 <sw_delay_ms>
 c1089fc:	e24b200e 	sub	r2, fp, #14
 c108a00:	e24b3010 	sub	r3, fp, #16
 c108a04:	e1a00002 	mov	r0, r2
 c108a08:	e1a01003 	mov	r1, r3
 c108a0c:	eb00001e 	bl	c108a8c <ts_scan>
 c108a10:	e15b20be 	ldrh	r2, [fp, #-14]
 c108a14:	e15b31b0 	ldrh	r3, [fp, #-16]
 c108a18:	e1a00002 	mov	r0, r2
 c108a1c:	e1a01003 	mov	r1, r3
 c108a20:	e51b2018 	ldr	r2, [fp, #-24]	; 0xffffffe8
 c108a24:	e51b301c 	ldr	r3, [fp, #-28]	; 0xffffffe4
 c108a28:	eb000038 	bl	c108b10 <ts_sample2coord>
 c108a2c:	e1a00000 	nop			; (mov r0, r0)
 c108a30:	e59f3050 	ldr	r3, [pc, #80]	; c108a88 <ts_timeout_getpos+0x130>
 c108a34:	e5933000 	ldr	r3, [r3]
 c108a38:	e2033004 	and	r3, r3, #4
 c108a3c:	e3530000 	cmp	r3, #0
 c108a40:	1a000003 	bne	c108a54 <ts_timeout_getpos+0xfc>
 c108a44:	ebfffd52 	bl	c107f94 <timer3_timeout>
 c108a48:	e1a03000 	mov	r3, r0
 c108a4c:	e3530000 	cmp	r3, #0
 c108a50:	0afffff6 	beq	c108a30 <ts_timeout_getpos+0xd8>
 c108a54:	ebfffd4e 	bl	c107f94 <timer3_timeout>
 c108a58:	e1a03000 	mov	r3, r0
 c108a5c:	e3530000 	cmp	r3, #0
 c108a60:	0a000001 	beq	c108a6c <ts_timeout_getpos+0x114>
 c108a64:	e3a030fe 	mov	r3, #254	; 0xfe
 c108a68:	ea000002 	b	c108a78 <ts_timeout_getpos+0x120>
 c108a6c:	e3a00064 	mov	r0, #100	; 0x64
 c108a70:	ebfffc57 	bl	c107bd4 <sw_delay_ms>
 c108a74:	e3a03001 	mov	r3, #1
 c108a78:	e1a00003 	mov	r0, r3
 c108a7c:	e24bd00c 	sub	sp, fp, #12
 c108a80:	e89d6800 	ldm	sp, {fp, sp, lr}
 c108a84:	e12fff1e 	bx	lr
 c108a88:	01d20044 	.word	0x01d20044

0c108a8c <ts_scan>:
 c108a8c:	e1a0c00d 	mov	ip, sp
 c108a90:	e92dd800 	push	{fp, ip, lr, pc}
 c108a94:	e24cb004 	sub	fp, ip, #4
 c108a98:	e24dd008 	sub	sp, sp, #8
 c108a9c:	e50b0010 	str	r0, [fp, #-16]
 c108aa0:	e50b1014 	str	r1, [fp, #-20]	; 0xffffffec
 c108aa4:	e59f3060 	ldr	r3, [pc, #96]	; c108b0c <ts_scan+0x80>
 c108aa8:	e3a02060 	mov	r2, #96	; 0x60
 c108aac:	e5832000 	str	r2, [r3]
 c108ab0:	e3a00001 	mov	r0, #1
 c108ab4:	eb0002d7 	bl	c109618 <adc_getSample>
 c108ab8:	e1a03000 	mov	r3, r0
 c108abc:	e1a02003 	mov	r2, r3
 c108ac0:	e51b3010 	ldr	r3, [fp, #-16]
 c108ac4:	e1c320b0 	strh	r2, [r3]
 c108ac8:	e59f303c 	ldr	r3, [pc, #60]	; c108b0c <ts_scan+0x80>
 c108acc:	e3a02090 	mov	r2, #144	; 0x90
 c108ad0:	e5832000 	str	r2, [r3]
 c108ad4:	e3a00000 	mov	r0, #0
 c108ad8:	eb0002ce 	bl	c109618 <adc_getSample>
 c108adc:	e1a03000 	mov	r3, r0
 c108ae0:	e1a02003 	mov	r2, r3
 c108ae4:	e51b3014 	ldr	r3, [fp, #-20]	; 0xffffffec
 c108ae8:	e1c320b0 	strh	r2, [r3]
 c108aec:	e59f3018 	ldr	r3, [pc, #24]	; c108b0c <ts_scan+0x80>
 c108af0:	e3a020b0 	mov	r2, #176	; 0xb0
 c108af4:	e5832000 	str	r2, [r3]
 c108af8:	e3a00001 	mov	r0, #1
 c108afc:	ebfffc34 	bl	c107bd4 <sw_delay_ms>
 c108b00:	e24bd00c 	sub	sp, fp, #12
 c108b04:	e89d6800 	ldm	sp, {fp, sp, lr}
 c108b08:	e12fff1e 	bx	lr
 c108b0c:	01d2002c 	.word	0x01d2002c

0c108b10 <ts_sample2coord>:
 c108b10:	e1a0c00d 	mov	ip, sp
 c108b14:	e92dd800 	push	{fp, ip, lr, pc}
 c108b18:	e24cb004 	sub	fp, ip, #4
 c108b1c:	e24dd010 	sub	sp, sp, #16
 c108b20:	e50b2014 	str	r2, [fp, #-20]	; 0xffffffec
 c108b24:	e50b3018 	str	r3, [fp, #-24]	; 0xffffffe8
 c108b28:	e14b00be 	strh	r0, [fp, #-14]
 c108b2c:	e14b11b0 	strh	r1, [fp, #-16]
 c108b30:	e59f3150 	ldr	r3, [pc, #336]	; c108c88 <ts_sample2coord+0x178>
 c108b34:	e1d330b0 	ldrh	r3, [r3]
 c108b38:	e15b20be 	ldrh	r2, [fp, #-14]
 c108b3c:	e1520003 	cmp	r2, r3
 c108b40:	2a000003 	bcs	c108b54 <ts_sample2coord+0x44>
 c108b44:	e51b3014 	ldr	r3, [fp, #-20]	; 0xffffffec
 c108b48:	e3a02000 	mov	r2, #0
 c108b4c:	e1c320b0 	strh	r2, [r3]
 c108b50:	ea00001f 	b	c108bd4 <ts_sample2coord+0xc4>
 c108b54:	e59f3130 	ldr	r3, [pc, #304]	; c108c8c <ts_sample2coord+0x17c>
 c108b58:	e1d330b0 	ldrh	r3, [r3]
 c108b5c:	e15b20be 	ldrh	r2, [fp, #-14]
 c108b60:	e1520003 	cmp	r2, r3
 c108b64:	9a000003 	bls	c108b78 <ts_sample2coord+0x68>
 c108b68:	e51b3014 	ldr	r3, [fp, #-20]	; 0xffffffec
 c108b6c:	e59f211c 	ldr	r2, [pc, #284]	; c108c90 <ts_sample2coord+0x180>
 c108b70:	e1c320b0 	strh	r2, [r3]
 c108b74:	ea000016 	b	c108bd4 <ts_sample2coord+0xc4>
 c108b78:	e15b20be 	ldrh	r2, [fp, #-14]
 c108b7c:	e59f3104 	ldr	r3, [pc, #260]	; c108c88 <ts_sample2coord+0x178>
 c108b80:	e1d330b0 	ldrh	r3, [r3]
 c108b84:	e0632002 	rsb	r2, r3, r2
 c108b88:	e1a03002 	mov	r3, r2
 c108b8c:	e1a03103 	lsl	r3, r3, #2
 c108b90:	e0833002 	add	r3, r3, r2
 c108b94:	e1a03303 	lsl	r3, r3, #6
 c108b98:	e1a02003 	mov	r2, r3
 c108b9c:	e59f30e8 	ldr	r3, [pc, #232]	; c108c8c <ts_sample2coord+0x17c>
 c108ba0:	e1d330b0 	ldrh	r3, [r3]
 c108ba4:	e1a01003 	mov	r1, r3
 c108ba8:	e59f30d8 	ldr	r3, [pc, #216]	; c108c88 <ts_sample2coord+0x178>
 c108bac:	e1d330b0 	ldrh	r3, [r3]
 c108bb0:	e0633001 	rsb	r3, r3, r1
 c108bb4:	e1a00002 	mov	r0, r2
 c108bb8:	e1a01003 	mov	r1, r3
 c108bbc:	eb000316 	bl	c10981c <__aeabi_idiv>
 c108bc0:	e1a03000 	mov	r3, r0
 c108bc4:	e1a03803 	lsl	r3, r3, #16
 c108bc8:	e1a02823 	lsr	r2, r3, #16
 c108bcc:	e51b3014 	ldr	r3, [fp, #-20]	; 0xffffffec
 c108bd0:	e1c320b0 	strh	r2, [r3]
 c108bd4:	e59f30b8 	ldr	r3, [pc, #184]	; c108c94 <ts_sample2coord+0x184>
 c108bd8:	e1d330b0 	ldrh	r3, [r3]
 c108bdc:	e15b21b0 	ldrh	r2, [fp, #-16]
 c108be0:	e1520003 	cmp	r2, r3
 c108be4:	2a000003 	bcs	c108bf8 <ts_sample2coord+0xe8>
 c108be8:	e51b3018 	ldr	r3, [fp, #-24]	; 0xffffffe8
 c108bec:	e3a020ef 	mov	r2, #239	; 0xef
 c108bf0:	e1c320b0 	strh	r2, [r3]
 c108bf4:	ea000020 	b	c108c7c <ts_sample2coord+0x16c>
 c108bf8:	e59f3098 	ldr	r3, [pc, #152]	; c108c98 <ts_sample2coord+0x188>
 c108bfc:	e1d330b0 	ldrh	r3, [r3]
 c108c00:	e15b21b0 	ldrh	r2, [fp, #-16]
 c108c04:	e1520003 	cmp	r2, r3
 c108c08:	9a000003 	bls	c108c1c <ts_sample2coord+0x10c>
 c108c0c:	e51b3018 	ldr	r3, [fp, #-24]	; 0xffffffe8
 c108c10:	e3a02000 	mov	r2, #0
 c108c14:	e1c320b0 	strh	r2, [r3]
 c108c18:	ea000017 	b	c108c7c <ts_sample2coord+0x16c>
 c108c1c:	e59f3074 	ldr	r3, [pc, #116]	; c108c98 <ts_sample2coord+0x188>
 c108c20:	e1d330b0 	ldrh	r3, [r3]
 c108c24:	e1a02003 	mov	r2, r3
 c108c28:	e15b31b0 	ldrh	r3, [fp, #-16]
 c108c2c:	e0632002 	rsb	r2, r3, r2
 c108c30:	e1a03002 	mov	r3, r2
 c108c34:	e1a03203 	lsl	r3, r3, #4
 c108c38:	e0623003 	rsb	r3, r2, r3
 c108c3c:	e1a03203 	lsl	r3, r3, #4
 c108c40:	e1a02003 	mov	r2, r3
 c108c44:	e59f304c 	ldr	r3, [pc, #76]	; c108c98 <ts_sample2coord+0x188>
 c108c48:	e1d330b0 	ldrh	r3, [r3]
 c108c4c:	e1a01003 	mov	r1, r3
 c108c50:	e59f303c 	ldr	r3, [pc, #60]	; c108c94 <ts_sample2coord+0x184>
 c108c54:	e1d330b0 	ldrh	r3, [r3]
 c108c58:	e0633001 	rsb	r3, r3, r1
 c108c5c:	e1a00002 	mov	r0, r2
 c108c60:	e1a01003 	mov	r1, r3
 c108c64:	eb0002ec 	bl	c10981c <__aeabi_idiv>
 c108c68:	e1a03000 	mov	r3, r0
 c108c6c:	e1a03803 	lsl	r3, r3, #16
 c108c70:	e1a02823 	lsr	r2, r3, #16
 c108c74:	e51b3018 	ldr	r3, [fp, #-24]	; 0xffffffe8
 c108c78:	e1c320b0 	strh	r2, [r3]
 c108c7c:	e24bd00c 	sub	sp, fp, #12
 c108c80:	e89d6800 	ldm	sp, {fp, sp, lr}
 c108c84:	e12fff1e 	bx	lr
 c108c88:	0c1157fc 	.word	0x0c1157fc
 c108c8c:	0c1157fe 	.word	0x0c1157fe
 c108c90:	0000013f 	.word	0x0000013f
 c108c94:	0c115800 	.word	0x0c115800
 c108c98:	0c115802 	.word	0x0c115802

0c108c9c <ts_open>:
 c108c9c:	e1a0c00d 	mov	ip, sp
 c108ca0:	e92dd800 	push	{fp, ip, lr, pc}
 c108ca4:	e24cb004 	sub	fp, ip, #4
 c108ca8:	e24dd008 	sub	sp, sp, #8
 c108cac:	e50b0010 	str	r0, [fp, #-16]
 c108cb0:	e59f3030 	ldr	r3, [pc, #48]	; c108ce8 <ts_open+0x4c>
 c108cb4:	e51b2010 	ldr	r2, [fp, #-16]
 c108cb8:	e5832000 	str	r2, [r3]
 c108cbc:	e59f3028 	ldr	r3, [pc, #40]	; c108cec <ts_open+0x50>
 c108cc0:	e3a02502 	mov	r2, #8388608	; 0x800000
 c108cc4:	e5832000 	str	r2, [r3]
 c108cc8:	e59f3020 	ldr	r3, [pc, #32]	; c108cf0 <ts_open+0x54>
 c108ccc:	e59f201c 	ldr	r2, [pc, #28]	; c108cf0 <ts_open+0x54>
 c108cd0:	e5922000 	ldr	r2, [r2]
 c108cd4:	e3c22512 	bic	r2, r2, #75497472	; 0x4800000
 c108cd8:	e5832000 	str	r2, [r3]
 c108cdc:	e24bd00c 	sub	sp, fp, #12
 c108ce0:	e89d6800 	ldm	sp, {fp, sp, lr}
 c108ce4:	e12fff1e 	bx	lr
 c108ce8:	0c7fff7c 	.word	0x0c7fff7c
 c108cec:	01e00024 	.word	0x01e00024
 c108cf0:	01e0000c 	.word	0x01e0000c

0c108cf4 <ts_close>:
 c108cf4:	e1a0c00d 	mov	ip, sp
 c108cf8:	e92dd800 	push	{fp, ip, lr, pc}
 c108cfc:	e24cb004 	sub	fp, ip, #4
 c108d00:	e59f3024 	ldr	r3, [pc, #36]	; c108d2c <ts_close+0x38>
 c108d04:	e59f2020 	ldr	r2, [pc, #32]	; c108d2c <ts_close+0x38>
 c108d08:	e5922000 	ldr	r2, [r2]
 c108d0c:	e3822502 	orr	r2, r2, #8388608	; 0x800000
 c108d10:	e5832000 	str	r2, [r3]
 c108d14:	e59f3014 	ldr	r3, [pc, #20]	; c108d30 <ts_close+0x3c>
 c108d18:	e59f2014 	ldr	r2, [pc, #20]	; c108d34 <ts_close+0x40>
 c108d1c:	e5832000 	str	r2, [r3]
 c108d20:	e24bd00c 	sub	sp, fp, #12
 c108d24:	e89d6800 	ldm	sp, {fp, sp, lr}
 c108d28:	e12fff1e 	bx	lr
 c108d2c:	01e0000c 	.word	0x01e0000c
 c108d30:	0c7fff7c 	.word	0x0c7fff7c
 c108d34:	0c1071e8 	.word	0x0c1071e8

0c108d38 <ts_init>:
 c108d38:	e1a0c00d 	mov	ip, sp
 c108d3c:	e92dd800 	push	{fp, ip, lr, pc}
 c108d40:	e24cb004 	sub	fp, ip, #4
 c108d44:	e59f309c 	ldr	r3, [pc, #156]	; c108de8 <ts_init+0xb0>
 c108d48:	e59f2098 	ldr	r2, [pc, #152]	; c108de8 <ts_init+0xb0>
 c108d4c:	e5922000 	ldr	r2, [r2]
 c108d50:	e3822d52 	orr	r2, r2, #5248	; 0x1480
 c108d54:	e5832000 	str	r2, [r3]
 c108d58:	e59f308c 	ldr	r3, [pc, #140]	; c108dec <ts_init+0xb4>
 c108d5c:	e59f2088 	ldr	r2, [pc, #136]	; c108dec <ts_init+0xb4>
 c108d60:	e5922000 	ldr	r2, [r2]
 c108d64:	e3c22cff 	bic	r2, r2, #65280	; 0xff00
 c108d68:	e3822c55 	orr	r2, r2, #21760	; 0x5500
 c108d6c:	e5832000 	str	r2, [r3]
 c108d70:	e59f3078 	ldr	r3, [pc, #120]	; c108df0 <ts_init+0xb8>
 c108d74:	e59f2074 	ldr	r2, [pc, #116]	; c108df0 <ts_init+0xb8>
 c108d78:	e5922000 	ldr	r2, [r2]
 c108d7c:	e38220f0 	orr	r2, r2, #240	; 0xf0
 c108d80:	e5832000 	str	r2, [r3]
 c108d84:	e59f3068 	ldr	r3, [pc, #104]	; c108df4 <ts_init+0xbc>
 c108d88:	e59f2064 	ldr	r2, [pc, #100]	; c108df4 <ts_init+0xbc>
 c108d8c:	e5922000 	ldr	r2, [r2]
 c108d90:	e3822030 	orr	r2, r2, #48	; 0x30
 c108d94:	e5832000 	str	r2, [r3]
 c108d98:	e59f3058 	ldr	r3, [pc, #88]	; c108df8 <ts_init+0xc0>
 c108d9c:	e59f2054 	ldr	r2, [pc, #84]	; c108df8 <ts_init+0xc0>
 c108da0:	e5922000 	ldr	r2, [r2]
 c108da4:	e3c22c07 	bic	r2, r2, #1792	; 0x700
 c108da8:	e3822c02 	orr	r2, r2, #512	; 0x200
 c108dac:	e5832000 	str	r2, [r3]
 c108db0:	ebfffad5 	bl	c10790c <timers_init>
 c108db4:	ebffec6e 	bl	c103f74 <lcd_init>
 c108db8:	eb000205 	bl	c1095d4 <adc_init>
 c108dbc:	e59f3038 	ldr	r3, [pc, #56]	; c108dfc <ts_init+0xc4>
 c108dc0:	e3a020b0 	mov	r2, #176	; 0xb0
 c108dc4:	e5832000 	str	r2, [r3]
 c108dc8:	e3a00001 	mov	r0, #1
 c108dcc:	ebfffb80 	bl	c107bd4 <sw_delay_ms>
 c108dd0:	ebfffd82 	bl	c1083e0 <ts_on>
 c108dd4:	ebfffdb0 	bl	c10849c <ts_calibrate>
 c108dd8:	ebfffd8b 	bl	c10840c <ts_off>
 c108ddc:	e24bd00c 	sub	sp, fp, #12
 c108de0:	e89d6800 	ldm	sp, {fp, sp, lr}
 c108de4:	e12fff1e 	bx	lr
 c108de8:	01d80004 	.word	0x01d80004
 c108dec:	01d20028 	.word	0x01d20028
 c108df0:	01d20030 	.word	0x01d20030
 c108df4:	01d20040 	.word	0x01d20040
 c108df8:	01d20050 	.word	0x01d20050
 c108dfc:	01d2002c 	.word	0x01d2002c

0c108e00 <ts_getpos>:
 c108e00:	e1a0c00d 	mov	ip, sp
 c108e04:	e92dd800 	push	{fp, ip, lr, pc}
 c108e08:	e24cb004 	sub	fp, ip, #4
 c108e0c:	e24dd010 	sub	sp, sp, #16
 c108e10:	e50b0018 	str	r0, [fp, #-24]	; 0xffffffe8
 c108e14:	e50b101c 	str	r1, [fp, #-28]	; 0xffffffe4
 c108e18:	e1a00000 	nop			; (mov r0, r0)
 c108e1c:	e59f3070 	ldr	r3, [pc, #112]	; c108e94 <ts_getpos+0x94>
 c108e20:	e5933000 	ldr	r3, [r3]
 c108e24:	e2033004 	and	r3, r3, #4
 c108e28:	e3530000 	cmp	r3, #0
 c108e2c:	1afffffa 	bne	c108e1c <ts_getpos+0x1c>
 c108e30:	e3a0001e 	mov	r0, #30
 c108e34:	ebfffb66 	bl	c107bd4 <sw_delay_ms>
 c108e38:	e24b200e 	sub	r2, fp, #14
 c108e3c:	e24b3010 	sub	r3, fp, #16
 c108e40:	e1a00002 	mov	r0, r2
 c108e44:	e1a01003 	mov	r1, r3
 c108e48:	ebffff0f 	bl	c108a8c <ts_scan>
 c108e4c:	e15b20be 	ldrh	r2, [fp, #-14]
 c108e50:	e15b31b0 	ldrh	r3, [fp, #-16]
 c108e54:	e1a00002 	mov	r0, r2
 c108e58:	e1a01003 	mov	r1, r3
 c108e5c:	e51b2018 	ldr	r2, [fp, #-24]	; 0xffffffe8
 c108e60:	e51b301c 	ldr	r3, [fp, #-28]	; 0xffffffe4
 c108e64:	ebffff29 	bl	c108b10 <ts_sample2coord>
 c108e68:	e1a00000 	nop			; (mov r0, r0)
 c108e6c:	e59f3020 	ldr	r3, [pc, #32]	; c108e94 <ts_getpos+0x94>
 c108e70:	e5933000 	ldr	r3, [r3]
 c108e74:	e2033004 	and	r3, r3, #4
 c108e78:	e3530000 	cmp	r3, #0
 c108e7c:	0afffffa 	beq	c108e6c <ts_getpos+0x6c>
 c108e80:	e3a00064 	mov	r0, #100	; 0x64
 c108e84:	ebfffb52 	bl	c107bd4 <sw_delay_ms>
 c108e88:	e24bd00c 	sub	sp, fp, #12
 c108e8c:	e89d6800 	ldm	sp, {fp, sp, lr}
 c108e90:	e12fff1e 	bx	lr
 c108e94:	01d20044 	.word	0x01d20044

0c108e98 <uart0_init>:
 c108e98:	e1a0c00d 	mov	ip, sp
 c108e9c:	e92dd800 	push	{fp, ip, lr, pc}
 c108ea0:	e24cb004 	sub	fp, ip, #4
 c108ea4:	e3a00008 	mov	r0, #8
 c108ea8:	ebfff184 	bl	c1054c0 <power_on>
 c108eac:	e59f306c 	ldr	r3, [pc, #108]	; c108f20 <uart0_init+0x88>
 c108eb0:	e59f2068 	ldr	r2, [pc, #104]	; c108f20 <uart0_init+0x88>
 c108eb4:	e5922000 	ldr	r2, [r2]
 c108eb8:	e3c2203c 	bic	r2, r2, #60	; 0x3c
 c108ebc:	e3822028 	orr	r2, r2, #40	; 0x28
 c108ec0:	e5832000 	str	r2, [r3]
 c108ec4:	e59f3058 	ldr	r3, [pc, #88]	; c108f24 <uart0_init+0x8c>
 c108ec8:	e59f2054 	ldr	r2, [pc, #84]	; c108f24 <uart0_init+0x8c>
 c108ecc:	e5922000 	ldr	r2, [r2]
 c108ed0:	e3822006 	orr	r2, r2, #6
 c108ed4:	e5832000 	str	r2, [r3]
 c108ed8:	e59f3048 	ldr	r3, [pc, #72]	; c108f28 <uart0_init+0x90>
 c108edc:	e3a02001 	mov	r2, #1
 c108ee0:	e5832000 	str	r2, [r3]
 c108ee4:	e59f3040 	ldr	r3, [pc, #64]	; c108f2c <uart0_init+0x94>
 c108ee8:	e3a02000 	mov	r2, #0
 c108eec:	e5832000 	str	r2, [r3]
 c108ef0:	e3a0361d 	mov	r3, #30408704	; 0x1d00000
 c108ef4:	e3a02003 	mov	r2, #3
 c108ef8:	e5832000 	str	r2, [r3]
 c108efc:	e59f302c 	ldr	r3, [pc, #44]	; c108f30 <uart0_init+0x98>
 c108f00:	e3a02022 	mov	r2, #34	; 0x22
 c108f04:	e5832000 	str	r2, [r3]
 c108f08:	e59f3024 	ldr	r3, [pc, #36]	; c108f34 <uart0_init+0x9c>
 c108f0c:	e3a02005 	mov	r2, #5
 c108f10:	e5832000 	str	r2, [r3]
 c108f14:	e24bd00c 	sub	sp, fp, #12
 c108f18:	e89d6800 	ldm	sp, {fp, sp, lr}
 c108f1c:	e12fff1e 	bx	lr
 c108f20:	01d20028 	.word	0x01d20028
 c108f24:	01d20030 	.word	0x01d20030
 c108f28:	01d00008 	.word	0x01d00008
 c108f2c:	01d0000c 	.word	0x01d0000c
 c108f30:	01d00028 	.word	0x01d00028
 c108f34:	01d00004 	.word	0x01d00004

0c108f38 <uart0_putchar>:
 c108f38:	e1a0c00d 	mov	ip, sp
 c108f3c:	e92dd800 	push	{fp, ip, lr, pc}
 c108f40:	e24cb004 	sub	fp, ip, #4
 c108f44:	e24dd008 	sub	sp, sp, #8
 c108f48:	e1a03000 	mov	r3, r0
 c108f4c:	e54b300d 	strb	r3, [fp, #-13]
 c108f50:	e1a00000 	nop			; (mov r0, r0)
 c108f54:	e59f3024 	ldr	r3, [pc, #36]	; c108f80 <uart0_putchar+0x48>
 c108f58:	e5933000 	ldr	r3, [r3]
 c108f5c:	e2033c02 	and	r3, r3, #512	; 0x200
 c108f60:	e3530000 	cmp	r3, #0
 c108f64:	1afffffa 	bne	c108f54 <uart0_putchar+0x1c>
 c108f68:	e59f3014 	ldr	r3, [pc, #20]	; c108f84 <uart0_putchar+0x4c>
 c108f6c:	e55b200d 	ldrb	r2, [fp, #-13]
 c108f70:	e5832000 	str	r2, [r3]
 c108f74:	e24bd00c 	sub	sp, fp, #12
 c108f78:	e89d6800 	ldm	sp, {fp, sp, lr}
 c108f7c:	e12fff1e 	bx	lr
 c108f80:	01d00018 	.word	0x01d00018
 c108f84:	01d00020 	.word	0x01d00020

0c108f88 <uart0_getchar>:
 c108f88:	e1a0c00d 	mov	ip, sp
 c108f8c:	e92dd800 	push	{fp, ip, lr, pc}
 c108f90:	e24cb004 	sub	fp, ip, #4
 c108f94:	e24dd008 	sub	sp, sp, #8
 c108f98:	e1a00000 	nop			; (mov r0, r0)
 c108f9c:	e59f302c 	ldr	r3, [pc, #44]	; c108fd0 <uart0_getchar+0x48>
 c108fa0:	e5933000 	ldr	r3, [r3]
 c108fa4:	e203300f 	and	r3, r3, #15
 c108fa8:	e3530000 	cmp	r3, #0
 c108fac:	0afffffa 	beq	c108f9c <uart0_getchar+0x14>
 c108fb0:	e59f301c 	ldr	r3, [pc, #28]	; c108fd4 <uart0_getchar+0x4c>
 c108fb4:	e5933000 	ldr	r3, [r3]
 c108fb8:	e54b300d 	strb	r3, [fp, #-13]
 c108fbc:	e55b300d 	ldrb	r3, [fp, #-13]
 c108fc0:	e1a00003 	mov	r0, r3
 c108fc4:	e24bd00c 	sub	sp, fp, #12
 c108fc8:	e89d6800 	ldm	sp, {fp, sp, lr}
 c108fcc:	e12fff1e 	bx	lr
 c108fd0:	01d00018 	.word	0x01d00018
 c108fd4:	01d00024 	.word	0x01d00024

0c108fd8 <uart0_puts>:
 c108fd8:	e1a0c00d 	mov	ip, sp
 c108fdc:	e92dd800 	push	{fp, ip, lr, pc}
 c108fe0:	e24cb004 	sub	fp, ip, #4
 c108fe4:	e24dd008 	sub	sp, sp, #8
 c108fe8:	e50b0010 	str	r0, [fp, #-16]
 c108fec:	ea000006 	b	c10900c <uart0_puts+0x34>
 c108ff0:	e51b3010 	ldr	r3, [fp, #-16]
 c108ff4:	e5d33000 	ldrb	r3, [r3]
 c108ff8:	e51b2010 	ldr	r2, [fp, #-16]
 c108ffc:	e2822001 	add	r2, r2, #1
 c109000:	e50b2010 	str	r2, [fp, #-16]
 c109004:	e1a00003 	mov	r0, r3
 c109008:	ebffffca 	bl	c108f38 <uart0_putchar>
 c10900c:	e51b3010 	ldr	r3, [fp, #-16]
 c109010:	e5d33000 	ldrb	r3, [r3]
 c109014:	e3530000 	cmp	r3, #0
 c109018:	1afffff4 	bne	c108ff0 <uart0_puts+0x18>
 c10901c:	e24bd00c 	sub	sp, fp, #12
 c109020:	e89d6800 	ldm	sp, {fp, sp, lr}
 c109024:	e12fff1e 	bx	lr

0c109028 <uart0_putint>:
 c109028:	e1a0c00d 	mov	ip, sp
 c10902c:	e92dd800 	push	{fp, ip, lr, pc}
 c109030:	e24cb004 	sub	fp, ip, #4
 c109034:	e24dd018 	sub	sp, sp, #24
 c109038:	e50b0020 	str	r0, [fp, #-32]	; 0xffffffe0
 c10903c:	e24b301c 	sub	r3, fp, #28
 c109040:	e283300b 	add	r3, r3, #11
 c109044:	e50b3010 	str	r3, [fp, #-16]
 c109048:	e51b3010 	ldr	r3, [fp, #-16]
 c10904c:	e3a02000 	mov	r2, #0
 c109050:	e5c32000 	strb	r2, [r3]
 c109054:	e51b3020 	ldr	r3, [fp, #-32]	; 0xffffffe0
 c109058:	e3530000 	cmp	r3, #0
 c10905c:	ba00001d 	blt	c1090d8 <uart0_putint+0xb0>
 c109060:	e51b3010 	ldr	r3, [fp, #-16]
 c109064:	e2433001 	sub	r3, r3, #1
 c109068:	e50b3010 	str	r3, [fp, #-16]
 c10906c:	e51b1020 	ldr	r1, [fp, #-32]	; 0xffffffe0
 c109070:	e59f3100 	ldr	r3, [pc, #256]	; c109178 <uart0_putint+0x150>
 c109074:	e0c32391 	smull	r2, r3, r1, r3
 c109078:	e1a02143 	asr	r2, r3, #2
 c10907c:	e1a03fc1 	asr	r3, r1, #31
 c109080:	e0632002 	rsb	r2, r3, r2
 c109084:	e1a03002 	mov	r3, r2
 c109088:	e1a03103 	lsl	r3, r3, #2
 c10908c:	e0833002 	add	r3, r3, r2
 c109090:	e1a03083 	lsl	r3, r3, #1
 c109094:	e0632001 	rsb	r2, r3, r1
 c109098:	e20230ff 	and	r3, r2, #255	; 0xff
 c10909c:	e2833030 	add	r3, r3, #48	; 0x30
 c1090a0:	e20320ff 	and	r2, r3, #255	; 0xff
 c1090a4:	e51b3010 	ldr	r3, [fp, #-16]
 c1090a8:	e5c32000 	strb	r2, [r3]
 c1090ac:	e51b3020 	ldr	r3, [fp, #-32]	; 0xffffffe0
 c1090b0:	e59f20c0 	ldr	r2, [pc, #192]	; c109178 <uart0_putint+0x150>
 c1090b4:	e0c21293 	smull	r1, r2, r3, r2
 c1090b8:	e1a02142 	asr	r2, r2, #2
 c1090bc:	e1a03fc3 	asr	r3, r3, #31
 c1090c0:	e0633002 	rsb	r3, r3, r2
 c1090c4:	e50b3020 	str	r3, [fp, #-32]	; 0xffffffe0
 c1090c8:	e51b3020 	ldr	r3, [fp, #-32]	; 0xffffffe0
 c1090cc:	e3530000 	cmp	r3, #0
 c1090d0:	1affffe2 	bne	c109060 <uart0_putint+0x38>
 c1090d4:	ea000022 	b	c109164 <uart0_putint+0x13c>
 c1090d8:	e51b3010 	ldr	r3, [fp, #-16]
 c1090dc:	e2433001 	sub	r3, r3, #1
 c1090e0:	e50b3010 	str	r3, [fp, #-16]
 c1090e4:	e51b1020 	ldr	r1, [fp, #-32]	; 0xffffffe0
 c1090e8:	e59f3088 	ldr	r3, [pc, #136]	; c109178 <uart0_putint+0x150>
 c1090ec:	e0c32391 	smull	r2, r3, r1, r3
 c1090f0:	e1a02143 	asr	r2, r3, #2
 c1090f4:	e1a03fc1 	asr	r3, r1, #31
 c1090f8:	e0632002 	rsb	r2, r3, r2
 c1090fc:	e1a03002 	mov	r3, r2
 c109100:	e1a03103 	lsl	r3, r3, #2
 c109104:	e0833002 	add	r3, r3, r2
 c109108:	e1a03083 	lsl	r3, r3, #1
 c10910c:	e0632001 	rsb	r2, r3, r1
 c109110:	e20230ff 	and	r3, r2, #255	; 0xff
 c109114:	e2633030 	rsb	r3, r3, #48	; 0x30
 c109118:	e20320ff 	and	r2, r3, #255	; 0xff
 c10911c:	e51b3010 	ldr	r3, [fp, #-16]
 c109120:	e5c32000 	strb	r2, [r3]
 c109124:	e51b3020 	ldr	r3, [fp, #-32]	; 0xffffffe0
 c109128:	e59f2048 	ldr	r2, [pc, #72]	; c109178 <uart0_putint+0x150>
 c10912c:	e0c21293 	smull	r1, r2, r3, r2
 c109130:	e1a02142 	asr	r2, r2, #2
 c109134:	e1a03fc3 	asr	r3, r3, #31
 c109138:	e0633002 	rsb	r3, r3, r2
 c10913c:	e50b3020 	str	r3, [fp, #-32]	; 0xffffffe0
 c109140:	e51b3020 	ldr	r3, [fp, #-32]	; 0xffffffe0
 c109144:	e3530000 	cmp	r3, #0
 c109148:	1affffe2 	bne	c1090d8 <uart0_putint+0xb0>
 c10914c:	e51b3010 	ldr	r3, [fp, #-16]
 c109150:	e2433001 	sub	r3, r3, #1
 c109154:	e50b3010 	str	r3, [fp, #-16]
 c109158:	e51b3010 	ldr	r3, [fp, #-16]
 c10915c:	e3a0202d 	mov	r2, #45	; 0x2d
 c109160:	e5c32000 	strb	r2, [r3]
 c109164:	e51b0010 	ldr	r0, [fp, #-16]
 c109168:	ebffff9a 	bl	c108fd8 <uart0_puts>
 c10916c:	e24bd00c 	sub	sp, fp, #12
 c109170:	e89d6800 	ldm	sp, {fp, sp, lr}
 c109174:	e12fff1e 	bx	lr
 c109178:	66666667 	.word	0x66666667

0c10917c <uart0_puthex>:
 c10917c:	e1a0c00d 	mov	ip, sp
 c109180:	e92dd800 	push	{fp, ip, lr, pc}
 c109184:	e24cb004 	sub	fp, ip, #4
 c109188:	e24dd018 	sub	sp, sp, #24
 c10918c:	e50b0020 	str	r0, [fp, #-32]	; 0xffffffe0
 c109190:	e24b301c 	sub	r3, fp, #28
 c109194:	e2833008 	add	r3, r3, #8
 c109198:	e50b3010 	str	r3, [fp, #-16]
 c10919c:	e51b3010 	ldr	r3, [fp, #-16]
 c1091a0:	e3a02000 	mov	r2, #0
 c1091a4:	e5c32000 	strb	r2, [r3]
 c1091a8:	e51b3020 	ldr	r3, [fp, #-32]	; 0xffffffe0
 c1091ac:	e20330ff 	and	r3, r3, #255	; 0xff
 c1091b0:	e203300f 	and	r3, r3, #15
 c1091b4:	e54b3011 	strb	r3, [fp, #-17]	; 0xffffffef
 c1091b8:	e55b3011 	ldrb	r3, [fp, #-17]	; 0xffffffef
 c1091bc:	e3530009 	cmp	r3, #9
 c1091c0:	8a000008 	bhi	c1091e8 <uart0_puthex+0x6c>
 c1091c4:	e51b3010 	ldr	r3, [fp, #-16]
 c1091c8:	e2433001 	sub	r3, r3, #1
 c1091cc:	e50b3010 	str	r3, [fp, #-16]
 c1091d0:	e55b3011 	ldrb	r3, [fp, #-17]	; 0xffffffef
 c1091d4:	e2833030 	add	r3, r3, #48	; 0x30
 c1091d8:	e20320ff 	and	r2, r3, #255	; 0xff
 c1091dc:	e51b3010 	ldr	r3, [fp, #-16]
 c1091e0:	e5c32000 	strb	r2, [r3]
 c1091e4:	ea000007 	b	c109208 <uart0_puthex+0x8c>
 c1091e8:	e51b3010 	ldr	r3, [fp, #-16]
 c1091ec:	e2433001 	sub	r3, r3, #1
 c1091f0:	e50b3010 	str	r3, [fp, #-16]
 c1091f4:	e55b3011 	ldrb	r3, [fp, #-17]	; 0xffffffef
 c1091f8:	e2833057 	add	r3, r3, #87	; 0x57
 c1091fc:	e20320ff 	and	r2, r3, #255	; 0xff
 c109200:	e51b3010 	ldr	r3, [fp, #-16]
 c109204:	e5c32000 	strb	r2, [r3]
 c109208:	e51b3020 	ldr	r3, [fp, #-32]	; 0xffffffe0
 c10920c:	e1a03223 	lsr	r3, r3, #4
 c109210:	e50b3020 	str	r3, [fp, #-32]	; 0xffffffe0
 c109214:	e51b3020 	ldr	r3, [fp, #-32]	; 0xffffffe0
 c109218:	e3530000 	cmp	r3, #0
 c10921c:	1affffe1 	bne	c1091a8 <uart0_puthex+0x2c>
 c109220:	e51b0010 	ldr	r0, [fp, #-16]
 c109224:	ebffff6b 	bl	c108fd8 <uart0_puts>
 c109228:	e24bd00c 	sub	sp, fp, #12
 c10922c:	e89d6800 	ldm	sp, {fp, sp, lr}
 c109230:	e12fff1e 	bx	lr

0c109234 <uart0_gets>:
 c109234:	e1a0c00d 	mov	ip, sp
 c109238:	e92dd800 	push	{fp, ip, lr, pc}
 c10923c:	e24cb004 	sub	fp, ip, #4
 c109240:	e24dd010 	sub	sp, sp, #16
 c109244:	e50b0018 	str	r0, [fp, #-24]	; 0xffffffe8
 c109248:	ea000005 	b	c109264 <uart0_gets+0x30>
 c10924c:	e51b3018 	ldr	r3, [fp, #-24]	; 0xffffffe8
 c109250:	e55b200d 	ldrb	r2, [fp, #-13]
 c109254:	e5c32000 	strb	r2, [r3]
 c109258:	e51b3018 	ldr	r3, [fp, #-24]	; 0xffffffe8
 c10925c:	e2833001 	add	r3, r3, #1
 c109260:	e50b3018 	str	r3, [fp, #-24]	; 0xffffffe8
 c109264:	ebffff47 	bl	c108f88 <uart0_getchar>
 c109268:	e1a03000 	mov	r3, r0
 c10926c:	e54b300d 	strb	r3, [fp, #-13]
 c109270:	e55b300d 	ldrb	r3, [fp, #-13]
 c109274:	e353000a 	cmp	r3, #10
 c109278:	1afffff3 	bne	c10924c <uart0_gets+0x18>
 c10927c:	e51b3018 	ldr	r3, [fp, #-24]	; 0xffffffe8
 c109280:	e3a02000 	mov	r2, #0
 c109284:	e5c32000 	strb	r2, [r3]
 c109288:	e24bd00c 	sub	sp, fp, #12
 c10928c:	e89d6800 	ldm	sp, {fp, sp, lr}
 c109290:	e12fff1e 	bx	lr

0c109294 <uart0_getint>:
 c109294:	e1a0c00d 	mov	ip, sp
 c109298:	e92dd800 	push	{fp, ip, lr, pc}
 c10929c:	e24cb004 	sub	fp, ip, #4
 c1092a0:	e24dde11 	sub	sp, sp, #272	; 0x110
 c1092a4:	e24b3f46 	sub	r3, fp, #280	; 0x118
 c1092a8:	e50b3010 	str	r3, [fp, #-16]
 c1092ac:	e3a03000 	mov	r3, #0
 c1092b0:	e50b3014 	str	r3, [fp, #-20]	; 0xffffffec
 c1092b4:	e3a03000 	mov	r3, #0
 c1092b8:	e54b3015 	strb	r3, [fp, #-21]	; 0xffffffeb
 c1092bc:	e24b3f46 	sub	r3, fp, #280	; 0x118
 c1092c0:	e1a00003 	mov	r0, r3
 c1092c4:	ebffffda 	bl	c109234 <uart0_gets>
 c1092c8:	e51b3010 	ldr	r3, [fp, #-16]
 c1092cc:	e5d33000 	ldrb	r3, [r3]
 c1092d0:	e353002d 	cmp	r3, #45	; 0x2d
 c1092d4:	1a000014 	bne	c10932c <uart0_getint+0x98>
 c1092d8:	e3a03001 	mov	r3, #1
 c1092dc:	e54b3015 	strb	r3, [fp, #-21]	; 0xffffffeb
 c1092e0:	e51b3010 	ldr	r3, [fp, #-16]
 c1092e4:	e2833001 	add	r3, r3, #1
 c1092e8:	e50b3010 	str	r3, [fp, #-16]
 c1092ec:	ea00000f 	b	c109330 <uart0_getint+0x9c>
 c1092f0:	e51b2014 	ldr	r2, [fp, #-20]	; 0xffffffec
 c1092f4:	e1a03002 	mov	r3, r2
 c1092f8:	e1a03103 	lsl	r3, r3, #2
 c1092fc:	e0833002 	add	r3, r3, r2
 c109300:	e1a03083 	lsl	r3, r3, #1
 c109304:	e1a02003 	mov	r2, r3
 c109308:	e51b3010 	ldr	r3, [fp, #-16]
 c10930c:	e5d33000 	ldrb	r3, [r3]
 c109310:	e2433030 	sub	r3, r3, #48	; 0x30
 c109314:	e0823003 	add	r3, r2, r3
 c109318:	e50b3014 	str	r3, [fp, #-20]	; 0xffffffec
 c10931c:	e51b3010 	ldr	r3, [fp, #-16]
 c109320:	e2833001 	add	r3, r3, #1
 c109324:	e50b3010 	str	r3, [fp, #-16]
 c109328:	ea000000 	b	c109330 <uart0_getint+0x9c>
 c10932c:	e1a00000 	nop			; (mov r0, r0)
 c109330:	e51b3010 	ldr	r3, [fp, #-16]
 c109334:	e5d33000 	ldrb	r3, [r3]
 c109338:	e3530000 	cmp	r3, #0
 c10933c:	1affffeb 	bne	c1092f0 <uart0_getint+0x5c>
 c109340:	e55b3015 	ldrb	r3, [fp, #-21]	; 0xffffffeb
 c109344:	e3530000 	cmp	r3, #0
 c109348:	0a000002 	beq	c109358 <uart0_getint+0xc4>
 c10934c:	e51b3014 	ldr	r3, [fp, #-20]	; 0xffffffec
 c109350:	e2633000 	rsb	r3, r3, #0
 c109354:	e50b3014 	str	r3, [fp, #-20]	; 0xffffffec
 c109358:	e51b3014 	ldr	r3, [fp, #-20]	; 0xffffffec
 c10935c:	e1a00003 	mov	r0, r3
 c109360:	e24bd00c 	sub	sp, fp, #12
 c109364:	e89d6800 	ldm	sp, {fp, sp, lr}
 c109368:	e12fff1e 	bx	lr

0c10936c <uart0_gethex>:
 c10936c:	e1a0c00d 	mov	ip, sp
 c109370:	e92dd800 	push	{fp, ip, lr, pc}
 c109374:	e24cb004 	sub	fp, ip, #4
 c109378:	e24ddf42 	sub	sp, sp, #264	; 0x108
 c10937c:	e24b3f45 	sub	r3, fp, #276	; 0x114
 c109380:	e50b3010 	str	r3, [fp, #-16]
 c109384:	e3a03000 	mov	r3, #0
 c109388:	e50b3014 	str	r3, [fp, #-20]	; 0xffffffec
 c10938c:	e24b3f45 	sub	r3, fp, #276	; 0x114
 c109390:	e1a00003 	mov	r0, r3
 c109394:	ebffffa6 	bl	c109234 <uart0_gets>
 c109398:	ea00002f 	b	c10945c <uart0_gethex+0xf0>
 c10939c:	e51b3010 	ldr	r3, [fp, #-16]
 c1093a0:	e5d33000 	ldrb	r3, [r3]
 c1093a4:	e3530040 	cmp	r3, #64	; 0x40
 c1093a8:	9a00000e 	bls	c1093e8 <uart0_gethex+0x7c>
 c1093ac:	e51b3010 	ldr	r3, [fp, #-16]
 c1093b0:	e5d33000 	ldrb	r3, [r3]
 c1093b4:	e3530046 	cmp	r3, #70	; 0x46
 c1093b8:	8a00000a 	bhi	c1093e8 <uart0_gethex+0x7c>
 c1093bc:	e51b3014 	ldr	r3, [fp, #-20]	; 0xffffffec
 c1093c0:	e1a02203 	lsl	r2, r3, #4
 c1093c4:	e51b3010 	ldr	r3, [fp, #-16]
 c1093c8:	e5d33000 	ldrb	r3, [r3]
 c1093cc:	e0823003 	add	r3, r2, r3
 c1093d0:	e2433037 	sub	r3, r3, #55	; 0x37
 c1093d4:	e50b3014 	str	r3, [fp, #-20]	; 0xffffffec
 c1093d8:	e51b3010 	ldr	r3, [fp, #-16]
 c1093dc:	e2833001 	add	r3, r3, #1
 c1093e0:	e50b3010 	str	r3, [fp, #-16]
 c1093e4:	ea00001c 	b	c10945c <uart0_gethex+0xf0>
 c1093e8:	e51b3010 	ldr	r3, [fp, #-16]
 c1093ec:	e5d33000 	ldrb	r3, [r3]
 c1093f0:	e3530060 	cmp	r3, #96	; 0x60
 c1093f4:	9a00000e 	bls	c109434 <uart0_gethex+0xc8>
 c1093f8:	e51b3010 	ldr	r3, [fp, #-16]
 c1093fc:	e5d33000 	ldrb	r3, [r3]
 c109400:	e3530066 	cmp	r3, #102	; 0x66
 c109404:	8a00000a 	bhi	c109434 <uart0_gethex+0xc8>
 c109408:	e51b3014 	ldr	r3, [fp, #-20]	; 0xffffffec
 c10940c:	e1a02203 	lsl	r2, r3, #4
 c109410:	e51b3010 	ldr	r3, [fp, #-16]
 c109414:	e5d33000 	ldrb	r3, [r3]
 c109418:	e0823003 	add	r3, r2, r3
 c10941c:	e2433057 	sub	r3, r3, #87	; 0x57
 c109420:	e50b3014 	str	r3, [fp, #-20]	; 0xffffffec
 c109424:	e51b3010 	ldr	r3, [fp, #-16]
 c109428:	e2833001 	add	r3, r3, #1
 c10942c:	e50b3010 	str	r3, [fp, #-16]
 c109430:	ea000009 	b	c10945c <uart0_gethex+0xf0>
 c109434:	e51b3014 	ldr	r3, [fp, #-20]	; 0xffffffec
 c109438:	e1a02203 	lsl	r2, r3, #4
 c10943c:	e51b3010 	ldr	r3, [fp, #-16]
 c109440:	e5d33000 	ldrb	r3, [r3]
 c109444:	e0823003 	add	r3, r2, r3
 c109448:	e2433030 	sub	r3, r3, #48	; 0x30
 c10944c:	e50b3014 	str	r3, [fp, #-20]	; 0xffffffec
 c109450:	e51b3010 	ldr	r3, [fp, #-16]
 c109454:	e2833001 	add	r3, r3, #1
 c109458:	e50b3010 	str	r3, [fp, #-16]
 c10945c:	e51b3010 	ldr	r3, [fp, #-16]
 c109460:	e5d33000 	ldrb	r3, [r3]
 c109464:	e3530000 	cmp	r3, #0
 c109468:	1affffcb 	bne	c10939c <uart0_gethex+0x30>
 c10946c:	e51b3014 	ldr	r3, [fp, #-20]	; 0xffffffec
 c109470:	e1a00003 	mov	r0, r3
 c109474:	e24bd00c 	sub	sp, fp, #12
 c109478:	e89d6800 	ldm	sp, {fp, sp, lr}
 c10947c:	e12fff1e 	bx	lr

0c109480 <adc_on>:
 c109480:	e1a0c00d 	mov	ip, sp
 c109484:	e92dd800 	push	{fp, ip, lr, pc}
 c109488:	e24cb004 	sub	fp, ip, #4
 c10948c:	e3a0000c 	mov	r0, #12
 c109490:	ebfff00a 	bl	c1054c0 <power_on>
 c109494:	e3a03775 	mov	r3, #30670848	; 0x1d40000
 c109498:	e3a02775 	mov	r2, #30670848	; 0x1d40000
 c10949c:	e5922000 	ldr	r2, [r2]
 c1094a0:	e3c22020 	bic	r2, r2, #32
 c1094a4:	e5832000 	str	r2, [r3]
 c1094a8:	e3a0000a 	mov	r0, #10
 c1094ac:	ebfff9c8 	bl	c107bd4 <sw_delay_ms>
 c1094b0:	e59f3010 	ldr	r3, [pc, #16]	; c1094c8 <adc_on+0x48>
 c1094b4:	e3a02001 	mov	r2, #1
 c1094b8:	e5c32000 	strb	r2, [r3]
 c1094bc:	e24bd00c 	sub	sp, fp, #12
 c1094c0:	e89d6800 	ldm	sp, {fp, sp, lr}
 c1094c4:	e12fff1e 	bx	lr
 c1094c8:	0c115806 	.word	0x0c115806

0c1094cc <adc_off>:
 c1094cc:	e1a0c00d 	mov	ip, sp
 c1094d0:	e92dd800 	push	{fp, ip, lr, pc}
 c1094d4:	e24cb004 	sub	fp, ip, #4
 c1094d8:	e3a03775 	mov	r3, #30670848	; 0x1d40000
 c1094dc:	e3a02775 	mov	r2, #30670848	; 0x1d40000
 c1094e0:	e5922000 	ldr	r2, [r2]
 c1094e4:	e3822020 	orr	r2, r2, #32
 c1094e8:	e5832000 	str	r2, [r3]
 c1094ec:	e3a0000c 	mov	r0, #12
 c1094f0:	ebfff02a 	bl	c1055a0 <power_off>
 c1094f4:	e59f3010 	ldr	r3, [pc, #16]	; c10950c <adc_off+0x40>
 c1094f8:	e3a02000 	mov	r2, #0
 c1094fc:	e5c32000 	strb	r2, [r3]
 c109500:	e24bd00c 	sub	sp, fp, #12
 c109504:	e89d6800 	ldm	sp, {fp, sp, lr}
 c109508:	e12fff1e 	bx	lr
 c10950c:	0c115806 	.word	0x0c115806

0c109510 <adc_status>:
 c109510:	e1a0c00d 	mov	ip, sp
 c109514:	e92dd800 	push	{fp, ip, lr, pc}
 c109518:	e24cb004 	sub	fp, ip, #4
 c10951c:	e59f3010 	ldr	r3, [pc, #16]	; c109534 <adc_status+0x24>
 c109520:	e5d33000 	ldrb	r3, [r3]
 c109524:	e1a00003 	mov	r0, r3
 c109528:	e24bd00c 	sub	sp, fp, #12
 c10952c:	e89d6800 	ldm	sp, {fp, sp, lr}
 c109530:	e12fff1e 	bx	lr
 c109534:	0c115806 	.word	0x0c115806

0c109538 <adc_open>:
 c109538:	e1a0c00d 	mov	ip, sp
 c10953c:	e92dd800 	push	{fp, ip, lr, pc}
 c109540:	e24cb004 	sub	fp, ip, #4
 c109544:	e24dd008 	sub	sp, sp, #8
 c109548:	e50b0010 	str	r0, [fp, #-16]
 c10954c:	e59f3030 	ldr	r3, [pc, #48]	; c109584 <adc_open+0x4c>
 c109550:	e51b2010 	ldr	r2, [fp, #-16]
 c109554:	e5832000 	str	r2, [r3]
 c109558:	e59f3028 	ldr	r3, [pc, #40]	; c109588 <adc_open+0x50>
 c10955c:	e3a02001 	mov	r2, #1
 c109560:	e5832000 	str	r2, [r3]
 c109564:	e59f3020 	ldr	r3, [pc, #32]	; c10958c <adc_open+0x54>
 c109568:	e59f201c 	ldr	r2, [pc, #28]	; c10958c <adc_open+0x54>
 c10956c:	e5922000 	ldr	r2, [r2]
 c109570:	e3c22341 	bic	r2, r2, #67108865	; 0x4000001
 c109574:	e5832000 	str	r2, [r3]
 c109578:	e24bd00c 	sub	sp, fp, #12
 c10957c:	e89d6800 	ldm	sp, {fp, sp, lr}
 c109580:	e12fff1e 	bx	lr
 c109584:	0c7fff20 	.word	0x0c7fff20
 c109588:	01e00024 	.word	0x01e00024
 c10958c:	01e0000c 	.word	0x01e0000c

0c109590 <adc_close>:
 c109590:	e1a0c00d 	mov	ip, sp
 c109594:	e92dd800 	push	{fp, ip, lr, pc}
 c109598:	e24cb004 	sub	fp, ip, #4
 c10959c:	e59f3024 	ldr	r3, [pc, #36]	; c1095c8 <adc_close+0x38>
 c1095a0:	e59f2020 	ldr	r2, [pc, #32]	; c1095c8 <adc_close+0x38>
 c1095a4:	e5922000 	ldr	r2, [r2]
 c1095a8:	e3822001 	orr	r2, r2, #1
 c1095ac:	e5832000 	str	r2, [r3]
 c1095b0:	e59f3014 	ldr	r3, [pc, #20]	; c1095cc <adc_close+0x3c>
 c1095b4:	e59f2014 	ldr	r2, [pc, #20]	; c1095d0 <adc_close+0x40>
 c1095b8:	e5832000 	str	r2, [r3]
 c1095bc:	e24bd00c 	sub	sp, fp, #12
 c1095c0:	e89d6800 	ldm	sp, {fp, sp, lr}
 c1095c4:	e12fff1e 	bx	lr
 c1095c8:	01e0000c 	.word	0x01e0000c
 c1095cc:	0c7fff20 	.word	0x0c7fff20
 c1095d0:	0c106b70 	.word	0x0c106b70

0c1095d4 <adc_init>:
 c1095d4:	e1a0c00d 	mov	ip, sp
 c1095d8:	e92dd800 	push	{fp, ip, lr, pc}
 c1095dc:	e24cb004 	sub	fp, ip, #4
 c1095e0:	e59f3028 	ldr	r3, [pc, #40]	; c109610 <adc_init+0x3c>
 c1095e4:	e59f2024 	ldr	r2, [pc, #36]	; c109610 <adc_init+0x3c>
 c1095e8:	e5922000 	ldr	r2, [r2]
 c1095ec:	e3822d42 	orr	r2, r2, #4224	; 0x1080
 c1095f0:	e5832000 	str	r2, [r3]
 c1095f4:	e59f3018 	ldr	r3, [pc, #24]	; c109614 <adc_init+0x40>
 c1095f8:	e3a02013 	mov	r2, #19
 c1095fc:	e5832000 	str	r2, [r3]
 c109600:	ebffffb1 	bl	c1094cc <adc_off>
 c109604:	e24bd00c 	sub	sp, fp, #12
 c109608:	e89d6800 	ldm	sp, {fp, sp, lr}
 c10960c:	e12fff1e 	bx	lr
 c109610:	01d80004 	.word	0x01d80004
 c109614:	01d40004 	.word	0x01d40004

0c109618 <adc_getSample>:
 c109618:	e1a0c00d 	mov	ip, sp
 c10961c:	e92dd800 	push	{fp, ip, lr, pc}
 c109620:	e24cb004 	sub	fp, ip, #4
 c109624:	e24dd010 	sub	sp, sp, #16
 c109628:	e1a03000 	mov	r3, r0
 c10962c:	e54b3015 	strb	r3, [fp, #-21]	; 0xffffffeb
 c109630:	e3a03775 	mov	r3, #30670848	; 0x1d40000
 c109634:	e55b2015 	ldrb	r2, [fp, #-21]	; 0xffffffeb
 c109638:	e1a02102 	lsl	r2, r2, #2
 c10963c:	e5832000 	str	r2, [r3]
 c109640:	e3a0000a 	mov	r0, #10
 c109644:	ebfff962 	bl	c107bd4 <sw_delay_ms>
 c109648:	e3a03000 	mov	r3, #0
 c10964c:	e54b3011 	strb	r3, [fp, #-17]	; 0xffffffef
 c109650:	e3a03000 	mov	r3, #0
 c109654:	e50b3010 	str	r3, [fp, #-16]
 c109658:	ea00001b 	b	c1096cc <adc_getSample+0xb4>
 c10965c:	e3a03775 	mov	r3, #30670848	; 0x1d40000
 c109660:	e3a02775 	mov	r2, #30670848	; 0x1d40000
 c109664:	e5922000 	ldr	r2, [r2]
 c109668:	e3822001 	orr	r2, r2, #1
 c10966c:	e5832000 	str	r2, [r3]
 c109670:	e1a00000 	nop			; (mov r0, r0)
 c109674:	e3a03775 	mov	r3, #30670848	; 0x1d40000
 c109678:	e5933000 	ldr	r3, [r3]
 c10967c:	e2033001 	and	r3, r3, #1
 c109680:	e20330ff 	and	r3, r3, #255	; 0xff
 c109684:	e3530000 	cmp	r3, #0
 c109688:	1afffff9 	bne	c109674 <adc_getSample+0x5c>
 c10968c:	e1a00000 	nop			; (mov r0, r0)
 c109690:	e3a03775 	mov	r3, #30670848	; 0x1d40000
 c109694:	e5933000 	ldr	r3, [r3]
 c109698:	e2033040 	and	r3, r3, #64	; 0x40
 c10969c:	e3530000 	cmp	r3, #0
 c1096a0:	0afffffa 	beq	c109690 <adc_getSample+0x78>
 c1096a4:	e59f3054 	ldr	r3, [pc, #84]	; c109700 <adc_getSample+0xe8>
 c1096a8:	e5933000 	ldr	r3, [r3]
 c1096ac:	e1a03b03 	lsl	r3, r3, #22
 c1096b0:	e1a03b23 	lsr	r3, r3, #22
 c1096b4:	e51b2010 	ldr	r2, [fp, #-16]
 c1096b8:	e0823003 	add	r3, r2, r3
 c1096bc:	e50b3010 	str	r3, [fp, #-16]
 c1096c0:	e55b3011 	ldrb	r3, [fp, #-17]	; 0xffffffef
 c1096c4:	e2833001 	add	r3, r3, #1
 c1096c8:	e54b3011 	strb	r3, [fp, #-17]	; 0xffffffef
 c1096cc:	e55b3011 	ldrb	r3, [fp, #-17]	; 0xffffffef
 c1096d0:	e3530004 	cmp	r3, #4
 c1096d4:	9affffe0 	bls	c10965c <adc_getSample+0x44>
 c1096d8:	e51b2010 	ldr	r2, [fp, #-16]
 c1096dc:	e59f3020 	ldr	r3, [pc, #32]	; c109704 <adc_getSample+0xec>
 c1096e0:	e0831392 	umull	r1, r3, r2, r3
 c1096e4:	e1a03123 	lsr	r3, r3, #2
 c1096e8:	e1a03803 	lsl	r3, r3, #16
 c1096ec:	e1a03823 	lsr	r3, r3, #16
 c1096f0:	e1a00003 	mov	r0, r3
 c1096f4:	e24bd00c 	sub	sp, fp, #12
 c1096f8:	e89d6800 	ldm	sp, {fp, sp, lr}
 c1096fc:	e12fff1e 	bx	lr
 c109700:	01d40008 	.word	0x01d40008
 c109704:	cccccccd 	.word	0xcccccccd

0c109708 <__aeabi_uidiv>:
 c109708:	e2512001 	subs	r2, r1, #1
 c10970c:	012fff1e 	bxeq	lr
 c109710:	3a000036 	bcc	c1097f0 <__aeabi_uidiv+0xe8>
 c109714:	e1500001 	cmp	r0, r1
 c109718:	9a000022 	bls	c1097a8 <__aeabi_uidiv+0xa0>
 c10971c:	e1110002 	tst	r1, r2
 c109720:	0a000023 	beq	c1097b4 <__aeabi_uidiv+0xac>
 c109724:	e311020e 	tst	r1, #-536870912	; 0xe0000000
 c109728:	01a01181 	lsleq	r1, r1, #3
 c10972c:	03a03008 	moveq	r3, #8
 c109730:	13a03001 	movne	r3, #1
 c109734:	e3510201 	cmp	r1, #268435456	; 0x10000000
 c109738:	31510000 	cmpcc	r1, r0
 c10973c:	31a01201 	lslcc	r1, r1, #4
 c109740:	31a03203 	lslcc	r3, r3, #4
 c109744:	3afffffa 	bcc	c109734 <__aeabi_uidiv+0x2c>
 c109748:	e3510102 	cmp	r1, #-2147483648	; 0x80000000
 c10974c:	31510000 	cmpcc	r1, r0
 c109750:	31a01081 	lslcc	r1, r1, #1
 c109754:	31a03083 	lslcc	r3, r3, #1
 c109758:	3afffffa 	bcc	c109748 <__aeabi_uidiv+0x40>
 c10975c:	e3a02000 	mov	r2, #0
 c109760:	e1500001 	cmp	r0, r1
 c109764:	20400001 	subcs	r0, r0, r1
 c109768:	21822003 	orrcs	r2, r2, r3
 c10976c:	e15000a1 	cmp	r0, r1, lsr #1
 c109770:	204000a1 	subcs	r0, r0, r1, lsr #1
 c109774:	218220a3 	orrcs	r2, r2, r3, lsr #1
 c109778:	e1500121 	cmp	r0, r1, lsr #2
 c10977c:	20400121 	subcs	r0, r0, r1, lsr #2
 c109780:	21822123 	orrcs	r2, r2, r3, lsr #2
 c109784:	e15001a1 	cmp	r0, r1, lsr #3
 c109788:	204001a1 	subcs	r0, r0, r1, lsr #3
 c10978c:	218221a3 	orrcs	r2, r2, r3, lsr #3
 c109790:	e3500000 	cmp	r0, #0
 c109794:	11b03223 	lsrsne	r3, r3, #4
 c109798:	11a01221 	lsrne	r1, r1, #4
 c10979c:	1affffef 	bne	c109760 <__aeabi_uidiv+0x58>
 c1097a0:	e1a00002 	mov	r0, r2
 c1097a4:	e12fff1e 	bx	lr
 c1097a8:	03a00001 	moveq	r0, #1
 c1097ac:	13a00000 	movne	r0, #0
 c1097b0:	e12fff1e 	bx	lr
 c1097b4:	e3510801 	cmp	r1, #65536	; 0x10000
 c1097b8:	21a01821 	lsrcs	r1, r1, #16
 c1097bc:	23a02010 	movcs	r2, #16
 c1097c0:	33a02000 	movcc	r2, #0
 c1097c4:	e3510c01 	cmp	r1, #256	; 0x100
 c1097c8:	21a01421 	lsrcs	r1, r1, #8
 c1097cc:	22822008 	addcs	r2, r2, #8
 c1097d0:	e3510010 	cmp	r1, #16
 c1097d4:	21a01221 	lsrcs	r1, r1, #4
 c1097d8:	22822004 	addcs	r2, r2, #4
 c1097dc:	e3510004 	cmp	r1, #4
 c1097e0:	82822003 	addhi	r2, r2, #3
 c1097e4:	908220a1 	addls	r2, r2, r1, lsr #1
 c1097e8:	e1a00230 	lsr	r0, r0, r2
 c1097ec:	e12fff1e 	bx	lr
 c1097f0:	e3500000 	cmp	r0, #0
 c1097f4:	13e00000 	mvnne	r0, #0
 c1097f8:	ea000059 	b	c109964 <__aeabi_idiv0>

0c1097fc <__aeabi_uidivmod>:
 c1097fc:	e3510000 	cmp	r1, #0
 c109800:	0afffffa 	beq	c1097f0 <__aeabi_uidiv+0xe8>
 c109804:	e92d4003 	push	{r0, r1, lr}
 c109808:	ebffffbe 	bl	c109708 <__aeabi_uidiv>
 c10980c:	e8bd4006 	pop	{r1, r2, lr}
 c109810:	e0030092 	mul	r3, r2, r0
 c109814:	e0411003 	sub	r1, r1, r3
 c109818:	e12fff1e 	bx	lr

0c10981c <__aeabi_idiv>:
 c10981c:	e3510000 	cmp	r1, #0
 c109820:	0a000043 	beq	c109934 <.divsi3_skip_div0_test+0x110>

0c109824 <.divsi3_skip_div0_test>:
 c109824:	e020c001 	eor	ip, r0, r1
 c109828:	42611000 	rsbmi	r1, r1, #0
 c10982c:	e2512001 	subs	r2, r1, #1
 c109830:	0a000027 	beq	c1098d4 <.divsi3_skip_div0_test+0xb0>
 c109834:	e1b03000 	movs	r3, r0
 c109838:	42603000 	rsbmi	r3, r0, #0
 c10983c:	e1530001 	cmp	r3, r1
 c109840:	9a000026 	bls	c1098e0 <.divsi3_skip_div0_test+0xbc>
 c109844:	e1110002 	tst	r1, r2
 c109848:	0a000028 	beq	c1098f0 <.divsi3_skip_div0_test+0xcc>
 c10984c:	e311020e 	tst	r1, #-536870912	; 0xe0000000
 c109850:	01a01181 	lsleq	r1, r1, #3
 c109854:	03a02008 	moveq	r2, #8
 c109858:	13a02001 	movne	r2, #1
 c10985c:	e3510201 	cmp	r1, #268435456	; 0x10000000
 c109860:	31510003 	cmpcc	r1, r3
 c109864:	31a01201 	lslcc	r1, r1, #4
 c109868:	31a02202 	lslcc	r2, r2, #4
 c10986c:	3afffffa 	bcc	c10985c <.divsi3_skip_div0_test+0x38>
 c109870:	e3510102 	cmp	r1, #-2147483648	; 0x80000000
 c109874:	31510003 	cmpcc	r1, r3
 c109878:	31a01081 	lslcc	r1, r1, #1
 c10987c:	31a02082 	lslcc	r2, r2, #1
 c109880:	3afffffa 	bcc	c109870 <.divsi3_skip_div0_test+0x4c>
 c109884:	e3a00000 	mov	r0, #0
 c109888:	e1530001 	cmp	r3, r1
 c10988c:	20433001 	subcs	r3, r3, r1
 c109890:	21800002 	orrcs	r0, r0, r2
 c109894:	e15300a1 	cmp	r3, r1, lsr #1
 c109898:	204330a1 	subcs	r3, r3, r1, lsr #1
 c10989c:	218000a2 	orrcs	r0, r0, r2, lsr #1
 c1098a0:	e1530121 	cmp	r3, r1, lsr #2
 c1098a4:	20433121 	subcs	r3, r3, r1, lsr #2
 c1098a8:	21800122 	orrcs	r0, r0, r2, lsr #2
 c1098ac:	e15301a1 	cmp	r3, r1, lsr #3
 c1098b0:	204331a1 	subcs	r3, r3, r1, lsr #3
 c1098b4:	218001a2 	orrcs	r0, r0, r2, lsr #3
 c1098b8:	e3530000 	cmp	r3, #0
 c1098bc:	11b02222 	lsrsne	r2, r2, #4
 c1098c0:	11a01221 	lsrne	r1, r1, #4
 c1098c4:	1affffef 	bne	c109888 <.divsi3_skip_div0_test+0x64>
 c1098c8:	e35c0000 	cmp	ip, #0
 c1098cc:	42600000 	rsbmi	r0, r0, #0
 c1098d0:	e12fff1e 	bx	lr
 c1098d4:	e13c0000 	teq	ip, r0
 c1098d8:	42600000 	rsbmi	r0, r0, #0
 c1098dc:	e12fff1e 	bx	lr
 c1098e0:	33a00000 	movcc	r0, #0
 c1098e4:	01a00fcc 	asreq	r0, ip, #31
 c1098e8:	03800001 	orreq	r0, r0, #1
 c1098ec:	e12fff1e 	bx	lr
 c1098f0:	e3510801 	cmp	r1, #65536	; 0x10000
 c1098f4:	21a01821 	lsrcs	r1, r1, #16
 c1098f8:	23a02010 	movcs	r2, #16
 c1098fc:	33a02000 	movcc	r2, #0
 c109900:	e3510c01 	cmp	r1, #256	; 0x100
 c109904:	21a01421 	lsrcs	r1, r1, #8
 c109908:	22822008 	addcs	r2, r2, #8
 c10990c:	e3510010 	cmp	r1, #16
 c109910:	21a01221 	lsrcs	r1, r1, #4
 c109914:	22822004 	addcs	r2, r2, #4
 c109918:	e3510004 	cmp	r1, #4
 c10991c:	82822003 	addhi	r2, r2, #3
 c109920:	908220a1 	addls	r2, r2, r1, lsr #1
 c109924:	e35c0000 	cmp	ip, #0
 c109928:	e1a00233 	lsr	r0, r3, r2
 c10992c:	42600000 	rsbmi	r0, r0, #0
 c109930:	e12fff1e 	bx	lr
 c109934:	e3500000 	cmp	r0, #0
 c109938:	c3e00102 	mvngt	r0, #-2147483648	; 0x80000000
 c10993c:	b3a00102 	movlt	r0, #-2147483648	; 0x80000000
 c109940:	ea000007 	b	c109964 <__aeabi_idiv0>

0c109944 <__aeabi_idivmod>:
 c109944:	e3510000 	cmp	r1, #0
 c109948:	0afffff9 	beq	c109934 <.divsi3_skip_div0_test+0x110>
 c10994c:	e92d4003 	push	{r0, r1, lr}
 c109950:	ebffffb3 	bl	c109824 <.divsi3_skip_div0_test>
 c109954:	e8bd4006 	pop	{r1, r2, lr}
 c109958:	e0030092 	mul	r3, r2, r0
 c10995c:	e0411003 	sub	r1, r1, r3
 c109960:	e12fff1e 	bx	lr

0c109964 <__aeabi_idiv0>:
 c109964:	e12fff1e 	bx	lr

0c109968 <__aeabi_uldivmod>:
 c109968:	e3530000 	cmp	r3, #0
 c10996c:	03520000 	cmpeq	r2, #0
 c109970:	1a000004 	bne	c109988 <__aeabi_uldivmod+0x20>
 c109974:	e3510000 	cmp	r1, #0
 c109978:	03500000 	cmpeq	r0, #0
 c10997c:	13e01000 	mvnne	r1, #0
 c109980:	13e00000 	mvnne	r0, #0
 c109984:	eafffff6 	b	c109964 <__aeabi_idiv0>
 c109988:	e24dd008 	sub	sp, sp, #8
 c10998c:	e92d6000 	push	{sp, lr}
 c109990:	eb000013 	bl	c1099e4 <__gnu_uldivmod_helper>
 c109994:	e59de004 	ldr	lr, [sp, #4]
 c109998:	e28dd008 	add	sp, sp, #8
 c10999c:	e8bd000c 	pop	{r2, r3}
 c1099a0:	e12fff1e 	bx	lr

0c1099a4 <__gnu_ldivmod_helper>:
 c1099a4:	e92d40f8 	push	{r3, r4, r5, r6, r7, lr}
 c1099a8:	e1a04002 	mov	r4, r2
 c1099ac:	e1a07003 	mov	r7, r3
 c1099b0:	e1a05000 	mov	r5, r0
 c1099b4:	e1a06001 	mov	r6, r1
 c1099b8:	eb000019 	bl	c109a24 <__divdi3>
 c1099bc:	e0070790 	mul	r7, r0, r7
 c1099c0:	e0832490 	umull	r2, r3, r0, r4
 c1099c4:	e0247491 	mla	r4, r1, r4, r7
 c1099c8:	e0843003 	add	r3, r4, r3
 c1099cc:	e0555002 	subs	r5, r5, r2
 c1099d0:	e0c66003 	sbc	r6, r6, r3
 c1099d4:	e59d3018 	ldr	r3, [sp, #24]
 c1099d8:	e8830060 	stm	r3, {r5, r6}
 c1099dc:	e8bd40f8 	pop	{r3, r4, r5, r6, r7, lr}
 c1099e0:	e12fff1e 	bx	lr

0c1099e4 <__gnu_uldivmod_helper>:
 c1099e4:	e92d40f8 	push	{r3, r4, r5, r6, r7, lr}
 c1099e8:	e1a04002 	mov	r4, r2
 c1099ec:	e1a07003 	mov	r7, r3
 c1099f0:	e1a05000 	mov	r5, r0
 c1099f4:	e1a06001 	mov	r6, r1
 c1099f8:	eb000133 	bl	c109ecc <__udivdi3>
 c1099fc:	e0070790 	mul	r7, r0, r7
 c109a00:	e0832490 	umull	r2, r3, r0, r4
 c109a04:	e0247491 	mla	r4, r1, r4, r7
 c109a08:	e0843003 	add	r3, r4, r3
 c109a0c:	e0555002 	subs	r5, r5, r2
 c109a10:	e0c66003 	sbc	r6, r6, r3
 c109a14:	e59d3018 	ldr	r3, [sp, #24]
 c109a18:	e8830060 	stm	r3, {r5, r6}
 c109a1c:	e8bd40f8 	pop	{r3, r4, r5, r6, r7, lr}
 c109a20:	e12fff1e 	bx	lr

0c109a24 <__divdi3>:
 c109a24:	e92d4ff0 	push	{r4, r5, r6, r7, r8, r9, sl, fp, lr}
 c109a28:	e3510000 	cmp	r1, #0
 c109a2c:	e24dd014 	sub	sp, sp, #20
 c109a30:	e1a0c003 	mov	ip, r3
 c109a34:	a3a07000 	movge	r7, #0
 c109a38:	ba000094 	blt	c109c90 <__divdi3+0x26c>
 c109a3c:	e35c0000 	cmp	ip, #0
 c109a40:	ba00008e 	blt	c109c80 <__divdi3+0x25c>
 c109a44:	e253a000 	subs	sl, r3, #0
 c109a48:	e1a0b000 	mov	fp, r0
 c109a4c:	e1a08001 	mov	r8, r1
 c109a50:	e1a09002 	mov	r9, r2
 c109a54:	e1a04002 	mov	r4, r2
 c109a58:	e1a05000 	mov	r5, r0
 c109a5c:	e1a06001 	mov	r6, r1
 c109a60:	1a00003e 	bne	c109b60 <__divdi3+0x13c>
 c109a64:	e1520001 	cmp	r2, r1
 c109a68:	9a00004c 	bls	c109ba0 <__divdi3+0x17c>
 c109a6c:	e1a00002 	mov	r0, r2
 c109a70:	eb000222 	bl	c10a300 <__clzsi2>
 c109a74:	e3500000 	cmp	r0, #0
 c109a78:	12603020 	rsbne	r3, r0, #32
 c109a7c:	11a0333b 	lsrne	r3, fp, r3
 c109a80:	11a04019 	lslne	r4, r9, r0
 c109a84:	11836018 	orrne	r6, r3, r8, lsl r0
 c109a88:	e1a09824 	lsr	r9, r4, #16
 c109a8c:	11a0501b 	lslne	r5, fp, r0
 c109a90:	e1a01009 	mov	r1, r9
 c109a94:	e1a00006 	mov	r0, r6
 c109a98:	ebffff1a 	bl	c109708 <__aeabi_uidiv>
 c109a9c:	e1a01009 	mov	r1, r9
 c109aa0:	e1a0a000 	mov	sl, r0
 c109aa4:	e1a00006 	mov	r0, r6
 c109aa8:	ebffff53 	bl	c1097fc <__aeabi_uidivmod>
 c109aac:	e1a08804 	lsl	r8, r4, #16
 c109ab0:	e1a08828 	lsr	r8, r8, #16
 c109ab4:	e0030a98 	mul	r3, r8, sl
 c109ab8:	e1a0b825 	lsr	fp, r5, #16
 c109abc:	e18bb801 	orr	fp, fp, r1, lsl #16
 c109ac0:	e153000b 	cmp	r3, fp
 c109ac4:	9a000005 	bls	c109ae0 <__divdi3+0xbc>
 c109ac8:	e09bb004 	adds	fp, fp, r4
 c109acc:	e24aa001 	sub	sl, sl, #1
 c109ad0:	2a000002 	bcs	c109ae0 <__divdi3+0xbc>
 c109ad4:	e153000b 	cmp	r3, fp
 c109ad8:	824aa001 	subhi	sl, sl, #1
 c109adc:	808bb004 	addhi	fp, fp, r4
 c109ae0:	e063b00b 	rsb	fp, r3, fp
 c109ae4:	e1a01009 	mov	r1, r9
 c109ae8:	e1a0000b 	mov	r0, fp
 c109aec:	ebffff05 	bl	c109708 <__aeabi_uidiv>
 c109af0:	e1a01009 	mov	r1, r9
 c109af4:	e1a06000 	mov	r6, r0
 c109af8:	e1a0000b 	mov	r0, fp
 c109afc:	ebffff3e 	bl	c1097fc <__aeabi_uidivmod>
 c109b00:	e0080896 	mul	r8, r6, r8
 c109b04:	e1a00805 	lsl	r0, r5, #16
 c109b08:	e1a05820 	lsr	r5, r0, #16
 c109b0c:	e1855801 	orr	r5, r5, r1, lsl #16
 c109b10:	e1580005 	cmp	r8, r5
 c109b14:	9a000004 	bls	c109b2c <__divdi3+0x108>
 c109b18:	e0955004 	adds	r5, r5, r4
 c109b1c:	e2466001 	sub	r6, r6, #1
 c109b20:	2a000001 	bcs	c109b2c <__divdi3+0x108>
 c109b24:	e1580005 	cmp	r8, r5
 c109b28:	82466001 	subhi	r6, r6, #1
 c109b2c:	e186680a 	orr	r6, r6, sl, lsl #16
 c109b30:	e3a09000 	mov	r9, #0
 c109b34:	e3570000 	cmp	r7, #0
 c109b38:	e1a03006 	mov	r3, r6
 c109b3c:	e1a04009 	mov	r4, r9
 c109b40:	0a000001 	beq	c109b4c <__divdi3+0x128>
 c109b44:	e2733000 	rsbs	r3, r3, #0
 c109b48:	e2e44000 	rsc	r4, r4, #0
 c109b4c:	e1a00003 	mov	r0, r3
 c109b50:	e1a01004 	mov	r1, r4
 c109b54:	e28dd014 	add	sp, sp, #20
 c109b58:	e8bd4ff0 	pop	{r4, r5, r6, r7, r8, r9, sl, fp, lr}
 c109b5c:	e12fff1e 	bx	lr
 c109b60:	e15a0001 	cmp	sl, r1
 c109b64:	83a09000 	movhi	r9, #0
 c109b68:	81a06009 	movhi	r6, r9
 c109b6c:	8afffff0 	bhi	c109b34 <__divdi3+0x110>
 c109b70:	e1a00003 	mov	r0, r3
 c109b74:	eb0001e1 	bl	c10a300 <__clzsi2>
 c109b78:	e2504000 	subs	r4, r0, #0
 c109b7c:	1a00007a 	bne	c109d6c <__divdi3+0x348>
 c109b80:	e15a0008 	cmp	sl, r8
 c109b84:	2159000b 	cmpcs	r9, fp
 c109b88:	83a09000 	movhi	r9, #0
 c109b8c:	93a09001 	movls	r9, #1
 c109b90:	93a06001 	movls	r6, #1
 c109b94:	91a09004 	movls	r9, r4
 c109b98:	81a06009 	movhi	r6, r9
 c109b9c:	eaffffe4 	b	c109b34 <__divdi3+0x110>
 c109ba0:	e3520000 	cmp	r2, #0
 c109ba4:	1a000003 	bne	c109bb8 <__divdi3+0x194>
 c109ba8:	e3a00001 	mov	r0, #1
 c109bac:	e1a01002 	mov	r1, r2
 c109bb0:	ebfffed4 	bl	c109708 <__aeabi_uidiv>
 c109bb4:	e1a04000 	mov	r4, r0
 c109bb8:	e1a00004 	mov	r0, r4
 c109bbc:	eb0001cf 	bl	c10a300 <__clzsi2>
 c109bc0:	e2503000 	subs	r3, r0, #0
 c109bc4:	1a000035 	bne	c109ca0 <__divdi3+0x27c>
 c109bc8:	e3a01001 	mov	r1, #1
 c109bcc:	e1a09804 	lsl	r9, r4, #16
 c109bd0:	e58d1008 	str	r1, [sp, #8]
 c109bd4:	e0646006 	rsb	r6, r4, r6
 c109bd8:	e1a08824 	lsr	r8, r4, #16
 c109bdc:	e1a09829 	lsr	r9, r9, #16
 c109be0:	e1a01008 	mov	r1, r8
 c109be4:	e1a00006 	mov	r0, r6
 c109be8:	ebfffec6 	bl	c109708 <__aeabi_uidiv>
 c109bec:	e1a01008 	mov	r1, r8
 c109bf0:	e1a0a000 	mov	sl, r0
 c109bf4:	e1a00006 	mov	r0, r6
 c109bf8:	ebfffeff 	bl	c1097fc <__aeabi_uidivmod>
 c109bfc:	e0030a99 	mul	r3, r9, sl
 c109c00:	e1a0c825 	lsr	ip, r5, #16
 c109c04:	e18cb801 	orr	fp, ip, r1, lsl #16
 c109c08:	e153000b 	cmp	r3, fp
 c109c0c:	9a000005 	bls	c109c28 <__divdi3+0x204>
 c109c10:	e09bb004 	adds	fp, fp, r4
 c109c14:	e24aa001 	sub	sl, sl, #1
 c109c18:	2a000002 	bcs	c109c28 <__divdi3+0x204>
 c109c1c:	e153000b 	cmp	r3, fp
 c109c20:	824aa001 	subhi	sl, sl, #1
 c109c24:	808bb004 	addhi	fp, fp, r4
 c109c28:	e063b00b 	rsb	fp, r3, fp
 c109c2c:	e1a01008 	mov	r1, r8
 c109c30:	e1a0000b 	mov	r0, fp
 c109c34:	ebfffeb3 	bl	c109708 <__aeabi_uidiv>
 c109c38:	e1a01008 	mov	r1, r8
 c109c3c:	e1a06000 	mov	r6, r0
 c109c40:	e1a0000b 	mov	r0, fp
 c109c44:	ebfffeec 	bl	c1097fc <__aeabi_uidivmod>
 c109c48:	e0090996 	mul	r9, r6, r9
 c109c4c:	e1a00805 	lsl	r0, r5, #16
 c109c50:	e1a05820 	lsr	r5, r0, #16
 c109c54:	e1855801 	orr	r5, r5, r1, lsl #16
 c109c58:	e1590005 	cmp	r9, r5
 c109c5c:	9a000004 	bls	c109c74 <__divdi3+0x250>
 c109c60:	e0955004 	adds	r5, r5, r4
 c109c64:	e2466001 	sub	r6, r6, #1
 c109c68:	2a000001 	bcs	c109c74 <__divdi3+0x250>
 c109c6c:	e1590005 	cmp	r9, r5
 c109c70:	82466001 	subhi	r6, r6, #1
 c109c74:	e186680a 	orr	r6, r6, sl, lsl #16
 c109c78:	e59d9008 	ldr	r9, [sp, #8]
 c109c7c:	eaffffac 	b	c109b34 <__divdi3+0x110>
 c109c80:	e1e07007 	mvn	r7, r7
 c109c84:	e2722000 	rsbs	r2, r2, #0
 c109c88:	e2e33000 	rsc	r3, r3, #0
 c109c8c:	eaffff6c 	b	c109a44 <__divdi3+0x20>
 c109c90:	e2700000 	rsbs	r0, r0, #0
 c109c94:	e2e11000 	rsc	r1, r1, #0
 c109c98:	e3e07000 	mvn	r7, #0
 c109c9c:	eaffff66 	b	c109a3c <__divdi3+0x18>
 c109ca0:	e2638020 	rsb	r8, r3, #32
 c109ca4:	e1a0b835 	lsr	fp, r5, r8
 c109ca8:	e1a04314 	lsl	r4, r4, r3
 c109cac:	e1a0a836 	lsr	sl, r6, r8
 c109cb0:	e18be316 	orr	lr, fp, r6, lsl r3
 c109cb4:	e1a08824 	lsr	r8, r4, #16
 c109cb8:	e1a0c804 	lsl	ip, r4, #16
 c109cbc:	e1a01008 	mov	r1, r8
 c109cc0:	e1a0000a 	mov	r0, sl
 c109cc4:	e1a0982c 	lsr	r9, ip, #16
 c109cc8:	e1a05315 	lsl	r5, r5, r3
 c109ccc:	e58de008 	str	lr, [sp, #8]
 c109cd0:	ebfffe8c 	bl	c109708 <__aeabi_uidiv>
 c109cd4:	e1a01008 	mov	r1, r8
 c109cd8:	e1a0b000 	mov	fp, r0
 c109cdc:	e1a0000a 	mov	r0, sl
 c109ce0:	ebfffec5 	bl	c1097fc <__aeabi_uidivmod>
 c109ce4:	e0030b99 	mul	r3, r9, fp
 c109ce8:	e59d2008 	ldr	r2, [sp, #8]
 c109cec:	e1a06822 	lsr	r6, r2, #16
 c109cf0:	e1866801 	orr	r6, r6, r1, lsl #16
 c109cf4:	e1530006 	cmp	r3, r6
 c109cf8:	9a000002 	bls	c109d08 <__divdi3+0x2e4>
 c109cfc:	e0966004 	adds	r6, r6, r4
 c109d00:	e24bb001 	sub	fp, fp, #1
 c109d04:	3a00006c 	bcc	c109ebc <__divdi3+0x498>
 c109d08:	e0636006 	rsb	r6, r3, r6
 c109d0c:	e1a01008 	mov	r1, r8
 c109d10:	e1a00006 	mov	r0, r6
 c109d14:	ebfffe7b 	bl	c109708 <__aeabi_uidiv>
 c109d18:	e1a01008 	mov	r1, r8
 c109d1c:	e1a0a000 	mov	sl, r0
 c109d20:	e1a00006 	mov	r0, r6
 c109d24:	ebfffeb4 	bl	c1097fc <__aeabi_uidivmod>
 c109d28:	e0030a99 	mul	r3, r9, sl
 c109d2c:	e59d2008 	ldr	r2, [sp, #8]
 c109d30:	e1a06802 	lsl	r6, r2, #16
 c109d34:	e1a00826 	lsr	r0, r6, #16
 c109d38:	e1806801 	orr	r6, r0, r1, lsl #16
 c109d3c:	e1530006 	cmp	r3, r6
 c109d40:	9a000005 	bls	c109d5c <__divdi3+0x338>
 c109d44:	e0966004 	adds	r6, r6, r4
 c109d48:	e24aa001 	sub	sl, sl, #1
 c109d4c:	2a000002 	bcs	c109d5c <__divdi3+0x338>
 c109d50:	e1530006 	cmp	r3, r6
 c109d54:	824aa001 	subhi	sl, sl, #1
 c109d58:	80866004 	addhi	r6, r6, r4
 c109d5c:	e0636006 	rsb	r6, r3, r6
 c109d60:	e18a380b 	orr	r3, sl, fp, lsl #16
 c109d64:	e58d3008 	str	r3, [sp, #8]
 c109d68:	eaffff9c 	b	c109be0 <__divdi3+0x1bc>
 c109d6c:	e2641020 	rsb	r1, r4, #32
 c109d70:	e1a00139 	lsr	r0, r9, r1
 c109d74:	e1a0213b 	lsr	r2, fp, r1
 c109d78:	e180a41a 	orr	sl, r0, sl, lsl r4
 c109d7c:	e1a06138 	lsr	r6, r8, r1
 c109d80:	e1828418 	orr	r8, r2, r8, lsl r4
 c109d84:	e1a0380a 	lsl	r3, sl, #16
 c109d88:	e1a0b82a 	lsr	fp, sl, #16
 c109d8c:	e1a0e823 	lsr	lr, r3, #16
 c109d90:	e1a0100b 	mov	r1, fp
 c109d94:	e1a00006 	mov	r0, r6
 c109d98:	e58d8008 	str	r8, [sp, #8]
 c109d9c:	e58de00c 	str	lr, [sp, #12]
 c109da0:	ebfffe58 	bl	c109708 <__aeabi_uidiv>
 c109da4:	e1a0100b 	mov	r1, fp
 c109da8:	e1a08000 	mov	r8, r0
 c109dac:	e1a00006 	mov	r0, r6
 c109db0:	ebfffe91 	bl	c1097fc <__aeabi_uidivmod>
 c109db4:	e59dc00c 	ldr	ip, [sp, #12]
 c109db8:	e002089c 	mul	r2, ip, r8
 c109dbc:	e59d3008 	ldr	r3, [sp, #8]
 c109dc0:	e1a06823 	lsr	r6, r3, #16
 c109dc4:	e1861801 	orr	r1, r6, r1, lsl #16
 c109dc8:	e1520001 	cmp	r2, r1
 c109dcc:	e1a03419 	lsl	r3, r9, r4
 c109dd0:	9a000002 	bls	c109de0 <__divdi3+0x3bc>
 c109dd4:	e091100a 	adds	r1, r1, sl
 c109dd8:	e2488001 	sub	r8, r8, #1
 c109ddc:	3a000032 	bcc	c109eac <__divdi3+0x488>
 c109de0:	e0629001 	rsb	r9, r2, r1
 c109de4:	e1a00009 	mov	r0, r9
 c109de8:	e1a0100b 	mov	r1, fp
 c109dec:	e58d3004 	str	r3, [sp, #4]
 c109df0:	ebfffe44 	bl	c109708 <__aeabi_uidiv>
 c109df4:	e1a0100b 	mov	r1, fp
 c109df8:	e1a06000 	mov	r6, r0
 c109dfc:	e1a00009 	mov	r0, r9
 c109e00:	ebfffe7d 	bl	c1097fc <__aeabi_uidivmod>
 c109e04:	e59d000c 	ldr	r0, [sp, #12]
 c109e08:	e0020690 	mul	r2, r0, r6
 c109e0c:	e59d3008 	ldr	r3, [sp, #8]
 c109e10:	e1a0c803 	lsl	ip, r3, #16
 c109e14:	e1a0982c 	lsr	r9, ip, #16
 c109e18:	e1890801 	orr	r0, r9, r1, lsl #16
 c109e1c:	e1520000 	cmp	r2, r0
 c109e20:	e59d3004 	ldr	r3, [sp, #4]
 c109e24:	9a000002 	bls	c109e34 <__divdi3+0x410>
 c109e28:	e090000a 	adds	r0, r0, sl
 c109e2c:	e2466001 	sub	r6, r6, #1
 c109e30:	3a000019 	bcc	c109e9c <__divdi3+0x478>
 c109e34:	e062e000 	rsb	lr, r2, r0
 c109e38:	e1866808 	orr	r6, r6, r8, lsl #16
 c109e3c:	e1a02826 	lsr	r2, r6, #16
 c109e40:	e1a01823 	lsr	r1, r3, #16
 c109e44:	e1c6c802 	bic	ip, r6, r2, lsl #16
 c109e48:	e1c39801 	bic	r9, r3, r1, lsl #16
 c109e4c:	e003099c 	mul	r3, ip, r9
 c109e50:	e0090992 	mul	r9, r2, r9
 c109e54:	e00c0c91 	mul	ip, r1, ip
 c109e58:	e0010192 	mul	r1, r2, r1
 c109e5c:	e099c00c 	adds	ip, r9, ip
 c109e60:	22811801 	addcs	r1, r1, #65536	; 0x10000
 c109e64:	e093380c 	adds	r3, r3, ip, lsl #16
 c109e68:	e0a1182c 	adc	r1, r1, ip, lsr #16
 c109e6c:	e15e0001 	cmp	lr, r1
 c109e70:	3a000006 	bcc	c109e90 <__divdi3+0x46c>
 c109e74:	13a02000 	movne	r2, #0
 c109e78:	03a02001 	moveq	r2, #1
 c109e7c:	e1530415 	cmp	r3, r5, lsl r4
 c109e80:	93a09000 	movls	r9, #0
 c109e84:	82029001 	andhi	r9, r2, #1
 c109e88:	e3590000 	cmp	r9, #0
 c109e8c:	0affff28 	beq	c109b34 <__divdi3+0x110>
 c109e90:	e2466001 	sub	r6, r6, #1
 c109e94:	e3a09000 	mov	r9, #0
 c109e98:	eaffff25 	b	c109b34 <__divdi3+0x110>
 c109e9c:	e1520000 	cmp	r2, r0
 c109ea0:	82466001 	subhi	r6, r6, #1
 c109ea4:	8080000a 	addhi	r0, r0, sl
 c109ea8:	eaffffe1 	b	c109e34 <__divdi3+0x410>
 c109eac:	e1520001 	cmp	r2, r1
 c109eb0:	82488001 	subhi	r8, r8, #1
 c109eb4:	8081100a 	addhi	r1, r1, sl
 c109eb8:	eaffffc8 	b	c109de0 <__divdi3+0x3bc>
 c109ebc:	e1530006 	cmp	r3, r6
 c109ec0:	824bb001 	subhi	fp, fp, #1
 c109ec4:	80866004 	addhi	r6, r6, r4
 c109ec8:	eaffff8e 	b	c109d08 <__divdi3+0x2e4>

0c109ecc <__udivdi3>:
 c109ecc:	e92d4ff0 	push	{r4, r5, r6, r7, r8, r9, sl, fp, lr}
 c109ed0:	e2538000 	subs	r8, r3, #0
 c109ed4:	e24dd00c 	sub	sp, sp, #12
 c109ed8:	e1a05000 	mov	r5, r0
 c109edc:	e1a04001 	mov	r4, r1
 c109ee0:	e1a06002 	mov	r6, r2
 c109ee4:	e1a0a002 	mov	sl, r2
 c109ee8:	e1a0b000 	mov	fp, r0
 c109eec:	e1a07001 	mov	r7, r1
 c109ef0:	1a000037 	bne	c109fd4 <__udivdi3+0x108>
 c109ef4:	e1520001 	cmp	r2, r1
 c109ef8:	9a000045 	bls	c10a014 <__udivdi3+0x148>
 c109efc:	e1a00002 	mov	r0, r2
 c109f00:	eb0000fe 	bl	c10a300 <__clzsi2>
 c109f04:	e3500000 	cmp	r0, #0
 c109f08:	12603020 	rsbne	r3, r0, #32
 c109f0c:	11a03335 	lsrne	r3, r5, r3
 c109f10:	11a0a016 	lslne	sl, r6, r0
 c109f14:	11837014 	orrne	r7, r3, r4, lsl r0
 c109f18:	e1a0482a 	lsr	r4, sl, #16
 c109f1c:	11a0b015 	lslne	fp, r5, r0
 c109f20:	e1a01004 	mov	r1, r4
 c109f24:	e1a00007 	mov	r0, r7
 c109f28:	ebfffdf6 	bl	c109708 <__aeabi_uidiv>
 c109f2c:	e1a01004 	mov	r1, r4
 c109f30:	e1a08000 	mov	r8, r0
 c109f34:	e1a00007 	mov	r0, r7
 c109f38:	ebfffe2f 	bl	c1097fc <__aeabi_uidivmod>
 c109f3c:	e1a0680a 	lsl	r6, sl, #16
 c109f40:	e1a06826 	lsr	r6, r6, #16
 c109f44:	e0030896 	mul	r3, r6, r8
 c109f48:	e1a0782b 	lsr	r7, fp, #16
 c109f4c:	e1877801 	orr	r7, r7, r1, lsl #16
 c109f50:	e1530007 	cmp	r3, r7
 c109f54:	9a000005 	bls	c109f70 <__udivdi3+0xa4>
 c109f58:	e097700a 	adds	r7, r7, sl
 c109f5c:	e2488001 	sub	r8, r8, #1
 c109f60:	2a000002 	bcs	c109f70 <__udivdi3+0xa4>
 c109f64:	e1530007 	cmp	r3, r7
 c109f68:	82488001 	subhi	r8, r8, #1
 c109f6c:	8087700a 	addhi	r7, r7, sl
 c109f70:	e0637007 	rsb	r7, r3, r7
 c109f74:	e1a01004 	mov	r1, r4
 c109f78:	e1a00007 	mov	r0, r7
 c109f7c:	ebfffde1 	bl	c109708 <__aeabi_uidiv>
 c109f80:	e1a01004 	mov	r1, r4
 c109f84:	e1a05000 	mov	r5, r0
 c109f88:	e1a00007 	mov	r0, r7
 c109f8c:	ebfffe1a 	bl	c1097fc <__aeabi_uidivmod>
 c109f90:	e0060695 	mul	r6, r5, r6
 c109f94:	e1a0080b 	lsl	r0, fp, #16
 c109f98:	e1a0b820 	lsr	fp, r0, #16
 c109f9c:	e18bb801 	orr	fp, fp, r1, lsl #16
 c109fa0:	e156000b 	cmp	r6, fp
 c109fa4:	9a000004 	bls	c109fbc <__udivdi3+0xf0>
 c109fa8:	e09bb00a 	adds	fp, fp, sl
 c109fac:	e2455001 	sub	r5, r5, #1
 c109fb0:	2a000001 	bcs	c109fbc <__udivdi3+0xf0>
 c109fb4:	e156000b 	cmp	r6, fp
 c109fb8:	82455001 	subhi	r5, r5, #1
 c109fbc:	e1858808 	orr	r8, r5, r8, lsl #16
 c109fc0:	e3a01000 	mov	r1, #0
 c109fc4:	e1a00008 	mov	r0, r8
 c109fc8:	e28dd00c 	add	sp, sp, #12
 c109fcc:	e8bd4ff0 	pop	{r4, r5, r6, r7, r8, r9, sl, fp, lr}
 c109fd0:	e12fff1e 	bx	lr
 c109fd4:	e1580001 	cmp	r8, r1
 c109fd8:	83a01000 	movhi	r1, #0
 c109fdc:	81a08001 	movhi	r8, r1
 c109fe0:	8afffff7 	bhi	c109fc4 <__udivdi3+0xf8>
 c109fe4:	e1a00008 	mov	r0, r8
 c109fe8:	eb0000c4 	bl	c10a300 <__clzsi2>
 c109fec:	e2507000 	subs	r7, r0, #0
 c109ff0:	1a00003e 	bne	c10a0f0 <__udivdi3+0x224>
 c109ff4:	e1580004 	cmp	r8, r4
 c109ff8:	21560005 	cmpcs	r6, r5
 c109ffc:	83a01000 	movhi	r1, #0
 c10a000:	93a01001 	movls	r1, #1
 c10a004:	93a08001 	movls	r8, #1
 c10a008:	91a01007 	movls	r1, r7
 c10a00c:	81a08001 	movhi	r8, r1
 c10a010:	eaffffeb 	b	c109fc4 <__udivdi3+0xf8>
 c10a014:	e3520000 	cmp	r2, #0
 c10a018:	1a000003 	bne	c10a02c <__udivdi3+0x160>
 c10a01c:	e3a00001 	mov	r0, #1
 c10a020:	e1a01002 	mov	r1, r2
 c10a024:	ebfffdb7 	bl	c109708 <__aeabi_uidiv>
 c10a028:	e1a0a000 	mov	sl, r0
 c10a02c:	e1a0000a 	mov	r0, sl
 c10a030:	eb0000b2 	bl	c10a300 <__clzsi2>
 c10a034:	e2503000 	subs	r3, r0, #0
 c10a038:	1a000075 	bne	c10a214 <__udivdi3+0x348>
 c10a03c:	e1a0180a 	lsl	r1, sl, #16
 c10a040:	e06a4004 	rsb	r4, sl, r4
 c10a044:	e1a0982a 	lsr	r9, sl, #16
 c10a048:	e1a06821 	lsr	r6, r1, #16
 c10a04c:	e3a07001 	mov	r7, #1
 c10a050:	e1a01009 	mov	r1, r9
 c10a054:	e1a00004 	mov	r0, r4
 c10a058:	ebfffdaa 	bl	c109708 <__aeabi_uidiv>
 c10a05c:	e1a01009 	mov	r1, r9
 c10a060:	e1a05000 	mov	r5, r0
 c10a064:	e1a00004 	mov	r0, r4
 c10a068:	ebfffde3 	bl	c1097fc <__aeabi_uidivmod>
 c10a06c:	e0030596 	mul	r3, r6, r5
 c10a070:	e1a0282b 	lsr	r2, fp, #16
 c10a074:	e1824801 	orr	r4, r2, r1, lsl #16
 c10a078:	e1530004 	cmp	r3, r4
 c10a07c:	9a000005 	bls	c10a098 <__udivdi3+0x1cc>
 c10a080:	e094400a 	adds	r4, r4, sl
 c10a084:	e2455001 	sub	r5, r5, #1
 c10a088:	2a000002 	bcs	c10a098 <__udivdi3+0x1cc>
 c10a08c:	e1530004 	cmp	r3, r4
 c10a090:	82455001 	subhi	r5, r5, #1
 c10a094:	8084400a 	addhi	r4, r4, sl
 c10a098:	e0634004 	rsb	r4, r3, r4
 c10a09c:	e1a01009 	mov	r1, r9
 c10a0a0:	e1a00004 	mov	r0, r4
 c10a0a4:	ebfffd97 	bl	c109708 <__aeabi_uidiv>
 c10a0a8:	e1a01009 	mov	r1, r9
 c10a0ac:	e1a08000 	mov	r8, r0
 c10a0b0:	e1a00004 	mov	r0, r4
 c10a0b4:	ebfffdd0 	bl	c1097fc <__aeabi_uidivmod>
 c10a0b8:	e0060698 	mul	r6, r8, r6
 c10a0bc:	e1a0b80b 	lsl	fp, fp, #16
 c10a0c0:	e1a0382b 	lsr	r3, fp, #16
 c10a0c4:	e183b801 	orr	fp, r3, r1, lsl #16
 c10a0c8:	e156000b 	cmp	r6, fp
 c10a0cc:	9a000004 	bls	c10a0e4 <__udivdi3+0x218>
 c10a0d0:	e09bb00a 	adds	fp, fp, sl
 c10a0d4:	e2488001 	sub	r8, r8, #1
 c10a0d8:	2a000001 	bcs	c10a0e4 <__udivdi3+0x218>
 c10a0dc:	e156000b 	cmp	r6, fp
 c10a0e0:	82488001 	subhi	r8, r8, #1
 c10a0e4:	e1888805 	orr	r8, r8, r5, lsl #16
 c10a0e8:	e1a01007 	mov	r1, r7
 c10a0ec:	eaffffb4 	b	c109fc4 <__udivdi3+0xf8>
 c10a0f0:	e267a020 	rsb	sl, r7, #32
 c10a0f4:	e1a01a36 	lsr	r1, r6, sl
 c10a0f8:	e1a02a35 	lsr	r2, r5, sl
 c10a0fc:	e1818718 	orr	r8, r1, r8, lsl r7
 c10a100:	e1a0ba34 	lsr	fp, r4, sl
 c10a104:	e1829714 	orr	r9, r2, r4, lsl r7
 c10a108:	e1a0a828 	lsr	sl, r8, #16
 c10a10c:	e1a0e808 	lsl	lr, r8, #16
 c10a110:	e1a0100a 	mov	r1, sl
 c10a114:	e1a0000b 	mov	r0, fp
 c10a118:	e1a0482e 	lsr	r4, lr, #16
 c10a11c:	e58d9004 	str	r9, [sp, #4]
 c10a120:	ebfffd78 	bl	c109708 <__aeabi_uidiv>
 c10a124:	e1a0100a 	mov	r1, sl
 c10a128:	e1a09000 	mov	r9, r0
 c10a12c:	e1a0000b 	mov	r0, fp
 c10a130:	ebfffdb1 	bl	c1097fc <__aeabi_uidivmod>
 c10a134:	e0020994 	mul	r2, r4, r9
 c10a138:	e59d0004 	ldr	r0, [sp, #4]
 c10a13c:	e1a0c820 	lsr	ip, r0, #16
 c10a140:	e18cb801 	orr	fp, ip, r1, lsl #16
 c10a144:	e152000b 	cmp	r2, fp
 c10a148:	e1a03716 	lsl	r3, r6, r7
 c10a14c:	9a000002 	bls	c10a15c <__udivdi3+0x290>
 c10a150:	e09bb008 	adds	fp, fp, r8
 c10a154:	e2499001 	sub	r9, r9, #1
 c10a158:	3a000060 	bcc	c10a2e0 <__udivdi3+0x414>
 c10a15c:	e062b00b 	rsb	fp, r2, fp
 c10a160:	e1a0100a 	mov	r1, sl
 c10a164:	e1a0000b 	mov	r0, fp
 c10a168:	e58d3000 	str	r3, [sp]
 c10a16c:	ebfffd65 	bl	c109708 <__aeabi_uidiv>
 c10a170:	e1a0100a 	mov	r1, sl
 c10a174:	e1a06000 	mov	r6, r0
 c10a178:	e1a0000b 	mov	r0, fp
 c10a17c:	ebfffd9e 	bl	c1097fc <__aeabi_uidivmod>
 c10a180:	e0040496 	mul	r4, r6, r4
 c10a184:	e59d0004 	ldr	r0, [sp, #4]
 c10a188:	e1a0c800 	lsl	ip, r0, #16
 c10a18c:	e1a0382c 	lsr	r3, ip, #16
 c10a190:	e1832801 	orr	r2, r3, r1, lsl #16
 c10a194:	e1540002 	cmp	r4, r2
 c10a198:	e59d3000 	ldr	r3, [sp]
 c10a19c:	9a000002 	bls	c10a1ac <__udivdi3+0x2e0>
 c10a1a0:	e0922008 	adds	r2, r2, r8
 c10a1a4:	e2466001 	sub	r6, r6, #1
 c10a1a8:	3a000048 	bcc	c10a2d0 <__udivdi3+0x404>
 c10a1ac:	e0644002 	rsb	r4, r4, r2
 c10a1b0:	e1868809 	orr	r8, r6, r9, lsl #16
 c10a1b4:	e1a02828 	lsr	r2, r8, #16
 c10a1b8:	e1a0e823 	lsr	lr, r3, #16
 c10a1bc:	e1c80802 	bic	r0, r8, r2, lsl #16
 c10a1c0:	e1c3680e 	bic	r6, r3, lr, lsl #16
 c10a1c4:	e0030690 	mul	r3, r0, r6
 c10a1c8:	e0060692 	mul	r6, r2, r6
 c10a1cc:	e000009e 	mul	r0, lr, r0
 c10a1d0:	e00e0e92 	mul	lr, r2, lr
 c10a1d4:	e0960000 	adds	r0, r6, r0
 c10a1d8:	228ee801 	addcs	lr, lr, #65536	; 0x10000
 c10a1dc:	e0933800 	adds	r3, r3, r0, lsl #16
 c10a1e0:	e0aee820 	adc	lr, lr, r0, lsr #16
 c10a1e4:	e154000e 	cmp	r4, lr
 c10a1e8:	3a000006 	bcc	c10a208 <__udivdi3+0x33c>
 c10a1ec:	13a02000 	movne	r2, #0
 c10a1f0:	03a02001 	moveq	r2, #1
 c10a1f4:	e1530715 	cmp	r3, r5, lsl r7
 c10a1f8:	93a01000 	movls	r1, #0
 c10a1fc:	82021001 	andhi	r1, r2, #1
 c10a200:	e3510000 	cmp	r1, #0
 c10a204:	0affff6e 	beq	c109fc4 <__udivdi3+0xf8>
 c10a208:	e2488001 	sub	r8, r8, #1
 c10a20c:	e3a01000 	mov	r1, #0
 c10a210:	eaffff6b 	b	c109fc4 <__udivdi3+0xf8>
 c10a214:	e2639020 	rsb	r9, r3, #32
 c10a218:	e1a0a31a 	lsl	sl, sl, r3
 c10a21c:	e1a07934 	lsr	r7, r4, r9
 c10a220:	e1a08935 	lsr	r8, r5, r9
 c10a224:	e1a0982a 	lsr	r9, sl, #16
 c10a228:	e1a0280a 	lsl	r2, sl, #16
 c10a22c:	e1a01009 	mov	r1, r9
 c10a230:	e1a00007 	mov	r0, r7
 c10a234:	e1888314 	orr	r8, r8, r4, lsl r3
 c10a238:	e1a0b315 	lsl	fp, r5, r3
 c10a23c:	e1a06822 	lsr	r6, r2, #16
 c10a240:	ebfffd30 	bl	c109708 <__aeabi_uidiv>
 c10a244:	e1a01009 	mov	r1, r9
 c10a248:	e1a05000 	mov	r5, r0
 c10a24c:	e1a00007 	mov	r0, r7
 c10a250:	ebfffd69 	bl	c1097fc <__aeabi_uidivmod>
 c10a254:	e0030596 	mul	r3, r6, r5
 c10a258:	e1a04828 	lsr	r4, r8, #16
 c10a25c:	e1844801 	orr	r4, r4, r1, lsl #16
 c10a260:	e1530004 	cmp	r3, r4
 c10a264:	9a000002 	bls	c10a274 <__udivdi3+0x3a8>
 c10a268:	e094400a 	adds	r4, r4, sl
 c10a26c:	e2455001 	sub	r5, r5, #1
 c10a270:	3a00001e 	bcc	c10a2f0 <__udivdi3+0x424>
 c10a274:	e0634004 	rsb	r4, r3, r4
 c10a278:	e1a01009 	mov	r1, r9
 c10a27c:	e1a00004 	mov	r0, r4
 c10a280:	ebfffd20 	bl	c109708 <__aeabi_uidiv>
 c10a284:	e1a01009 	mov	r1, r9
 c10a288:	e1a07000 	mov	r7, r0
 c10a28c:	e1a00004 	mov	r0, r4
 c10a290:	ebfffd59 	bl	c1097fc <__aeabi_uidivmod>
 c10a294:	e0030796 	mul	r3, r6, r7
 c10a298:	e1a00808 	lsl	r0, r8, #16
 c10a29c:	e1a0c820 	lsr	ip, r0, #16
 c10a2a0:	e18c4801 	orr	r4, ip, r1, lsl #16
 c10a2a4:	e1530004 	cmp	r3, r4
 c10a2a8:	9a000005 	bls	c10a2c4 <__udivdi3+0x3f8>
 c10a2ac:	e094400a 	adds	r4, r4, sl
 c10a2b0:	e2477001 	sub	r7, r7, #1
 c10a2b4:	2a000002 	bcs	c10a2c4 <__udivdi3+0x3f8>
 c10a2b8:	e1530004 	cmp	r3, r4
 c10a2bc:	82477001 	subhi	r7, r7, #1
 c10a2c0:	8084400a 	addhi	r4, r4, sl
 c10a2c4:	e0634004 	rsb	r4, r3, r4
 c10a2c8:	e1877805 	orr	r7, r7, r5, lsl #16
 c10a2cc:	eaffff5f 	b	c10a050 <__udivdi3+0x184>
 c10a2d0:	e1540002 	cmp	r4, r2
 c10a2d4:	82466001 	subhi	r6, r6, #1
 c10a2d8:	80822008 	addhi	r2, r2, r8
 c10a2dc:	eaffffb2 	b	c10a1ac <__udivdi3+0x2e0>
 c10a2e0:	e152000b 	cmp	r2, fp
 c10a2e4:	82499001 	subhi	r9, r9, #1
 c10a2e8:	808bb008 	addhi	fp, fp, r8
 c10a2ec:	eaffff9a 	b	c10a15c <__udivdi3+0x290>
 c10a2f0:	e1530004 	cmp	r3, r4
 c10a2f4:	82455001 	subhi	r5, r5, #1
 c10a2f8:	8084400a 	addhi	r4, r4, sl
 c10a2fc:	eaffffdc 	b	c10a274 <__udivdi3+0x3a8>

0c10a300 <__clzsi2>:
 c10a300:	e3a0101c 	mov	r1, #28
 c10a304:	e3500801 	cmp	r0, #65536	; 0x10000
 c10a308:	21a00820 	lsrcs	r0, r0, #16
 c10a30c:	22411010 	subcs	r1, r1, #16
 c10a310:	e3500c01 	cmp	r0, #256	; 0x100
 c10a314:	21a00420 	lsrcs	r0, r0, #8
 c10a318:	22411008 	subcs	r1, r1, #8
 c10a31c:	e3500010 	cmp	r0, #16
 c10a320:	21a00220 	lsrcs	r0, r0, #4
 c10a324:	22411004 	subcs	r1, r1, #4
 c10a328:	e28f2008 	add	r2, pc, #8
 c10a32c:	e7d20000 	ldrb	r0, [r2, r0]
 c10a330:	e0800001 	add	r0, r0, r1
 c10a334:	e12fff1e 	bx	lr
 c10a338:	02020304 	.word	0x02020304
 c10a33c:	01010101 	.word	0x01010101
	...
